

Microchip MPLAB XC8 Assembler V2.46 build 20240104201356 
                                                                                               Tue Jul 09 09:34:10 2024

Microchip MPLAB XC8 C Compiler v2.46 (Free license) build 20240104201356 Og1 
     1                           	processor	18F46K20
     2                           	fnconf	rparam,??,?,0
     3                           	pagewidth 120
     4                           	opt	flic
     5                           	psect	smallconst,global,reloc=2,class=SMALLCONST,delta=1,noexec
     6                           	psect	cinit,global,reloc=2,class=CODE,delta=1
     7                           	psect	bssCOMRAM,global,class=COMRAM,space=1,delta=1,lowdata,noexec
     8                           	psect	bssBANK0,global,class=BANK0,space=1,delta=1,lowdata,noexec
     9                           	psect	bssBANK1,global,class=BANK1,space=1,delta=1,lowdata,noexec
    10                           	psect	cstackBANK1,global,class=BANK1,space=1,delta=1,lowdata,noexec
    11                           	psect	cstackBANK0,global,class=BANK0,space=1,delta=1,lowdata,noexec
    12                           	psect	cstackCOMRAM,global,class=COMRAM,space=1,delta=1,lowdata,noexec
    13                           	psect	text0,global,reloc=2,class=CODE,delta=1
    14                           	psect	text1,global,reloc=2,class=CODE,delta=1,group=3
    15                           	psect	text2,global,reloc=2,class=CODE,delta=1,group=1
    16                           	psect	text3,global,reloc=2,class=CODE,delta=1,group=1
    17                           	psect	text4,global,reloc=2,class=CODE,delta=1,group=3
    18                           	psect	text5,global,reloc=2,class=CODE,delta=1,group=3
    19                           	psect	text6,global,reloc=2,class=CODE,delta=1,group=2
    20                           	psect	text7,global,reloc=2,class=CODE,delta=1,group=2
    21                           	psect	text8,global,reloc=2,class=CODE,delta=1
    22                           	psect	text9,global,reloc=2,class=CODE,delta=1
    23                           	psect	text10,global,reloc=2,class=CODE,delta=1
    24                           	psect	text11,global,reloc=2,class=CODE,delta=1
    25                           	psect	text12,global,reloc=2,class=CODE,delta=1
    26                           	psect	text13,global,reloc=2,class=CODE,delta=1
    27                           	psect	text14,global,reloc=2,class=CODE,delta=1
    28                           	psect	text15,global,reloc=2,class=CODE,delta=1
    29                           	psect	text16,global,reloc=2,class=CODE,delta=1
    30                           	psect	text17,global,reloc=2,class=CODE,delta=1
    31                           	psect	text18,global,reloc=2,class=CODE,delta=1
    32                           	psect	text19,global,reloc=2,class=CODE,delta=1
    33                           	psect	text20,global,reloc=2,class=CODE,delta=1
    34                           	psect	text21,global,reloc=2,class=CODE,delta=1
    35                           	psect	text22,global,reloc=2,class=CODE,delta=1
    36                           	psect	text23,global,reloc=2,class=CODE,delta=1
    37                           	psect	text24,global,reloc=2,class=CODE,delta=1
    38                           	psect	text25,global,reloc=2,class=CODE,delta=1
    39                           	psect	text26,global,reloc=2,class=CODE,delta=1
    40                           	psect	text27,global,reloc=2,class=CODE,delta=1
    41                           	psect	text28,global,reloc=2,class=CODE,delta=1
    42                           	psect	text29,global,reloc=2,class=CODE,delta=1
    43                           	psect	text30,global,reloc=2,class=CODE,delta=1
    44                           	psect	text31,global,reloc=2,class=CODE,delta=1,group=2
    45                           	psect	text32,global,reloc=2,class=CODE,delta=1,group=2
    46                           	psect	text33,global,reloc=2,class=CODE,delta=1,group=2
    47                           	psect	text34,global,reloc=2,class=CODE,delta=1,group=2
    48                           	psect	text35,global,reloc=2,class=CODE,delta=1
    49                           	psect	intcode,global,reloc=2,class=CODE,delta=1
    50                           	psect	text37,global,reloc=2,class=CODE,delta=1
    51                           	psect	text38,global,reloc=2,class=CODE,delta=1
    52                           	psect	text39,global,reloc=2,class=CODE,delta=1
    53                           	psect	text40,global,reloc=2,class=CODE,delta=1
    54                           	psect	text41,global,reloc=2,class=CODE,delta=1
    55                           	psect	text42,global,reloc=2,class=CODE,delta=1
    56                           	psect	text43,global,reloc=2,class=CODE,delta=1
    57                           	psect	text44,global,reloc=2,class=CODE,delta=1
    58                           	psect	text45,global,reloc=2,class=CODE,delta=1
    59                           	psect	text46,global,reloc=2,class=CODE,delta=1
    60                           	psect	text47,global,reloc=2,class=CODE,delta=1
    61                           	psect	text48,global,reloc=2,class=CODE,delta=1
    62                           	psect	text49,global,reloc=2,class=CODE,delta=1
    63                           	psect	text50,global,reloc=2,class=CODE,delta=1
    64                           	psect	text51,global,reloc=2,class=CODE,delta=1
    65                           	psect	text52,global,reloc=2,class=CODE,delta=1
    66                           	psect	intsave_regs,global,class=BIGRAM,space=1,delta=1,noexec
    67                           	psect	rparam,global,class=COMRAM,space=1,delta=1,noexec
    68                           	psect	temp,global,ovrld,common,class=COMRAM,space=1,delta=1,lowdata
    69                           	psect	config,global,abs,ovrld,class=CONFIG,space=4,delta=1,noexec
    70   000000                     
    71                           ; Generated 12/10/2023 GMT
    72                           ; 
    73                           ; Copyright © 2023, Microchip Technology Inc. and its subsidiaries ("Microchip")
    74                           ; All rights reserved.
    75                           ; 
    76                           ; This software is developed by Microchip Technology Inc. and its subsidiaries ("Microch
      +                          ip").
    77                           ; 
    78                           ; Redistribution and use in source and binary forms, with or without modification, are
    79                           ; permitted provided that the following conditions are met:
    80                           ; 
    81                           ;     1. Redistributions of source code must retain the above copyright notice, this lis
      +                          t of
    82                           ;        conditions and the following disclaimer.
    83                           ; 
    84                           ;     2. Redistributions in binary form must reproduce the above copyright notice, this 
      +                          list
    85                           ;        of conditions and the following disclaimer in the documentation and/or other
    86                           ;        materials provided with the distribution. Publication is not required when
    87                           ;        this file is used in an embedded application.
    88                           ; 
    89                           ;     3. Microchip's name may not be used to endorse or promote products derived from th
      +                          is
    90                           ;        software without specific prior written permission.
    91                           ; 
    92                           ; THIS SOFTWARE IS PROVIDED BY MICROCHIP "AS IS" AND ANY EXPRESS OR IMPLIED WARRANTIES,
    93                           ; INCLUDING, BUT NOT LIMITED TO, THE IMPLIED WARRANTIES OF MERCHANTABILITY AND FITNESS F
      +                          OR
    94                           ; PURPOSE ARE DISCLAIMED.  IN NO EVENT SHALL MICROCHIP BE LIABLE FOR ANY DIRECT, INDIREC
      +                          T,
    95                           ; INCIDENTAL, SPECIAL, EXEMPLARY, OR CONSEQUENTIAL DAMAGES (INCLUDING BUT NOT LIMITED TO
    96                           ; PROCUREMENT OF SUBSTITUTE GOODS OR SERVICES; LOSS OF USE, DATA OR PROFITS; OR BUSINESS
    97                           ; INTERRUPTION) HOWSOEVER CAUSED AND ON ANY THEORY OF LIABILITY, WHETHER IN CONTRACT, ST
      +                          RICT
    98                           ; LIABILITY, OR TORT (INCLUDING NEGLIGENCE OR OTHERWISE) ARISING IN ANY WAY OUT OF THE U
      +                          SE OF
    99                           ; THIS SOFTWARE, EVEN IF ADVISED OF THE POSSIBILITY OF SUCH DAMAGE.
   100                           ; 
   101                           ; 
   102                           ; Code-generator required, PIC18F46K20 Definitions
   103                           ; 
   104                           ; SFR Addresses
   105   000000                     
   106 ;; Function _INT0_DefaultInterruptHandler is unused but had its address taken
   107   000000                     
   108 ;; Function _INT1_DefaultInterruptHandler is unused but had its address taken
   109   000000                     
   110 ;; Function _INT2_DefaultInterruptHandler is unused but had its address taken
   111   000000                     
   112 ;; Function _EUSART_Deinitialize is unused but had its address taken
   113   000000                     
   114 ;; Function _EUSART_TransmitEnable is unused but had its address taken
   115   000000                     
   116 ;; Function _EUSART_TransmitDisable is unused but had its address taken
   117   000000                     
   118 ;; Function _EUSART_AutoBaudSet is unused but had its address taken
   119   000000                     
   120 ;; Function _EUSART_AutoBaudQuery is unused but had its address taken
   121   000000                     
   122 ;; Function _EUSART_IsRxReady is unused but had its address taken
   123   000000                     
   124 ;; Function _EUSART_IsTxReady is unused but had its address taken
   125   000000                     
   126 ;; Function _EUSART_IsTxDone is unused but had its address taken
   127   000000                     
   128 ;; Function _EUSART_ErrorGet is unused but had its address taken
   129   000000                     
   130 ;; Function _EUSART_Read is unused but had its address taken
   131   000000                     
   132 ;; Function _EUSART_DefaultFramingErrorCallback is unused but had its address taken
   133   000000                     
   134 ;; Function _EUSART_DefaultOverrunErrorCallback is unused but had its address taken
   135   000000                     
   136                           	psect	smallconst
   137   001000                     __psmallconst:
   138                           	callstack 0
   139   001000  00                 	db	0
   140   001001                     _UART1:
   141                           	callstack 0
   142   001001  1A                 	db	low _EUSART_Initialize
   143   001002  33                 	db	high _EUSART_Initialize
   144   001003  00                 	db	0
   145   001004  00                 	db	0
   146   001005  00                 	db	0
   147   001006  00                 	db	0
   148   001007  96                 	db	low _EUSART_Write
   149   001008  35                 	db	high _EUSART_Write
   150   001009  00                 	db	0
   151   00100A  00                 	db	0
   152   00100B  00                 	db	0
   153   00100C  00                 	db	0
   154   00100D  00                 	db	0
   155   00100E  00                 	db	0
   156   00100F  00                 	db	0
   157   001010  00                 	db	0
   158   001011  00                 	db	0
   159   001012  00                 	db	0
   160   001013  00                 	db	0
   161   001014  00                 	db	0
   162   001015  00                 	db	0
   163   001016  00                 	db	0
   164   001017  00                 	db	0
   165   001018  00                 	db	0
   166   001019  00                 	db	0
   167   00101A  00                 	db	0
   168   00101B  00                 	db	0
   169   00101C  00                 	db	0
   170   00101D  00                 	db	0
   171   00101E  00                 	db	0
   172   00101F  00                 	db	0
   173   001020  00                 	db	0
   174   001021  00                 	db	0
   175   001022  00                 	db	0
   176   001023  00                 	db	0
   177   001024  00                 	db	0
   178   001025  00                 	db	0
   179   001026  00                 	db	0
   180   001027  00                 	db	0
   181   001028  00                 	db	0
   182   001029  C6                 	db	low _EUSART_FramingErrorCallbackRegister
   183   00102A  34                 	db	high _EUSART_FramingErrorCallbackRegister
   184   00102B  A8                 	db	low _EUSART_OverrunErrorCallbackRegister
   185   00102C  34                 	db	high _EUSART_OverrunErrorCallbackRegister
   186   00102D  00                 	db	0
   187   00102E  00                 	db	0
   188   00102F  00                 	db	0
   189   001030  00                 	db	0
   190   001031                     __end_of_UART1:
   191                           	callstack 0
   192   000000                     _TMR1	set	4046
   193   000000                     _TMR0L	set	4054
   194   000000                     _TMR0H	set	4055
   195   000000                     _TXREG	set	4013
   196   000000                     _RCREG	set	4014
   197   000000                     _SPBRG	set	4015
   198   000000                     _TXSTA	set	4012
   199   000000                     _ADCON0	set	4034
   200   000000                     _ADRESL	set	4035
   201   000000                     _LATDbits	set	3980
   202   000000                     _TRISDbits	set	3989
   203   000000                     _SSPSTATbits	set	4039
   204   000000                     _TRISCbits	set	3988
   205   000000                     _BAUDCONbits	set	4024
   206   000000                     _TXSTAbits	set	4012
   207   000000                     _RCSTAbits	set	4011
   208   000000                     _ADCON0bits	set	4034
   209   000000                     _TMR1IF	set	31984
   210   000000                     _WPUB	set	3964
   211   000000                     _ANSELH	set	3967
   212   000000                     _LATA	set	3977
   213   000000                     _PIR1bits	set	3998
   214   000000                     _ADCON2	set	4032
   215   000000                     _ADCON1	set	4033
   216   000000                     _SSPCON1	set	4038
   217   000000                     _RCONbits	set	4048
   218   000000                     _INTCONbits	set	4082
   219   000000                     _ADRESH	set	4036
   220   000000                     _RCSTA	set	4011
   221   000000                     _BAUDCON	set	4024
   222   000000                     _TRISA	set	3986
   223   000000                     _LATE	set	3981
   224   000000                     _LATD	set	3980
   225   000000                     _LATC	set	3979
   226   000000                     _LATB	set	3978
   227   000000                     _OSCTUNE	set	3995
   228   000000                     _TRISE	set	3990
   229   000000                     _TRISD	set	3989
   230   000000                     _TRISC	set	3988
   231   000000                     _TRISB	set	3987
   232   000000                     _IOCB	set	3965
   233   000000                     _OSCCON	set	4051
   234   000000                     _INTCON3bits	set	4080
   235   000000                     _INTCON2bits	set	4081
   236   000000                     _T0CONbits	set	4053
   237   000000                     _SPBRGH	set	4016
   238   000000                     _SSPBUF	set	4041
   239   000000                     _SSPSTAT	set	4039
   240   000000                     _T1CON	set	4045
   241   001031                     STR_2:
   242   001031  4D                 	db	77	;'M'
   243   001032  6F                 	db	111	;'o'
   244   001033  6E                 	db	110	;'n'
   245   001034  69                 	db	105	;'i'
   246   001035  74                 	db	116	;'t'
   247   001036  6F                 	db	111	;'o'
   248   001037  72                 	db	114	;'r'
   249   001038  20                 	db	32
   250   001039  53                 	db	83	;'S'
   251   00103A  74                 	db	116	;'t'
   252   00103B  61                 	db	97	;'a'
   253   00103C  72                 	db	114	;'r'
   254   00103D  74                 	db	116	;'t'
   255   00103E  00                 	db	0
   256   00103F                     STR_1:
   257   00103F  54                 	db	84	;'T'
   258   001040  65                 	db	101	;'e'
   259   001041  6D                 	db	109	;'m'
   260   001042  70                 	db	112	;'p'
   261   001043  3A                 	db	58	;':'
   262   001044  20                 	db	32
   263   001045  25                 	db	37
   264   001046  75                 	db	117	;'u'
   265   001047  0D                 	db	13
   266   001048  0A                 	db	10
   267   001049  00                 	db	0
   268   00104A                     STR_6:
   269   00104A  42                 	db	66	;'B'
   270   00104B  50                 	db	80	;'P'
   271   00104C  4D                 	db	77	;'M'
   272   00104D  20                 	db	32
   273   00104E  3A                 	db	58	;':'
   274   00104F  20                 	db	32
   275   001050  00                 	db	0
   276   001051                     STR_5:
   277   001051  54                 	db	84	;'T'
   278   001052  20                 	db	32
   279   001053  3A                 	db	58	;':'
   280   001054  20                 	db	32
   281   001055  00                 	db	0
   282   001056                     STR_3:
   283   001056  25                 	db	37
   284   001057  75                 	db	117	;'u'
   285   001058  00                 	db	0
   286   001059  00                 	db	0	; dummy byte at the end
   287   000000                     
   288                           ; #config settings
   289                           
   290                           	psect	cinit
   291   003460                     __pcinit:
   292                           	callstack 0
   293   003460                     start_initialization:
   294                           	callstack 0
   295   003460                     __initialization:
   296                           	callstack 0
   297                           
   298                           ; Clear objects allocated to BANK1 (32 bytes)
   299   003460  EE01  F000         	lfsr	0,__pbssBANK1
   300   003464  0E20               	movlw	32
   301   003466                     clear_0:
   302   003466  6AEE               	clrf	postinc0,c
   303   003468  06E8               	decf	wreg,f,c
   304   00346A  E1FD               	bnz	clear_0
   305                           
   306                           ; Clear objects allocated to BANK0 (30 bytes)
   307   00346C  EE00  F0C4         	lfsr	0,__pbssBANK0
   308   003470  0E1E               	movlw	30
   309   003472                     clear_1:
   310   003472  6AEE               	clrf	postinc0,c
   311   003474  06E8               	decf	wreg,f,c
   312   003476  E1FD               	bnz	clear_1
   313                           
   314                           ; Clear objects allocated to COMRAM (3 bytes)
   315   003478  6A5D               	clrf	(__pbssCOMRAM+2)& (0+255),c
   316   00347A  6A5C               	clrf	(__pbssCOMRAM+1)& (0+255),c
   317   00347C  6A5B               	clrf	__pbssCOMRAM& (0+255),c
   318   00347E                     end_of_initialization:
   319                           	callstack 0
   320   00347E                     __end_of__initialization:
   321                           	callstack 0
   322   00347E  905E               	bcf	int$flags,0,c	;clear compiler interrupt flag (level 1)
   323   003480  925E               	bcf	int$flags,1,c	;clear compiler interrupt flag (level 2)
   324   003482  0100               	movlb	0
   325   003484  EFF3  F00F         	goto	_main	;jump to C main() function
   326                           
   327                           	psect	bssCOMRAM
   328   00005B                     __pbssCOMRAM:
   329                           	callstack 0
   330   00005B                     _overflow_count:
   331                           	callstack 0
   332   00005B                     	ds	2
   333   00005D                     _flags:
   334                           	callstack 0
   335   00005D                     	ds	1
   336                           
   337                           	psect	bssBANK0
   338   0000C4                     __pbssBANK0:
   339                           	callstack 0
   340   0000C4                     _width:
   341                           	callstack 0
   342   0000C4                     	ds	2
   343   0000C6                     _prec:
   344                           	callstack 0
   345   0000C6                     	ds	2
   346   0000C8                     _bpm@heart$F1514:
   347                           	callstack 0
   348   0000C8                     	ds	2
   349   0000CA                     _currentTime@heart$F1513:
   350                           	callstack 0
   351   0000CA                     	ds	2
   352   0000CC                     _lastTime@heart$F1512:
   353                           	callstack 0
   354   0000CC                     	ds	2
   355   0000CE                     _Timer0_Callback:
   356                           	callstack 0
   357   0000CE                     	ds	2
   358   0000D0                     _bpm:
   359                           	callstack 0
   360   0000D0                     	ds	2
   361   0000D2                     _currentTime:
   362                           	callstack 0
   363   0000D2                     	ds	2
   364   0000D4                     _lastTime:
   365                           	callstack 0
   366   0000D4                     	ds	2
   367   0000D6                     _EUSART_OverrunErrorHandler:
   368                           	callstack 0
   369   0000D6                     	ds	2
   370   0000D8                     _EUSART_FramingErrorHandler:
   371                           	callstack 0
   372   0000D8                     	ds	2
   373   0000DA                     _eusartRxLastError:
   374                           	callstack 0
   375   0000DA                     	ds	2
   376   0000DC                     _INT2_InterruptHandler:
   377                           	callstack 0
   378   0000DC                     	ds	2
   379   0000DE                     _INT1_InterruptHandler:
   380                           	callstack 0
   381   0000DE                     	ds	2
   382   0000E0                     _INT0_InterruptHandler:
   383                           	callstack 0
   384   0000E0                     	ds	2
   385                           
   386                           	psect	bssBANK1
   387   000100                     __pbssBANK1:
   388                           	callstack 0
   389   000100                     _dbuf:
   390                           	callstack 0
   391   000100                     	ds	32
   392                           
   393                           	psect	cstackBANK1
   394   000120                     __pcstackBANK1:
   395                           	callstack 0
   396   000120                     main@str:
   397                           	callstack 0
   398                           
   399                           ; 6 bytes @ 0x0
   400   000120                     	ds	6
   401   000126                     main@bpmstr:
   402                           	callstack 0
   403                           
   404                           ; 6 bytes @ 0x6
   405   000126                     	ds	6
   406   00012C                     main@adcValue:
   407                           	callstack 0
   408                           
   409                           ; 2 bytes @ 0xC
   410   00012C                     	ds	2
   411   00012E                     main@res:
   412                           	callstack 0
   413                           
   414                           ; 2 bytes @ 0xE
   415   00012E                     	ds	2
   416   000130                     main@temp:
   417                           	callstack 0
   418                           
   419                           ; 2 bytes @ 0x10
   420   000130                     	ds	2
   421   000132                     main@bpm:
   422                           	callstack 0
   423                           
   424                           ; 2 bytes @ 0x12
   425   000132                     	ds	2
   426                           
   427                           	psect	cstackBANK0
   428   000060                     __pcstackBANK0:
   429                           	callstack 0
   430   000060                     ??_ISR:
   431                           
   432                           ; 1 bytes @ 0x0
   433   000060                     	ds	12
   434   00006C                     ?_ADC_GetConversion:
   435                           	callstack 0
   436   00006C                     ?___lwdiv:
   437                           	callstack 0
   438   00006C                     ?___lwmod:
   439                           	callstack 0
   440   00006C                     ?___xxtofl:
   441                           	callstack 0
   442   00006C                     SPI_Write@data:
   443                           	callstack 0
   444   00006C                     INT0_SetInterruptHandler@InterruptHandler:
   445                           	callstack 0
   446   00006C                     INT1_SetInterruptHandler@InterruptHandler:
   447                           	callstack 0
   448   00006C                     INT2_SetInterruptHandler@InterruptHandler:
   449                           	callstack 0
   450   00006C                     EUSART_FramingErrorCallbackRegister@callbackHandler:
   451                           	callstack 0
   452   00006C                     EUSART_OverrunErrorCallbackRegister@callbackHandler:
   453                           	callstack 0
   454   00006C                     Timer0_SetCallback@callback:
   455                           	callstack 0
   456   00006C                     ___lwdiv@dividend:
   457                           	callstack 0
   458   00006C                     ___lwmod@dividend:
   459                           	callstack 0
   460   00006C                     fputc@c:
   461                           	callstack 0
   462   00006C                     ___xxtofl@val:
   463                           	callstack 0
   464                           
   465                           ; 4 bytes @ 0xC
   466   00006C                     	ds	1
   467   00006D                     MCP23S09_Write@data:
   468                           	callstack 0
   469                           
   470                           ; 1 bytes @ 0xD
   471   00006D                     	ds	1
   472   00006E                     ??_ADC_GetConversion:
   473   00006E                     MCP23S09_Write@reg:
   474                           	callstack 0
   475   00006E                     fputc@fp:
   476                           	callstack 0
   477   00006E                     ___lwdiv@divisor:
   478                           	callstack 0
   479   00006E                     ___lwmod@divisor:
   480                           	callstack 0
   481                           
   482                           ; 2 bytes @ 0xE
   483   00006E                     	ds	1
   484   00006F                     ??_LCD_Command:
   485   00006F                     ??_fputc:
   486   00006F                     ??_LCD_WriteChar:
   487                           
   488                           ; 1 bytes @ 0xF
   489   00006F                     	ds	1
   490   000070                     ??___xxtofl:
   491   000070                     ADC_GetConversion@channel:
   492                           	callstack 0
   493   000070                     LCD_Command@cmd:
   494                           	callstack 0
   495   000070                     LCD_WriteChar@data:
   496                           	callstack 0
   497   000070                     ___lwdiv@counter:
   498                           	callstack 0
   499   000070                     ___lwmod@counter:
   500                           	callstack 0
   501                           
   502                           ; 1 bytes @ 0x10
   503   000070                     	ds	1
   504   000071                     ??_LCD_Init:
   505   000071                     LCD_WriteString@str:
   506                           	callstack 0
   507   000071                     ___lwdiv@quotient:
   508                           	callstack 0
   509                           
   510                           ; 2 bytes @ 0x11
   511   000071                     	ds	2
   512   000073                     
   513                           ; 1 bytes @ 0x13
   514   000073                     	ds	1
   515   000074                     ___xxtofl@sign:
   516                           	callstack 0
   517   000074                     vfpfcnvrt@fp:
   518                           	callstack 0
   519                           
   520                           ; 1 bytes @ 0x14
   521   000074                     	ds	1
   522   000075                     ___xxtofl@exp:
   523                           	callstack 0
   524   000075                     vfpfcnvrt@fmt:
   525                           	callstack 0
   526                           
   527                           ; 1 bytes @ 0x15
   528   000075                     	ds	1
   529   000076                     vfpfcnvrt@ap:
   530                           	callstack 0
   531   000076                     ___xxtofl@arg:
   532                           	callstack 0
   533                           
   534                           ; 4 bytes @ 0x16
   535   000076                     	ds	1
   536   000077                     ??_vfpfcnvrt:
   537                           
   538                           ; 1 bytes @ 0x17
   539   000077                     	ds	1
   540   000078                     vfpfcnvrt@convarg:
   541                           	callstack 0
   542                           
   543                           ; 4 bytes @ 0x18
   544   000078                     	ds	2
   545   00007A                     ?___fldiv:
   546                           	callstack 0
   547   00007A                     ___fldiv@b:
   548                           	callstack 0
   549                           
   550                           ; 4 bytes @ 0x1A
   551   00007A                     	ds	2
   552   00007C                     vfpfcnvrt@cp:
   553                           	callstack 0
   554                           
   555                           ; 1 bytes @ 0x1C
   556   00007C                     	ds	1
   557   00007D                     vfpfcnvrt@c:
   558                           	callstack 0
   559                           
   560                           ; 1 bytes @ 0x1D
   561   00007D                     	ds	1
   562   00007E                     ?_vfprintf:
   563                           	callstack 0
   564   00007E                     vfprintf@fp:
   565                           	callstack 0
   566   00007E                     ___fldiv@a:
   567                           	callstack 0
   568                           
   569                           ; 4 bytes @ 0x1E
   570   00007E                     	ds	1
   571   00007F                     vfprintf@fmt:
   572                           	callstack 0
   573                           
   574                           ; 1 bytes @ 0x1F
   575   00007F                     	ds	1
   576   000080                     vfprintf@ap:
   577                           	callstack 0
   578                           
   579                           ; 1 bytes @ 0x20
   580   000080                     	ds	1
   581   000081                     vfprintf@cfmt:
   582                           	callstack 0
   583                           
   584                           ; 1 bytes @ 0x21
   585   000081                     	ds	1
   586   000082                     ??___fldiv:
   587   000082                     ?_sprintf:
   588                           	callstack 0
   589   000082                     sprintf@s:
   590                           	callstack 0
   591                           
   592                           ; 2 bytes @ 0x22
   593   000082                     	ds	2
   594   000084                     sprintf@fmt:
   595                           	callstack 0
   596                           
   597                           ; 1 bytes @ 0x24
   598   000084                     	ds	2
   599   000086                     ___fldiv@rem:
   600                           	callstack 0
   601                           
   602                           ; 4 bytes @ 0x26
   603   000086                     	ds	1
   604   000087                     sprintf@ap:
   605                           	callstack 0
   606                           
   607                           ; 1 bytes @ 0x27
   608   000087                     	ds	1
   609   000088                     sprintf@f:
   610                           	callstack 0
   611                           
   612                           ; 12 bytes @ 0x28
   613   000088                     	ds	2
   614   00008A                     ___fldiv@sign:
   615                           	callstack 0
   616                           
   617                           ; 1 bytes @ 0x2A
   618   00008A                     	ds	1
   619   00008B                     ___fldiv@new_exp:
   620                           	callstack 0
   621                           
   622                           ; 2 bytes @ 0x2B
   623   00008B                     	ds	2
   624   00008D                     ___fldiv@grs:
   625                           	callstack 0
   626                           
   627                           ; 4 bytes @ 0x2D
   628   00008D                     	ds	4
   629   000091                     ___fldiv@bexp:
   630                           	callstack 0
   631                           
   632                           ; 1 bytes @ 0x31
   633   000091                     	ds	1
   634   000092                     ___fldiv@aexp:
   635                           	callstack 0
   636                           
   637                           ; 1 bytes @ 0x32
   638   000092                     	ds	1
   639   000093                     ?___flmul:
   640                           	callstack 0
   641   000093                     ___flmul@b:
   642                           	callstack 0
   643                           
   644                           ; 4 bytes @ 0x33
   645   000093                     	ds	4
   646   000097                     ___flmul@a:
   647                           	callstack 0
   648                           
   649                           ; 4 bytes @ 0x37
   650   000097                     	ds	4
   651   00009B                     ??___flmul:
   652                           
   653                           ; 1 bytes @ 0x3B
   654   00009B                     	ds	4
   655   00009F                     ___flmul@sign:
   656                           	callstack 0
   657                           
   658                           ; 1 bytes @ 0x3F
   659   00009F                     	ds	1
   660   0000A0                     ___flmul@aexp:
   661                           	callstack 0
   662                           
   663                           ; 1 bytes @ 0x40
   664   0000A0                     	ds	1
   665   0000A1                     ___flmul@grs:
   666                           	callstack 0
   667                           
   668                           ; 4 bytes @ 0x41
   669   0000A1                     	ds	4
   670   0000A5                     ___flmul@bexp:
   671                           	callstack 0
   672                           
   673                           ; 1 bytes @ 0x45
   674   0000A5                     	ds	1
   675   0000A6                     ___flmul@prod:
   676                           	callstack 0
   677                           
   678                           ; 4 bytes @ 0x46
   679   0000A6                     	ds	4
   680   0000AA                     ___flmul@temp:
   681                           	callstack 0
   682                           
   683                           ; 2 bytes @ 0x4A
   684   0000AA                     	ds	2
   685   0000AC                     ?___fltol:
   686                           	callstack 0
   687   0000AC                     ___fltol@f1:
   688                           	callstack 0
   689                           
   690                           ; 4 bytes @ 0x4C
   691   0000AC                     	ds	4
   692   0000B0                     ??___fltol:
   693                           
   694                           ; 1 bytes @ 0x50
   695   0000B0                     	ds	4
   696   0000B4                     ___fltol@sign1:
   697                           	callstack 0
   698                           
   699                           ; 1 bytes @ 0x54
   700   0000B4                     	ds	1
   701   0000B5                     ___fltol@exp1:
   702                           	callstack 0
   703                           
   704                           ; 1 bytes @ 0x55
   705   0000B5                     	ds	1
   706   0000B6                     ?_Calculate_bpm:
   707                           	callstack 0
   708                           
   709                           ; 2 bytes @ 0x56
   710   0000B6                     	ds	2
   711   0000B8                     ??_Calculate_bpm:
   712                           
   713                           ; 1 bytes @ 0x58
   714   0000B8                     	ds	3
   715   0000BB                     Calculate_bpm@adcValue:
   716                           	callstack 0
   717                           
   718                           ; 2 bytes @ 0x5B
   719   0000BB                     	ds	2
   720   0000BD                     Calculate_bpm@res1:
   721                           	callstack 0
   722                           
   723                           ; 2 bytes @ 0x5D
   724   0000BD                     	ds	2
   725   0000BF                     Calculate_bpm@timeDifference:
   726                           	callstack 0
   727                           
   728                           ; 2 bytes @ 0x5F
   729   0000BF                     	ds	2
   730   0000C1                     ??_main:
   731                           
   732                           ; 1 bytes @ 0x61
   733   0000C1                     	ds	3
   734                           
   735                           	psect	cstackCOMRAM
   736   000001                     __pcstackCOMRAM:
   737                           	callstack 0
   738   000001                     ?i2_ADC_GetConversion:
   739                           	callstack 0
   740   000001                     ?i2___lwdiv:
   741                           	callstack 0
   742   000001                     ?i2___lwmod:
   743                           	callstack 0
   744   000001                     ?i2___xxtofl:
   745                           	callstack 0
   746   000001                     EUSART_Write@txData:
   747                           	callstack 0
   748   000001                     i2___lwdiv@dividend:
   749                           	callstack 0
   750   000001                     i2___lwmod@dividend:
   751                           	callstack 0
   752   000001                     i2fputc@c:
   753                           	callstack 0
   754   000001                     i2___xxtofl@val:
   755                           	callstack 0
   756                           
   757                           ; 4 bytes @ 0x0
   758   000001                     	ds	1
   759   000002                     EUSART_WriteString@str:
   760                           	callstack 0
   761                           
   762                           ; 1 bytes @ 0x1
   763   000002                     	ds	1
   764   000003                     ??i2_ADC_GetConversion:
   765   000003                     i2fputc@fp:
   766                           	callstack 0
   767   000003                     i2___lwdiv@divisor:
   768                           	callstack 0
   769   000003                     i2___lwmod@divisor:
   770                           	callstack 0
   771                           
   772                           ; 2 bytes @ 0x2
   773   000003                     	ds	1
   774   000004                     ??i2_fputc:
   775                           
   776                           ; 1 bytes @ 0x3
   777   000004                     	ds	1
   778   000005                     ??i2___xxtofl:
   779   000005                     i2ADC_GetConversion@channel:
   780                           	callstack 0
   781   000005                     i2___lwdiv@counter:
   782                           	callstack 0
   783   000005                     i2___lwmod@counter:
   784                           	callstack 0
   785                           
   786                           ; 1 bytes @ 0x4
   787   000005                     	ds	1
   788   000006                     i2___lwdiv@quotient:
   789                           	callstack 0
   790                           
   791                           ; 2 bytes @ 0x5
   792   000006                     	ds	3
   793   000009                     i2___xxtofl@sign:
   794                           	callstack 0
   795   000009                     i2vfpfcnvrt@fp:
   796                           	callstack 0
   797                           
   798                           ; 1 bytes @ 0x8
   799   000009                     	ds	1
   800   00000A                     i2___xxtofl@exp:
   801                           	callstack 0
   802   00000A                     i2vfpfcnvrt@fmt:
   803                           	callstack 0
   804                           
   805                           ; 1 bytes @ 0x9
   806   00000A                     	ds	1
   807   00000B                     i2vfpfcnvrt@ap:
   808                           	callstack 0
   809   00000B                     i2___xxtofl@arg:
   810                           	callstack 0
   811                           
   812                           ; 4 bytes @ 0xA
   813   00000B                     	ds	1
   814   00000C                     ??i2_vfpfcnvrt:
   815                           
   816                           ; 1 bytes @ 0xB
   817   00000C                     	ds	1
   818   00000D                     i2vfpfcnvrt@convarg:
   819                           	callstack 0
   820                           
   821                           ; 4 bytes @ 0xC
   822   00000D                     	ds	2
   823   00000F                     ?i2___fldiv:
   824                           	callstack 0
   825   00000F                     i2___fldiv@b:
   826                           	callstack 0
   827                           
   828                           ; 4 bytes @ 0xE
   829   00000F                     	ds	2
   830   000011                     i2vfpfcnvrt@cp:
   831                           	callstack 0
   832                           
   833                           ; 1 bytes @ 0x10
   834   000011                     	ds	1
   835   000012                     i2vfpfcnvrt@c:
   836                           	callstack 0
   837                           
   838                           ; 1 bytes @ 0x11
   839   000012                     	ds	1
   840   000013                     ?i2_vfprintf:
   841                           	callstack 0
   842   000013                     i2vfprintf@fp:
   843                           	callstack 0
   844   000013                     i2___fldiv@a:
   845                           	callstack 0
   846                           
   847                           ; 4 bytes @ 0x12
   848   000013                     	ds	1
   849   000014                     i2vfprintf@fmt:
   850                           	callstack 0
   851                           
   852                           ; 1 bytes @ 0x13
   853   000014                     	ds	1
   854   000015                     i2vfprintf@ap:
   855                           	callstack 0
   856                           
   857                           ; 1 bytes @ 0x14
   858   000015                     	ds	1
   859   000016                     i2vfprintf@cfmt:
   860                           	callstack 0
   861                           
   862                           ; 1 bytes @ 0x15
   863   000016                     	ds	1
   864   000017                     ??i2___fldiv:
   865   000017                     ?i2_sprintf:
   866                           	callstack 0
   867   000017                     i2sprintf@s:
   868                           	callstack 0
   869                           
   870                           ; 2 bytes @ 0x16
   871   000017                     	ds	2
   872   000019                     i2sprintf@fmt:
   873                           	callstack 0
   874                           
   875                           ; 1 bytes @ 0x18
   876   000019                     	ds	2
   877   00001B                     i2___fldiv@rem:
   878                           	callstack 0
   879                           
   880                           ; 4 bytes @ 0x1A
   881   00001B                     	ds	1
   882   00001C                     i2sprintf@ap:
   883                           	callstack 0
   884                           
   885                           ; 1 bytes @ 0x1B
   886   00001C                     	ds	1
   887   00001D                     i2sprintf@f:
   888                           	callstack 0
   889                           
   890                           ; 12 bytes @ 0x1C
   891   00001D                     	ds	2
   892   00001F                     i2___fldiv@sign:
   893                           	callstack 0
   894                           
   895                           ; 1 bytes @ 0x1E
   896   00001F                     	ds	1
   897   000020                     i2___fldiv@new_exp:
   898                           	callstack 0
   899                           
   900                           ; 2 bytes @ 0x1F
   901   000020                     	ds	2
   902   000022                     i2___fldiv@grs:
   903                           	callstack 0
   904                           
   905                           ; 4 bytes @ 0x21
   906   000022                     	ds	4
   907   000026                     i2___fldiv@bexp:
   908                           	callstack 0
   909                           
   910                           ; 1 bytes @ 0x25
   911   000026                     	ds	1
   912   000027                     i2___fldiv@aexp:
   913                           	callstack 0
   914                           
   915                           ; 1 bytes @ 0x26
   916   000027                     	ds	1
   917   000028                     ?i2___flmul:
   918                           	callstack 0
   919   000028                     i2___flmul@b:
   920                           	callstack 0
   921                           
   922                           ; 4 bytes @ 0x27
   923   000028                     	ds	4
   924   00002C                     i2___flmul@a:
   925                           	callstack 0
   926                           
   927                           ; 4 bytes @ 0x2B
   928   00002C                     	ds	4
   929   000030                     ??i2___flmul:
   930                           
   931                           ; 1 bytes @ 0x2F
   932   000030                     	ds	4
   933   000034                     i2___flmul@sign:
   934                           	callstack 0
   935                           
   936                           ; 1 bytes @ 0x33
   937   000034                     	ds	1
   938   000035                     i2___flmul@grs:
   939                           	callstack 0
   940                           
   941                           ; 4 bytes @ 0x34
   942   000035                     	ds	4
   943   000039                     i2___flmul@aexp:
   944                           	callstack 0
   945                           
   946                           ; 1 bytes @ 0x38
   947   000039                     	ds	1
   948   00003A                     i2___flmul@bexp:
   949                           	callstack 0
   950                           
   951                           ; 1 bytes @ 0x39
   952   00003A                     	ds	1
   953   00003B                     i2___flmul@prod:
   954                           	callstack 0
   955                           
   956                           ; 4 bytes @ 0x3A
   957   00003B                     	ds	4
   958   00003F                     i2___flmul@temp:
   959                           	callstack 0
   960                           
   961                           ; 2 bytes @ 0x3E
   962   00003F                     	ds	2
   963   000041                     ?i2___fltol:
   964                           	callstack 0
   965   000041                     i2___fltol@f1:
   966                           	callstack 0
   967                           
   968                           ; 4 bytes @ 0x40
   969   000041                     	ds	4
   970   000045                     ??i2___fltol:
   971                           
   972                           ; 1 bytes @ 0x44
   973   000045                     	ds	4
   974   000049                     i2___fltol@sign1:
   975                           	callstack 0
   976                           
   977                           ; 1 bytes @ 0x48
   978   000049                     	ds	1
   979   00004A                     i2___fltol@exp1:
   980                           	callstack 0
   981                           
   982                           ; 1 bytes @ 0x49
   983   00004A                     	ds	1
   984   00004B                     ??_Timer0_UserCallback:
   985                           
   986                           ; 1 bytes @ 0x4A
   987   00004B                     	ds	3
   988   00004E                     Timer0_UserCallback@str:
   989                           	callstack 0
   990                           
   991                           ; 6 bytes @ 0x4D
   992   00004E                     	ds	6
   993   000054                     Timer0_UserCallback@adcValue:
   994                           	callstack 0
   995                           
   996                           ; 2 bytes @ 0x53
   997   000054                     	ds	2
   998   000056                     Timer0_UserCallback@res:
   999                           	callstack 0
  1000                           
  1001                           ; 2 bytes @ 0x55
  1002   000056                     	ds	2
  1003   000058                     Timer0_UserCallback@temp:
  1004                           	callstack 0
  1005                           
  1006                           ; 2 bytes @ 0x57
  1007   000058                     	ds	2
  1008   00005A                     Timer0_UserCallback@temp_uint8:
  1009                           	callstack 0
  1010                           
  1011                           ; 1 bytes @ 0x59
  1012   00005A                     	ds	1
  1013   00005B                     
  1014                           ; 1 bytes @ 0x5A
  1015 ;;
  1016 ;;Main: autosize = 0, tempsize = 3, incstack = 0, save=0
  1017 ;;
  1018 ;; *************** function _main *****************
  1019 ;; Defined at:
  1020 ;;		line 78 in file "main.c"
  1021 ;; Parameters:    Size  Location     Type
  1022 ;;		None
  1023 ;; Auto vars:     Size  Location     Type
  1024 ;;  bpm             2   18[BANK1 ] int 
  1025 ;;  temp            2   16[BANK1 ] int 
  1026 ;;  res             2   14[BANK1 ] unsigned short 
  1027 ;;  adcValue        2   12[BANK1 ] unsigned short 
  1028 ;;  bpmstr          6    6[BANK1 ] unsigned char [6]
  1029 ;;  str             6    0[BANK1 ] unsigned char [6]
  1030 ;; Return value:  Size  Location     Type
  1031 ;;                  2  370[None  ] int 
  1032 ;; Registers used:
  1033 ;;		wreg, fsr0l, fsr0h, fsr1l, fsr1h, fsr2l, fsr2h, status,2, status,0, tblptrl, tblptrh, tblptru, prodl, prodh, cstack
  1034 ;; Tracked objects:
  1035 ;;		On entry : 0/0
  1036 ;;		On exit  : 0/0
  1037 ;;		Unchanged: 0/0
  1038 ;; Data sizes:     COMRAM   BANK0   BANK1   BANK2   BANK3   BANK4   BANK5   BANK6   BANK7   BANK8   BANK9  BANK10  BANK1
      +1  BANK12  BANK13  BANK14  BANK15
  1039 ;;      Params:         0       0       0       0       0       0       0       0       0       0       0       0       
      +0       0       0       0       0
  1040 ;;      Locals:         0       0      20       0       0       0       0       0       0       0       0       0       
      +0       0       0       0       0
  1041 ;;      Temps:          0       3       0       0       0       0       0       0       0       0       0       0       
      +0       0       0       0       0
  1042 ;;      Totals:         0       3      20       0       0       0       0       0       0       0       0       0       
      +0       0       0       0       0
  1043 ;;Total ram usage:       23 bytes
  1044 ;; Hardware stack levels required when called: 13
  1045 ;; This function calls:
  1046 ;;		_ADC_GetConversion
  1047 ;;		_Calculate_bpm
  1048 ;;		_Heart_Init
  1049 ;;		_LCD_Command
  1050 ;;		_LCD_Init
  1051 ;;		_LCD_WriteString
  1052 ;;		_SYSTEM_Initialize
  1053 ;;		_Timer0_Initialize
  1054 ;;		_Timer0_SetCallback
  1055 ;;		___fldiv
  1056 ;;		___flmul
  1057 ;;		___fltol
  1058 ;;		___xxtofl
  1059 ;;		_sprintf
  1060 ;; This function is called by:
  1061 ;;		Startup code after reset
  1062 ;; This function uses a non-reentrant model
  1063 ;;
  1064                           
  1065                           	psect	text0
  1066   001FE6                     __ptext0:
  1067                           	callstack 0
  1068   001FE6                     _main:
  1069                           	callstack 18
  1070   001FE6                     
  1071                           ;main.c: 80:     SYSTEM_Initialize();
  1072   001FE6  EC98  F01A         	call	_SYSTEM_Initialize	;wreg free
  1073   001FEA                     
  1074                           ;main.c: 93:     (INTCONbits.GIE = 1);
  1075   001FEA  8EF2               	bsf	242,7,c	;volatile
  1076   001FEC                     
  1077                           ;main.c: 99:     (INTCONbits.PEIE = 1);
  1078   001FEC  8CF2               	bsf	242,6,c	;volatile
  1079                           
  1080                           ;main.c: 104:    LCD_Init();
  1081   001FEE  ECE9  F016         	call	_LCD_Init	;wreg free
  1082   001FF2                     
  1083                           ;main.c: 106: LCD_WriteString("Monitor Start");
  1084   001FF2  0E31               	movlw	low STR_2
  1085   001FF4  0100               	movlb	0	; () banked
  1086   001FF6  6F71               	movwf	LCD_WriteString@str& (0+255),b
  1087   001FF8  5171               	movf	LCD_WriteString@str& (0+255),w,b
  1088   001FFA  A4D8               	btfss	status,2,c
  1089   001FFC  0E10               	movlw	high __smallconst
  1090   001FFE  6F72               	movwf	(LCD_WriteString@str+1)& (0+255),b
  1091   002000  EC5D  F018         	call	_LCD_WriteString	;wreg free
  1092   002004                     
  1093                           ;main.c: 107: _delay((unsigned long)((400)*(16000000/4000.0)));
  1094   002004  0E09               	movlw	9
  1095   002006  0100               	movlb	0	; () banked
  1096   002008  6FC2               	movwf	(??_main+1)& (0+255),b
  1097   00200A  0E1E               	movlw	30
  1098   00200C  6FC1               	movwf	??_main& (0+255),b
  1099   00200E  0EE4               	movlw	228
  1100   002010                     u4737:
  1101   002010  2EE8               	decfsz	wreg,f,c
  1102   002012  D7FE               	bra	u4737
  1103   002014  2FC1               	decfsz	??_main& (0+255),f,b
  1104   002016  D7FC               	bra	u4737
  1105   002018  2FC2               	decfsz	(??_main+1)& (0+255),f,b
  1106   00201A  D7FA               	bra	u4737
  1107   00201C  0000               	nop	
  1108   00201E                     
  1109                           ;main.c: 108:    LCD_Command(0x01);
  1110   00201E  0E01               	movlw	1
  1111   002020  EC3D  F017         	call	_LCD_Command
  1112   002024                     
  1113                           ;main.c: 110:  char str[6];;main.c: 111:  char bpmstr[6];;main.c: 113:  Heart_Init();
  1114   002024  ECA3  F01A         	call	_Heart_Init	;wreg free
  1115   002028                     
  1116                           ;main.c: 114:  Timer0_Initialize();
  1117   002028  EC72  F01A         	call	_Timer0_Initialize	;wreg free
  1118   00202C                     
  1119                           ;main.c: 115:  Timer0_SetCallback(Timer0_UserCallback);
  1120   00202C  0E5E               	movlw	low _Timer0_UserCallback
  1121   00202E  0100               	movlb	0	; () banked
  1122   002030  6F6C               	movwf	Timer0_SetCallback@callback& (0+255),b
  1123   002032  0E2B               	movlw	high _Timer0_UserCallback
  1124   002034  6F6D               	movwf	(Timer0_SetCallback@callback+1)& (0+255),b
  1125   002036  ECB2  F01A         	call	_Timer0_SetCallback	;wreg free
  1126   00203A                     l4717:
  1127                           
  1128                           ;main.c: 117:     {;main.c: 119:        adc_result_t adcValue = ADC_GetConversion(0);
  1129   00203A  0E00               	movlw	0
  1130   00203C  ECC1  F018         	call	_ADC_GetConversion
  1131   002040  C06C  F12C         	movff	?_ADC_GetConversion,main@adcValue
  1132   002044  C06D  F12D         	movff	?_ADC_GetConversion+1,main@adcValue+1
  1133   002048                     
  1134                           ;main.c: 120:        uint16_t res =adcValue>>6;
  1135   002048  C12C  F0C1         	movff	main@adcValue,??_main
  1136   00204C  C12D  F0C2         	movff	main@adcValue+1,??_main+1
  1137   002050  0E06               	movlw	6
  1138   002052  0100               	movlb	0	; () banked
  1139   002054  6FC3               	movwf	(??_main+2)& (0+255),b
  1140   002056                     u4725:
  1141   002056  90D8               	bcf	status,0,c
  1142   002058  33C2               	rrcf	(??_main+1)& (0+255),f,b
  1143   00205A  33C1               	rrcf	??_main& (0+255),f,b
  1144   00205C  2FC3               	decfsz	(??_main+2)& (0+255),f,b
  1145   00205E  EF2B  F010         	goto	u4725
  1146   002062  C0C1  F12E         	movff	??_main,main@res
  1147   002066  C0C2  F12F         	movff	??_main+1,main@res+1
  1148   00206A                     
  1149                           ; BSR set to: 0
  1150                           ;main.c: 121:        int temp = (int)((float)res / 1023.0 * 500);
  1151   00206A  0E00               	movlw	0
  1152   00206C  6F97               	movwf	___flmul@a& (0+255),b
  1153   00206E  0E00               	movlw	0
  1154   002070  6F98               	movwf	(___flmul@a+1)& (0+255),b
  1155   002072  0EFA               	movlw	250
  1156   002074  6F99               	movwf	(___flmul@a+2)& (0+255),b
  1157   002076  0E43               	movlw	67
  1158   002078  6F9A               	movwf	(___flmul@a+3)& (0+255),b
  1159   00207A  0E00               	movlw	0
  1160   00207C  6F7E               	movwf	___fldiv@a& (0+255),b
  1161   00207E  0EC0               	movlw	192
  1162   002080  6F7F               	movwf	(___fldiv@a+1)& (0+255),b
  1163   002082  0E7F               	movlw	127
  1164   002084  6F80               	movwf	(___fldiv@a+2)& (0+255),b
  1165   002086  0E44               	movlw	68
  1166   002088  6F81               	movwf	(___fldiv@a+3)& (0+255),b
  1167   00208A  C12E  F06C         	movff	main@res,___xxtofl@val
  1168   00208E  C12F  F06D         	movff	main@res+1,___xxtofl@val+1
  1169   002092  6B6E               	clrf	(___xxtofl@val+2)& (0+255),b
  1170   002094  6B6F               	clrf	(___xxtofl@val+3)& (0+255),b
  1171   002096  0E00               	movlw	0
  1172   002098  ECE0  F010         	call	___xxtofl
  1173   00209C  C06C  F07A         	movff	?___xxtofl,___fldiv@b
  1174   0020A0  C06D  F07B         	movff	?___xxtofl+1,___fldiv@b+1
  1175   0020A4  C06E  F07C         	movff	?___xxtofl+2,___fldiv@b+2
  1176   0020A8  C06F  F07D         	movff	?___xxtofl+3,___fldiv@b+3
  1177   0020AC  EC58  F00C         	call	___fldiv	;wreg free
  1178   0020B0  C07A  F093         	movff	?___fldiv,___flmul@b
  1179   0020B4  C07B  F094         	movff	?___fldiv+1,___flmul@b+1
  1180   0020B8  C07C  F095         	movff	?___fldiv+2,___flmul@b+2
  1181   0020BC  C07D  F096         	movff	?___fldiv+3,___flmul@b+3
  1182   0020C0  EC2D  F008         	call	___flmul	;wreg free
  1183   0020C4  C093  F0AC         	movff	?___flmul,___fltol@f1
  1184   0020C8  C094  F0AD         	movff	?___flmul+1,___fltol@f1+1
  1185   0020CC  C095  F0AE         	movff	?___flmul+2,___fltol@f1+2
  1186   0020D0  C096  F0AF         	movff	?___flmul+3,___fltol@f1+3
  1187   0020D4  ECA8  F014         	call	___fltol	;wreg free
  1188   0020D8  C0AC  F130         	movff	?___fltol,main@temp
  1189   0020DC  C0AD  F131         	movff	?___fltol+1,main@temp+1
  1190   0020E0                     
  1191                           ;main.c: 124:         sprintf(str, "%u",temp);
  1192   0020E0  0E20               	movlw	low main@str
  1193   0020E2  0100               	movlb	0	; () banked
  1194   0020E4  6F82               	movwf	sprintf@s& (0+255),b
  1195   0020E6  0E01               	movlw	high main@str
  1196   0020E8  6F83               	movwf	(sprintf@s+1)& (0+255),b
  1197   0020EA  0E56               	movlw	low STR_3
  1198   0020EC  6F84               	movwf	sprintf@fmt& (0+255),b
  1199   0020EE  C130  F085         	movff	main@temp,?_sprintf+3
  1200   0020F2  C131  F086         	movff	main@temp+1,?_sprintf+4
  1201   0020F6  EC4D  F019         	call	_sprintf	;wreg free
  1202   0020FA                     
  1203                           ;main.c: 127:         int bpm=Calculate_bpm();
  1204   0020FA  EC16  F014         	call	_Calculate_bpm	;wreg free
  1205   0020FE  C0B6  F132         	movff	?_Calculate_bpm,main@bpm
  1206   002102  C0B7  F133         	movff	?_Calculate_bpm+1,main@bpm+1
  1207   002106                     
  1208                           ;main.c: 128:          sprintf(bpmstr, "%u",bpm);
  1209   002106  0E26               	movlw	low main@bpmstr
  1210   002108  0100               	movlb	0	; () banked
  1211   00210A  6F82               	movwf	sprintf@s& (0+255),b
  1212   00210C  0E01               	movlw	high main@bpmstr
  1213   00210E  6F83               	movwf	(sprintf@s+1)& (0+255),b
  1214   002110  0E56               	movlw	low STR_3
  1215   002112  6F84               	movwf	sprintf@fmt& (0+255),b
  1216   002114  C132  F085         	movff	main@bpm,?_sprintf+3
  1217   002118  C133  F086         	movff	main@bpm+1,?_sprintf+4
  1218   00211C  EC4D  F019         	call	_sprintf	;wreg free
  1219   002120                     
  1220                           ;main.c: 131:         LCD_WriteString("T : ");
  1221   002120  0E51               	movlw	low STR_5
  1222   002122  0100               	movlb	0	; () banked
  1223   002124  6F71               	movwf	LCD_WriteString@str& (0+255),b
  1224   002126  5171               	movf	LCD_WriteString@str& (0+255),w,b
  1225   002128  A4D8               	btfss	status,2,c
  1226   00212A  0E10               	movlw	high __smallconst
  1227   00212C  6F72               	movwf	(LCD_WriteString@str+1)& (0+255),b
  1228   00212E  EC5D  F018         	call	_LCD_WriteString	;wreg free
  1229   002132                     
  1230                           ;main.c: 132:         LCD_WriteString(str);
  1231   002132  0E20               	movlw	low main@str
  1232   002134  0100               	movlb	0	; () banked
  1233   002136  6F71               	movwf	LCD_WriteString@str& (0+255),b
  1234   002138  0E01               	movlw	high main@str
  1235   00213A  6F72               	movwf	(LCD_WriteString@str+1)& (0+255),b
  1236   00213C  EC5D  F018         	call	_LCD_WriteString	;wreg free
  1237   002140                     
  1238                           ;main.c: 133:         _delay((unsigned long)((100)*(16000000/4000.0)));
  1239   002140  0E03               	movlw	3
  1240   002142  0100               	movlb	0	; () banked
  1241   002144  6FC2               	movwf	(??_main+1)& (0+255),b
  1242   002146  0E08               	movlw	8
  1243   002148  6FC1               	movwf	??_main& (0+255),b
  1244   00214A  0E77               	movlw	119
  1245   00214C                     u4747:
  1246   00214C  2EE8               	decfsz	wreg,f,c
  1247   00214E  D7FE               	bra	u4747
  1248   002150  2FC1               	decfsz	??_main& (0+255),f,b
  1249   002152  D7FC               	bra	u4747
  1250   002154  2FC2               	decfsz	(??_main+1)& (0+255),f,b
  1251   002156  D7FA               	bra	u4747
  1252   002158                     
  1253                           ;main.c: 134:         LCD_Command(0xC0);
  1254   002158  0EC0               	movlw	192
  1255   00215A  EC3D  F017         	call	_LCD_Command
  1256   00215E                     
  1257                           ;main.c: 135:         LCD_WriteString("BPM : ");
  1258   00215E  0E4A               	movlw	low STR_6
  1259   002160  0100               	movlb	0	; () banked
  1260   002162  6F71               	movwf	LCD_WriteString@str& (0+255),b
  1261   002164  5171               	movf	LCD_WriteString@str& (0+255),w,b
  1262   002166  A4D8               	btfss	status,2,c
  1263   002168  0E10               	movlw	high __smallconst
  1264   00216A  6F72               	movwf	(LCD_WriteString@str+1)& (0+255),b
  1265   00216C  EC5D  F018         	call	_LCD_WriteString	;wreg free
  1266   002170                     
  1267                           ;main.c: 136:         LCD_WriteString(bpmstr);
  1268   002170  0E26               	movlw	low main@bpmstr
  1269   002172  0100               	movlb	0	; () banked
  1270   002174  6F71               	movwf	LCD_WriteString@str& (0+255),b
  1271   002176  0E01               	movlw	high main@bpmstr
  1272   002178  6F72               	movwf	(LCD_WriteString@str+1)& (0+255),b
  1273   00217A  EC5D  F018         	call	_LCD_WriteString	;wreg free
  1274   00217E                     
  1275                           ;main.c: 138:         _delay((unsigned long)((1000)*(16000000/4000.0)));
  1276   00217E  0E15               	movlw	21
  1277   002180  0100               	movlb	0	; () banked
  1278   002182  6FC2               	movwf	(??_main+1)& (0+255),b
  1279   002184  0E4B               	movlw	75
  1280   002186  6FC1               	movwf	??_main& (0+255),b
  1281   002188  0EBE               	movlw	190
  1282   00218A                     u4757:
  1283   00218A  2EE8               	decfsz	wreg,f,c
  1284   00218C  D7FE               	bra	u4757
  1285   00218E  2FC1               	decfsz	??_main& (0+255),f,b
  1286   002190  D7FC               	bra	u4757
  1287   002192  2FC2               	decfsz	(??_main+1)& (0+255),f,b
  1288   002194  D7FA               	bra	u4757
  1289   002196  0000               	nop	
  1290   002198                     
  1291                           ;main.c: 139:         LCD_Command(0x01);
  1292   002198  0E01               	movlw	1
  1293   00219A  EC3D  F017         	call	_LCD_Command
  1294   00219E                     
  1295                           ;main.c: 140:         _delay((unsigned long)((50)*(16000000/4000.0)));
  1296   00219E  0E02               	movlw	2
  1297   0021A0  0100               	movlb	0	; () banked
  1298   0021A2  6FC2               	movwf	(??_main+1)& (0+255),b
  1299   0021A4  0E04               	movlw	4
  1300   0021A6  6FC1               	movwf	??_main& (0+255),b
  1301   0021A8  0EBA               	movlw	186
  1302   0021AA                     u4767:
  1303   0021AA  2EE8               	decfsz	wreg,f,c
  1304   0021AC  D7FE               	bra	u4767
  1305   0021AE  2FC1               	decfsz	??_main& (0+255),f,b
  1306   0021B0  D7FC               	bra	u4767
  1307   0021B2  2FC2               	decfsz	(??_main+1)& (0+255),f,b
  1308   0021B4  D7FA               	bra	u4767
  1309   0021B6  0000               	nop	
  1310   0021B8  EF1D  F010         	goto	l4717
  1311   0021BC  EF39  F000         	goto	start
  1312   0021C0                     __end_of_main:
  1313                           	callstack 0
  1314                           
  1315 ;; *************** function _sprintf *****************
  1316 ;; Defined at:
  1317 ;;		line 9 in file "C:\Program Files\Microchip\xc8\v2.46\pic\sources\c99\common\nf_sprintf.c"
  1318 ;; Parameters:    Size  Location     Type
  1319 ;;  s               2   34[BANK0 ] PTR unsigned char 
  1320 ;;		 -> main@bpmstr(6), main@str(6), Timer0_UserCallback@str(6), 
  1321 ;;  fmt             1   36[BANK0 ] PTR const unsigned char 
  1322 ;;		 -> STR_4(3), STR_3(3), STR_1(11), 
  1323 ;; Auto vars:     Size  Location     Type
  1324 ;;  f              12   40[BANK0 ] struct _IO_FILE
  1325 ;;  ret             2    0        int 
  1326 ;;  ap              1   39[BANK0 ] PTR void [1]
  1327 ;;		 -> ?_sprintf(2), 
  1328 ;; Return value:  Size  Location     Type
  1329 ;;                  2   34[BANK0 ] int 
  1330 ;; Registers used:
  1331 ;;		wreg, fsr1l, fsr1h, fsr2l, fsr2h, status,2, status,0, tblptrl, tblptrh, tblptru, cstack
  1332 ;; Tracked objects:
  1333 ;;		On entry : 0/0
  1334 ;;		On exit  : 0/0
  1335 ;;		Unchanged: 0/0
  1336 ;; Data sizes:     COMRAM   BANK0   BANK1   BANK2   BANK3   BANK4   BANK5   BANK6   BANK7   BANK8   BANK9  BANK10  BANK1
      +1  BANK12  BANK13  BANK14  BANK15
  1337 ;;      Params:         0       5       0       0       0       0       0       0       0       0       0       0       
      +0       0       0       0       0
  1338 ;;      Locals:         0      13       0       0       0       0       0       0       0       0       0       0       
      +0       0       0       0       0
  1339 ;;      Temps:          0       0       0       0       0       0       0       0       0       0       0       0       
      +0       0       0       0       0
  1340 ;;      Totals:         0      18       0       0       0       0       0       0       0       0       0       0       
      +0       0       0       0       0
  1341 ;;Total ram usage:       18 bytes
  1342 ;; Hardware stack levels used: 1
  1343 ;; Hardware stack levels required when called: 12
  1344 ;; This function calls:
  1345 ;;		_vfprintf
  1346 ;; This function is called by:
  1347 ;;		_main
  1348 ;; This function uses a non-reentrant model
  1349 ;;
  1350                           
  1351                           	psect	text1
  1352   00329A                     __ptext1:
  1353                           	callstack 0
  1354   00329A                     _sprintf:
  1355                           	callstack 18
  1356   00329A  0E85               	movlw	low (?_sprintf+3)
  1357   00329C  0100               	movlb	0	; () banked
  1358   00329E  6F87               	movwf	sprintf@ap& (0+255),b
  1359   0032A0  C082  F088         	movff	sprintf@s,sprintf@f
  1360   0032A4  C083  F089         	movff	sprintf@s+1,sprintf@f+1
  1361   0032A8                     
  1362                           ; BSR set to: 0
  1363   0032A8  0E00               	movlw	0
  1364   0032AA  6F8C               	movwf	(sprintf@f+4)& (0+255),b
  1365   0032AC  0E00               	movlw	0
  1366   0032AE  6F8B               	movwf	(sprintf@f+3)& (0+255),b
  1367   0032B0                     
  1368                           ; BSR set to: 0
  1369   0032B0  0E00               	movlw	0
  1370   0032B2  6F93               	movwf	(sprintf@f+11)& (0+255),b
  1371   0032B4  0E00               	movlw	0
  1372   0032B6  6F92               	movwf	(sprintf@f+10)& (0+255),b
  1373   0032B8                     
  1374                           ; BSR set to: 0
  1375   0032B8  0E88               	movlw	low sprintf@f
  1376   0032BA  6F7E               	movwf	vfprintf@fp& (0+255),b
  1377   0032BC  C084  F07F         	movff	sprintf@fmt,vfprintf@fmt
  1378   0032C0  0E87               	movlw	low sprintf@ap
  1379   0032C2  6F80               	movwf	vfprintf@ap& (0+255),b
  1380   0032C4  EC09  F019         	call	_vfprintf	;wreg free
  1381   0032C8  0100               	movlb	0	; () banked
  1382   0032CA  518B               	movf	(sprintf@f+3)& (0+255),w,b
  1383   0032CC  2582               	addwf	sprintf@s& (0+255),w,b
  1384   0032CE  6ED9               	movwf	fsr2l,c
  1385   0032D0  518C               	movf	(sprintf@f+4)& (0+255),w,b
  1386   0032D2  2183               	addwfc	(sprintf@s+1)& (0+255),w,b
  1387   0032D4  6EDA               	movwf	fsr2h,c
  1388   0032D6  6ADF               	clrf	indf2,c
  1389   0032D8                     
  1390                           ; BSR set to: 0
  1391   0032D8  0012               	return		;funcret
  1392   0032DA                     __end_of_sprintf:
  1393                           	callstack 0
  1394                           
  1395 ;; *************** function _vfprintf *****************
  1396 ;; Defined at:
  1397 ;;		line 1817 in file "C:\Program Files\Microchip\xc8\v2.46\pic\sources\c99\common\doprnt.c"
  1398 ;; Parameters:    Size  Location     Type
  1399 ;;  fp              1   30[BANK0 ] PTR struct _IO_FILE
  1400 ;;		 -> sprintf@f(12), 
  1401 ;;  fmt             1   31[BANK0 ] PTR const unsigned char 
  1402 ;;		 -> STR_4(3), STR_3(3), STR_1(11), 
  1403 ;;  ap              1   32[BANK0 ] PTR PTR void 
  1404 ;;		 -> sprintf@ap(1), 
  1405 ;; Auto vars:     Size  Location     Type
  1406 ;;  cfmt            1   33[BANK0 ] PTR unsigned char 
  1407 ;;		 -> STR_4(3), STR_3(3), STR_1(11), 
  1408 ;; Return value:  Size  Location     Type
  1409 ;;                  2   30[BANK0 ] int 
  1410 ;; Registers used:
  1411 ;;		wreg, fsr1l, fsr1h, fsr2l, fsr2h, status,2, status,0, tblptrl, tblptrh, tblptru, cstack
  1412 ;; Tracked objects:
  1413 ;;		On entry : 0/0
  1414 ;;		On exit  : 0/0
  1415 ;;		Unchanged: 0/0
  1416 ;; Data sizes:     COMRAM   BANK0   BANK1   BANK2   BANK3   BANK4   BANK5   BANK6   BANK7   BANK8   BANK9  BANK10  BANK1
      +1  BANK12  BANK13  BANK14  BANK15
  1417 ;;      Params:         0       3       0       0       0       0       0       0       0       0       0       0       
      +0       0       0       0       0
  1418 ;;      Locals:         0       1       0       0       0       0       0       0       0       0       0       0       
      +0       0       0       0       0
  1419 ;;      Temps:          0       0       0       0       0       0       0       0       0       0       0       0       
      +0       0       0       0       0
  1420 ;;      Totals:         0       4       0       0       0       0       0       0       0       0       0       0       
      +0       0       0       0       0
  1421 ;;Total ram usage:        4 bytes
  1422 ;; Hardware stack levels used: 1
  1423 ;; Hardware stack levels required when called: 11
  1424 ;; This function calls:
  1425 ;;		_vfpfcnvrt
  1426 ;; This function is called by:
  1427 ;;		_sprintf
  1428 ;; This function uses a non-reentrant model
  1429 ;;
  1430                           
  1431                           	psect	text2
  1432   003212                     __ptext2:
  1433                           	callstack 0
  1434   003212                     _vfprintf:
  1435                           	callstack 18
  1436   003212                     
  1437                           ;C:\Program Files\Microchip\xc8\v2.46\pic\sources\c99\common\doprnt.c: 1817: int vfprint
      +                          f(FILE *fp, const char *fmt, va_list ap);C:\Program Files\Microchip\xc8\v2.46\pic\source
      +                          s\c99\common\doprnt.c: 1818: {;C:\Program Files\Microchip\xc8\v2.46\pic\sources\c99\comm
      +                          on\doprnt.c: 1820:     char *cfmt;;C:\Program Files\Microchip\xc8\v2.46\pic\sources\c99\
      +                          common\doprnt.c: 1822:     cfmt = (char *)fmt;
  1438   003212  C07F  F081         	movff	vfprintf@fmt,vfprintf@cfmt
  1439                           
  1440                           ;C:\Program Files\Microchip\xc8\v2.46\pic\sources\c99\common\doprnt.c: 1826:     while (
      +                          *cfmt) {
  1441   003216  EF16  F019         	goto	l4589
  1442   00321A                     l4587:
  1443                           
  1444                           ;C:\Program Files\Microchip\xc8\v2.46\pic\sources\c99\common\doprnt.c: 1830:    vfpfcnvr
      +                          t(fp, &cfmt, ap);
  1445   00321A  C07E  F074         	movff	vfprintf@fp,vfpfcnvrt@fp
  1446   00321E  0E81               	movlw	low vfprintf@cfmt
  1447   003220  0100               	movlb	0	; () banked
  1448   003222  6F75               	movwf	vfpfcnvrt@fmt& (0+255),b
  1449   003224  C080  F076         	movff	vfprintf@ap,vfpfcnvrt@ap
  1450   003228  EC96  F012         	call	_vfpfcnvrt	;wreg free
  1451   00322C                     l4589:
  1452                           
  1453                           ;C:\Program Files\Microchip\xc8\v2.46\pic\sources\c99\common\doprnt.c: 1826:     while (
      +                          *cfmt) {
  1454   00322C  C081  FFF6         	movff	vfprintf@cfmt,tblptrl
  1455   003230                     	if	1	;There is more than 1 active tblptr byte
  1456   003230  0E10               	movlw	high __smallconst
  1457   003232  6EF7               	movwf	tblptrh,c
  1458   003234                     	endif
  1459   003234                     	if	1	;Program memory is < 0x10000, tblptru is always zero
  1460   003234  6AF8               	clrf	tblptru,c
  1461   003236                     	endif
  1462   003236                     	if	0	;tblptru may be non-zero
  1463   003236                     	endif
  1464   003236  0008               	tblrd		*
  1465   003238  50F5               	movf	tablat,w,c
  1466   00323A  0900               	iorlw	0
  1467   00323C  A4D8               	btfss	status,2,c
  1468   00323E  EF23  F019         	goto	u4621
  1469   003242  EF25  F019         	goto	u4620
  1470   003246                     u4621:
  1471   003246  EF0D  F019         	goto	l4587
  1472   00324A                     u4620:
  1473   00324A                     
  1474                           ;C:\Program Files\Microchip\xc8\v2.46\pic\sources\c99\common\doprnt.c: 1835:  return 0;
  1475   00324A  0E00               	movlw	0
  1476   00324C  0100               	movlb	0	; () banked
  1477   00324E  6F7F               	movwf	(?_vfprintf+1)& (0+255),b
  1478   003250  0E00               	movlw	0
  1479   003252  6F7E               	movwf	?_vfprintf& (0+255),b
  1480   003254                     
  1481                           ; BSR set to: 0
  1482   003254  0012               	return		;funcret
  1483   003256                     __end_of_vfprintf:
  1484                           	callstack 0
  1485                           
  1486 ;; *************** function _vfpfcnvrt *****************
  1487 ;; Defined at:
  1488 ;;		line 1177 in file "C:\Program Files\Microchip\xc8\v2.46\pic\sources\c99\common\doprnt.c"
  1489 ;; Parameters:    Size  Location     Type
  1490 ;;  fp              1   20[BANK0 ] PTR struct _IO_FILE
  1491 ;;		 -> sprintf@f(12), 
  1492 ;;  fmt             1   21[BANK0 ] PTR PTR unsigned char 
  1493 ;;		 -> vfprintf@cfmt(1), 
  1494 ;;  ap              1   22[BANK0 ] PTR PTR void 
  1495 ;;		 -> sprintf@ap(1), 
  1496 ;; Auto vars:     Size  Location     Type
  1497 ;;  convarg         4   24[BANK0 ] struct .
  1498 ;;  c               1   29[BANK0 ] unsigned char 
  1499 ;;  cp              1   28[BANK0 ] PTR unsigned char 
  1500 ;;		 -> STR_4(3), STR_3(3), STR_1(11), 
  1501 ;;  done            1    0        _Bool 
  1502 ;; Return value:  Size  Location     Type
  1503 ;;                  1    wreg      void 
  1504 ;; Registers used:
  1505 ;;		wreg, fsr1l, fsr1h, fsr2l, fsr2h, status,2, status,0, tblptrl, tblptrh, tblptru, cstack
  1506 ;; Tracked objects:
  1507 ;;		On entry : 0/0
  1508 ;;		On exit  : 0/0
  1509 ;;		Unchanged: 0/0
  1510 ;; Data sizes:     COMRAM   BANK0   BANK1   BANK2   BANK3   BANK4   BANK5   BANK6   BANK7   BANK8   BANK9  BANK10  BANK1
      +1  BANK12  BANK13  BANK14  BANK15
  1511 ;;      Params:         0       3       0       0       0       0       0       0       0       0       0       0       
      +0       0       0       0       0
  1512 ;;      Locals:         0       6       0       0       0       0       0       0       0       0       0       0       
      +0       0       0       0       0
  1513 ;;      Temps:          0       1       0       0       0       0       0       0       0       0       0       0       
      +0       0       0       0       0
  1514 ;;      Totals:         0      10       0       0       0       0       0       0       0       0       0       0       
      +0       0       0       0       0
  1515 ;;Total ram usage:       10 bytes
  1516 ;; Hardware stack levels used: 1
  1517 ;; Hardware stack levels required when called: 10
  1518 ;; This function calls:
  1519 ;;		___lwdiv
  1520 ;;		___lwmod
  1521 ;;		_fputc
  1522 ;; This function is called by:
  1523 ;;		_vfprintf
  1524 ;; This function uses a non-reentrant model
  1525 ;;
  1526                           
  1527                           	psect	text3
  1528   00252C                     __ptext3:
  1529                           	callstack 0
  1530   00252C                     _vfpfcnvrt:
  1531                           	callstack 18
  1532   00252C                     
  1533                           ;C:\Program Files\Microchip\xc8\v2.46\pic\sources\c99\common\doprnt.c: 1177: vfpfcnvrt(F
      +                          ILE *fp, char *fmt[], va_list ap);C:\Program Files\Microchip\xc8\v2.46\pic\sources\c99\c
      +                          ommon\doprnt.c: 1178: {;C:\Program Files\Microchip\xc8\v2.46\pic\sources\c99\common\dopr
      +                          nt.c: 1179:     char c, *cp;;C:\Program Files\Microchip\xc8\v2.46\pic\sources\c99\common
      +                          \doprnt.c: 1180:     _Bool done;;C:\Program Files\Microchip\xc8\v2.46\pic\sources\c99\co
      +                          mmon\doprnt.c: 1188:  } convarg;;C:\Program Files\Microchip\xc8\v2.46\pic\sources\c99\co
      +                          mmon\doprnt.c: 1201:     if ((*fmt)[0] == '%') {
  1534   00252C  0100               	movlb	0	; () banked
  1535   00252E  5175               	movf	vfpfcnvrt@fmt& (0+255),w,b
  1536   002530  6ED9               	movwf	fsr2l,c
  1537   002532  6ADA               	clrf	fsr2h,c
  1538   002534  CFDF FFF6          	movff	indf2,tblptrl
  1539   002538                     	if	1	;There is more than 1 active tblptr byte
  1540   002538  0E10               	movlw	high __smallconst
  1541   00253A  6EF7               	movwf	tblptrh,c
  1542   00253C                     	endif
  1543   00253C                     	if	1	;Program memory is < 0x10000, tblptru is always zero
  1544   00253C  6AF8               	clrf	tblptru,c
  1545   00253E                     	endif
  1546   00253E                     	if	0	;tblptru may be non-zero
  1547   00253E                     	endif
  1548   00253E  0008               	tblrd		*
  1549   002540  50F5               	movf	tablat,w,c
  1550   002542  0A25               	xorlw	37
  1551   002544  A4D8               	btfss	status,2,c
  1552   002546  EFA7  F012         	goto	u3951
  1553   00254A  EFA9  F012         	goto	u3950
  1554   00254E                     u3951:
  1555   00254E  EF45  F013         	goto	l4109
  1556   002552                     u3950:
  1557   002552                     
  1558                           ; BSR set to: 0
  1559                           ;C:\Program Files\Microchip\xc8\v2.46\pic\sources\c99\common\doprnt.c: 1202:         ++*
      +                          fmt;
  1560   002552  5175               	movf	vfpfcnvrt@fmt& (0+255),w,b
  1561   002554  6ED9               	movwf	fsr2l,c
  1562   002556  6ADA               	clrf	fsr2h,c
  1563   002558  2ADF               	incf	indf2,f,c
  1564   00255A                     
  1565                           ; BSR set to: 0
  1566                           ;C:\Program Files\Microchip\xc8\v2.46\pic\sources\c99\common\doprnt.c: 1204:         fla
      +                          gs = width = 0;
  1567   00255A  0E00               	movlw	0
  1568   00255C  6FC5               	movwf	(_width+1)& (0+255),b
  1569   00255E  0E00               	movlw	0
  1570   002560  6FC4               	movwf	_width& (0+255),b
  1571   002562  C0C4  F05D         	movff	_width,_flags
  1572   002566                     
  1573                           ; BSR set to: 0
  1574                           ;C:\Program Files\Microchip\xc8\v2.46\pic\sources\c99\common\doprnt.c: 1205:         pre
      +                          c = -1;
  1575   002566  69C6               	setf	_prec& (0+255),b
  1576   002568  69C7               	setf	(_prec+1)& (0+255),b
  1577   00256A                     
  1578                           ; BSR set to: 0
  1579                           ;C:\Program Files\Microchip\xc8\v2.46\pic\sources\c99\common\doprnt.c: 1439:   if (0
  1580   00256A  5175               	movf	vfpfcnvrt@fmt& (0+255),w,b
  1581   00256C  6ED9               	movwf	fsr2l,c
  1582   00256E  6ADA               	clrf	fsr2h,c
  1583   002570  50DF               	movf	indf2,w,c
  1584   002572  6F7C               	movwf	vfpfcnvrt@cp& (0+255),b
  1585   002574                     
  1586                           ; BSR set to: 0
  1587   002574  C07C  FFF6         	movff	vfpfcnvrt@cp,tblptrl
  1588   002578                     	if	1	;There is more than 1 active tblptr byte
  1589   002578  0E10               	movlw	high __smallconst
  1590   00257A  6EF7               	movwf	tblptrh,c
  1591   00257C                     	endif
  1592   00257C                     	if	1	;Program memory is < 0x10000, tblptru is always zero
  1593   00257C  6AF8               	clrf	tblptru,c
  1594   00257E                     	endif
  1595   00257E                     	if	0	;tblptru may be non-zero
  1596   00257E                     	endif
  1597   00257E  0008               	tblrd		*
  1598   002580  50F5               	movf	tablat,w,c
  1599   002582  0A75               	xorlw	117
  1600   002584  A4D8               	btfss	status,2,c
  1601   002586  EFC7  F012         	goto	u3961
  1602   00258A  EFC9  F012         	goto	u3960
  1603   00258E                     u3961:
  1604   00258E  EF3E  F013         	goto	l4105
  1605   002592                     u3960:
  1606   002592                     
  1607                           ; BSR set to: 0
  1608                           ;C:\Program Files\Microchip\xc8\v2.46\pic\sources\c99\common\doprnt.c: 1452:     ) {;C:\
      +                          Program Files\Microchip\xc8\v2.46\pic\sources\c99\common\doprnt.c: 1495:    convarg.uint
      +                           = (vfpf_uint_t)(unsigned int)(*(unsigned int *)__va_arg(*(unsigned int **)ap, (unsigned
      +                           int)0));
  1609   002592  5176               	movf	vfpfcnvrt@ap& (0+255),w,b
  1610   002594  6ED9               	movwf	fsr2l,c
  1611   002596  6ADA               	clrf	fsr2h,c
  1612   002598  0E02               	movlw	2
  1613   00259A  26DF               	addwf	indf2,f,c
  1614   00259C  5CDF               	subwf	indf2,w,c
  1615   00259E  6ED9               	movwf	fsr2l,c
  1616   0025A0  6ADA               	clrf	fsr2h,c
  1617   0025A2  CFDE F078          	movff	postinc2,vfpfcnvrt@convarg
  1618   0025A6  CFDE F079          	movff	postinc2,vfpfcnvrt@convarg+1
  1619   0025AA                     
  1620                           ; BSR set to: 0
  1621                           ;C:\Program Files\Microchip\xc8\v2.46\pic\sources\c99\common\doprnt.c: 1497:    *fmt = c
      +                          p+1;
  1622   0025AA  5175               	movf	vfpfcnvrt@fmt& (0+255),w,b
  1623   0025AC  6ED9               	movwf	fsr2l,c
  1624   0025AE  6ADA               	clrf	fsr2h,c
  1625   0025B0  297C               	incf	vfpfcnvrt@cp& (0+255),w,b
  1626   0025B2  6EDF               	movwf	indf2,c
  1627                           
  1628                           ;C:\Program Files\Microchip\xc8\v2.46\pic\sources\c99\common\doprnt.c: 1498:    switch (
      +                          *cp) {
  1629   0025B4  EF31  F013         	goto	l4103
  1630   0025B8                     l4085:
  1631                           
  1632                           ; BSR set to: 0
  1633                           ;C:\Program Files\Microchip\xc8\v2.46\pic\sources\c99\common\doprnt.c: 1525:      c = si
      +                          zeof(dbuf);
  1634   0025B8  0E20               	movlw	32
  1635   0025BA  6F7D               	movwf	vfpfcnvrt@c& (0+255),b
  1636   0025BC                     l4087:
  1637                           
  1638                           ; BSR set to: 0
  1639                           ;C:\Program Files\Microchip\xc8\v2.46\pic\sources\c99\common\doprnt.c: 1527:       dbuf[
      +                          --c] = (convarg.uint % 10) + '0';
  1640   0025BC  077D               	decf	vfpfcnvrt@c& (0+255),f,b
  1641   0025BE  0E00               	movlw	low _dbuf
  1642   0025C0  257D               	addwf	vfpfcnvrt@c& (0+255),w,b
  1643   0025C2  6ED9               	movwf	fsr2l,c
  1644   0025C4  6ADA               	clrf	fsr2h,c
  1645   0025C6  0E01               	movlw	high _dbuf
  1646   0025C8  22DA               	addwfc	fsr2h,f,c
  1647   0025CA  C078  F06C         	movff	vfpfcnvrt@convarg,___lwmod@dividend
  1648   0025CE  C079  F06D         	movff	vfpfcnvrt@convarg+1,___lwmod@dividend+1
  1649   0025D2  0E00               	movlw	0
  1650   0025D4  6F6F               	movwf	(___lwmod@divisor+1)& (0+255),b
  1651   0025D6  0E0A               	movlw	10
  1652   0025D8  6F6E               	movwf	___lwmod@divisor& (0+255),b
  1653   0025DA  EC2A  F018         	call	___lwmod	;wreg free
  1654   0025DE  0100               	movlb	0	; () banked
  1655   0025E0  516C               	movf	?___lwmod& (0+255),w,b
  1656   0025E2  0F30               	addlw	48
  1657   0025E4  6EDF               	movwf	indf2,c
  1658   0025E6                     
  1659                           ; BSR set to: 0
  1660                           ;C:\Program Files\Microchip\xc8\v2.46\pic\sources\c99\common\doprnt.c: 1528:       conva
      +                          rg.uint /= 10;
  1661   0025E6  C078  F06C         	movff	vfpfcnvrt@convarg,___lwdiv@dividend
  1662   0025EA  C079  F06D         	movff	vfpfcnvrt@convarg+1,___lwdiv@dividend+1
  1663   0025EE  0E00               	movlw	0
  1664   0025F0  6F6F               	movwf	(___lwdiv@divisor+1)& (0+255),b
  1665   0025F2  0E0A               	movlw	10
  1666   0025F4  6F6E               	movwf	___lwdiv@divisor& (0+255),b
  1667   0025F6  EC7A  F017         	call	___lwdiv	;wreg free
  1668   0025FA  C06C  F078         	movff	?___lwdiv,vfpfcnvrt@convarg
  1669   0025FE  C06D  F079         	movff	?___lwdiv+1,vfpfcnvrt@convarg+1
  1670   002602                     
  1671                           ;C:\Program Files\Microchip\xc8\v2.46\pic\sources\c99\common\doprnt.c: 1532:      } whil
      +                          e (convarg.uint != 0 && c != 0);
  1672   002602  0100               	movlb	0	; () banked
  1673   002604  5178               	movf	vfpfcnvrt@convarg& (0+255),w,b
  1674   002606  1179               	iorwf	(vfpfcnvrt@convarg+1)& (0+255),w,b
  1675   002608  B4D8               	btfsc	status,2,c
  1676   00260A  EF09  F013         	goto	u3971
  1677   00260E  EF0B  F013         	goto	u3970
  1678   002612                     u3971:
  1679   002612  EF26  F013         	goto	l4099
  1680   002616                     u3970:
  1681   002616                     
  1682                           ; BSR set to: 0
  1683   002616  517D               	movf	vfpfcnvrt@c& (0+255),w,b
  1684   002618  A4D8               	btfss	status,2,c
  1685   00261A  EF11  F013         	goto	u3981
  1686   00261E  EF13  F013         	goto	u3980
  1687   002622                     u3981:
  1688   002622  EFDE  F012         	goto	l4087
  1689   002626                     u3980:
  1690   002626  EF26  F013         	goto	l4099
  1691   00262A                     l4095:
  1692                           
  1693                           ; BSR set to: 0
  1694                           ;C:\Program Files\Microchip\xc8\v2.46\pic\sources\c99\common\doprnt.c: 1534:       fputc
      +                          (dbuf[c++], fp);
  1695   00262A  0E00               	movlw	low _dbuf
  1696   00262C  257D               	addwf	vfpfcnvrt@c& (0+255),w,b
  1697   00262E  6ED9               	movwf	fsr2l,c
  1698   002630  6ADA               	clrf	fsr2h,c
  1699   002632  0E01               	movlw	high _dbuf
  1700   002634  22DA               	addwfc	fsr2h,f,c
  1701   002636  50DF               	movf	indf2,w,c
  1702   002638  6F77               	movwf	??_vfpfcnvrt& (0+255),b
  1703   00263A  5177               	movf	??_vfpfcnvrt& (0+255),w,b
  1704   00263C  6F6C               	movwf	fputc@c& (0+255),b
  1705   00263E  6B6D               	clrf	(fputc@c+1)& (0+255),b
  1706   002640  C074  F06E         	movff	vfpfcnvrt@fp,fputc@fp
  1707   002644  EC2E  F016         	call	_fputc	;wreg free
  1708   002648  0100               	movlb	0	; () banked
  1709   00264A  2B7D               	incf	vfpfcnvrt@c& (0+255),f,b
  1710   00264C                     l4099:
  1711                           
  1712                           ; BSR set to: 0
  1713                           ;C:\Program Files\Microchip\xc8\v2.46\pic\sources\c99\common\doprnt.c: 1533:      while 
      +                          (c != sizeof(dbuf)) {
  1714   00264C  0E20               	movlw	32
  1715   00264E  197D               	xorwf	vfpfcnvrt@c& (0+255),w,b
  1716   002650  A4D8               	btfss	status,2,c
  1717   002652  EF2D  F013         	goto	u3991
  1718   002656  EF2F  F013         	goto	u3990
  1719   00265A                     u3991:
  1720   00265A  EF15  F013         	goto	l4095
  1721   00265E                     u3990:
  1722   00265E  EF57  F013         	goto	l1193
  1723   002662                     l4103:
  1724                           
  1725                           ; BSR set to: 0
  1726   002662  C07C  FFF6         	movff	vfpfcnvrt@cp,tblptrl
  1727   002666                     	if	1	;There is more than 1 active tblptr byte
  1728   002666  0E10               	movlw	high __smallconst
  1729   002668  6EF7               	movwf	tblptrh,c
  1730   00266A                     	endif
  1731   00266A                     	if	1	;Program memory is < 0x10000, tblptru is always zero
  1732   00266A  6AF8               	clrf	tblptru,c
  1733   00266C                     	endif
  1734   00266C                     	if	0	;tblptru may be non-zero
  1735   00266C                     	endif
  1736   00266C  0008               	tblrd		*
  1737   00266E  50F5               	movf	tablat,w,c
  1738                           
  1739                           ; Switch size 1, requested type "simple"
  1740                           ; Number of cases is 1, Range of values is 117 to 117
  1741                           ; switch strategies available:
  1742                           ; Name         Instructions Cycles
  1743                           ; simple_byte            4     3 (average)
  1744                           ;	Chosen strategy is simple_byte
  1745   002670  0A75               	xorlw	117	; case 117
  1746   002672  B4D8               	btfsc	status,2,c
  1747   002674  EFDC  F012         	goto	l4085
  1748   002678  EF3E  F013         	goto	l4105
  1749   00267C                     l4105:
  1750                           
  1751                           ;C:\Program Files\Microchip\xc8\v2.46\pic\sources\c99\common\doprnt.c: 1806:         ++*
      +                          fmt;
  1752   00267C  0100               	movlb	0	; () banked
  1753   00267E  5175               	movf	vfpfcnvrt@fmt& (0+255),w,b
  1754   002680  6ED9               	movwf	fsr2l,c
  1755   002682  6ADA               	clrf	fsr2h,c
  1756   002684  2ADF               	incf	indf2,f,c
  1757   002686  EF57  F013         	goto	l1193
  1758   00268A                     l4109:
  1759                           
  1760                           ; BSR set to: 0
  1761                           ;C:\Program Files\Microchip\xc8\v2.46\pic\sources\c99\common\doprnt.c: 1811:     fputc((
      +                          int)(*fmt)[0], fp);
  1762   00268A  5175               	movf	vfpfcnvrt@fmt& (0+255),w,b
  1763   00268C  6ED9               	movwf	fsr2l,c
  1764   00268E  6ADA               	clrf	fsr2h,c
  1765   002690  CFDF FFF6          	movff	indf2,tblptrl
  1766   002694                     	if	1	;There is more than 1 active tblptr byte
  1767   002694  0E10               	movlw	high __smallconst
  1768   002696  6EF7               	movwf	tblptrh,c
  1769   002698                     	endif
  1770   002698                     	if	1	;Program memory is < 0x10000, tblptru is always zero
  1771   002698  6AF8               	clrf	tblptru,c
  1772   00269A                     	endif
  1773   00269A                     	if	0	;tblptru may be non-zero
  1774   00269A                     	endif
  1775   00269A  0008               	tblrd		*
  1776   00269C  50F5               	movf	tablat,w,c
  1777   00269E  6F6C               	movwf	fputc@c& (0+255),b
  1778   0026A0  6B6D               	clrf	(fputc@c+1)& (0+255),b
  1779   0026A2  C074  F06E         	movff	vfpfcnvrt@fp,fputc@fp
  1780   0026A6  EC2E  F016         	call	_fputc	;wreg free
  1781   0026AA  EF3E  F013         	goto	l4105
  1782   0026AE                     l1193:
  1783                           
  1784                           ; BSR set to: 0
  1785   0026AE  0012               	return		;funcret
  1786   0026B0                     __end_of_vfpfcnvrt:
  1787                           	callstack 0
  1788                           
  1789 ;; *************** function _fputc *****************
  1790 ;; Defined at:
  1791 ;;		line 8 in file "C:\Program Files\Microchip\xc8\v2.46\pic\sources\c99\common\nf_fputc.c"
  1792 ;; Parameters:    Size  Location     Type
  1793 ;;  c               2   12[BANK0 ] int 
  1794 ;;  fp              1   14[BANK0 ] PTR struct _IO_FILE
  1795 ;;		 -> sprintf@f(12), 
  1796 ;; Auto vars:     Size  Location     Type
  1797 ;;		None
  1798 ;; Return value:  Size  Location     Type
  1799 ;;                  2   12[BANK0 ] int 
  1800 ;; Registers used:
  1801 ;;		wreg, fsr1l, fsr1h, fsr2l, fsr2h, status,2, status,0, cstack
  1802 ;; Tracked objects:
  1803 ;;		On entry : 0/0
  1804 ;;		On exit  : 0/0
  1805 ;;		Unchanged: 0/0
  1806 ;; Data sizes:     COMRAM   BANK0   BANK1   BANK2   BANK3   BANK4   BANK5   BANK6   BANK7   BANK8   BANK9  BANK10  BANK1
      +1  BANK12  BANK13  BANK14  BANK15
  1807 ;;      Params:         0       3       0       0       0       0       0       0       0       0       0       0       
      +0       0       0       0       0
  1808 ;;      Locals:         0       0       0       0       0       0       0       0       0       0       0       0       
      +0       0       0       0       0
  1809 ;;      Temps:          0       5       0       0       0       0       0       0       0       0       0       0       
      +0       0       0       0       0
  1810 ;;      Totals:         0       8       0       0       0       0       0       0       0       0       0       0       
      +0       0       0       0       0
  1811 ;;Total ram usage:        8 bytes
  1812 ;; Hardware stack levels used: 1
  1813 ;; Hardware stack levels required when called: 9
  1814 ;; This function calls:
  1815 ;;		_putch
  1816 ;; This function is called by:
  1817 ;;		_vfpfcnvrt
  1818 ;; This function uses a non-reentrant model
  1819 ;;
  1820                           
  1821                           	psect	text4
  1822   002C5C                     __ptext4:
  1823                           	callstack 0
  1824   002C5C                     _fputc:
  1825                           	callstack 18
  1826   002C5C  0100               	movlb	0	; () banked
  1827   002C5E  516E               	movf	fputc@fp& (0+255),w,b
  1828   002C60  B4D8               	btfsc	status,2,c
  1829   002C62  EF35  F016         	goto	u3881
  1830   002C66  EF37  F016         	goto	u3880
  1831   002C6A                     u3881:
  1832   002C6A  EF3F  F016         	goto	l4021
  1833   002C6E                     u3880:
  1834   002C6E                     
  1835                           ; BSR set to: 0
  1836   002C6E  516E               	movf	fputc@fp& (0+255),w,b
  1837   002C70  A4D8               	btfss	status,2,c
  1838   002C72  EF3D  F016         	goto	u3891
  1839   002C76  EF3F  F016         	goto	u3890
  1840   002C7A                     u3891:
  1841   002C7A  EF44  F016         	goto	l4023
  1842   002C7E                     u3890:
  1843   002C7E                     l4021:
  1844                           
  1845                           ; BSR set to: 0
  1846   002C7E  516C               	movf	fputc@c& (0+255),w,b
  1847   002C80  ECCF  F01A         	call	_putch
  1848   002C84  EF8B  F016         	goto	l1212
  1849   002C88                     l4023:
  1850                           
  1851                           ; BSR set to: 0
  1852   002C88  516E               	movf	fputc@fp& (0+255),w,b
  1853   002C8A  6ED9               	movwf	fsr2l,c
  1854   002C8C  6ADA               	clrf	fsr2h,c
  1855   002C8E  0E0A               	movlw	10
  1856   002C90  26D9               	addwf	fsr2l,f,c
  1857   002C92  50DE               	movf	postinc2,w,c
  1858   002C94  10DE               	iorwf	postinc2,w,c
  1859   002C96  B4D8               	btfsc	status,2,c
  1860   002C98  EF50  F016         	goto	u3901
  1861   002C9C  EF52  F016         	goto	u3900
  1862   002CA0                     u3901:
  1863   002CA0  EF6B  F016         	goto	l4027
  1864   002CA4                     u3900:
  1865   002CA4                     
  1866                           ; BSR set to: 0
  1867   002CA4  516E               	movf	fputc@fp& (0+255),w,b
  1868   002CA6  6ED9               	movwf	fsr2l,c
  1869   002CA8  6ADA               	clrf	fsr2h,c
  1870   002CAA  0E0A               	movlw	10
  1871   002CAC  26D9               	addwf	fsr2l,f,c
  1872   002CAE  516E               	movf	fputc@fp& (0+255),w,b
  1873   002CB0  6EE1               	movwf	fsr1l,c
  1874   002CB2  6AE2               	clrf	fsr1h,c
  1875   002CB4  0E03               	movlw	3
  1876   002CB6  26E1               	addwf	fsr1l,f,c
  1877   002CB8  50DE               	movf	postinc2,w,c
  1878   002CBA  5CE6               	subwf	postinc1,w,c
  1879   002CBC  50E6               	movf	postinc1,w,c
  1880   002CBE  0A80               	xorlw	128
  1881   002CC0  6F73               	movwf	(??_fputc+4)& (0+255),b
  1882   002CC2  50DE               	movf	postinc2,w,c
  1883   002CC4  0A80               	xorlw	128
  1884   002CC6  5973               	subwfb	(??_fputc+4)& (0+255),w,b
  1885   002CC8  B0D8               	btfsc	status,0,c
  1886   002CCA  EF69  F016         	goto	u3911
  1887   002CCE  EF6B  F016         	goto	u3910
  1888   002CD2                     u3911:
  1889   002CD2  EF8B  F016         	goto	l1212
  1890   002CD6                     u3910:
  1891   002CD6                     l4027:
  1892                           
  1893                           ; BSR set to: 0
  1894   002CD6  516E               	movf	fputc@fp& (0+255),w,b
  1895   002CD8  6ED9               	movwf	fsr2l,c
  1896   002CDA  6ADA               	clrf	fsr2h,c
  1897   002CDC  0E03               	movlw	3
  1898   002CDE  26D9               	addwf	fsr2l,f,c
  1899   002CE0  CFDE F06F          	movff	postinc2,??_fputc
  1900   002CE4  CFDD F070          	movff	postdec2,??_fputc+1
  1901   002CE8  516E               	movf	fputc@fp& (0+255),w,b
  1902   002CEA  6ED9               	movwf	fsr2l,c
  1903   002CEC  6ADA               	clrf	fsr2h,c
  1904   002CEE  CFDE F071          	movff	postinc2,??_fputc+2
  1905   002CF2  CFDD F072          	movff	postdec2,??_fputc+3
  1906   002CF6  516F               	movf	??_fputc& (0+255),w,b
  1907   002CF8  2571               	addwf	(??_fputc+2)& (0+255),w,b
  1908   002CFA  6ED9               	movwf	fsr2l,c
  1909   002CFC  5170               	movf	(??_fputc+1)& (0+255),w,b
  1910   002CFE  2172               	addwfc	(??_fputc+3)& (0+255),w,b
  1911   002D00  6EDA               	movwf	fsr2h,c
  1912   002D02  C06C  FFDF         	movff	fputc@c,indf2
  1913   002D06  516E               	movf	fputc@fp& (0+255),w,b
  1914   002D08  6ED9               	movwf	fsr2l,c
  1915   002D0A  6ADA               	clrf	fsr2h,c
  1916   002D0C  0E03               	movlw	3
  1917   002D0E  26D9               	addwf	fsr2l,f,c
  1918   002D10  2ADE               	incf	postinc2,f,c
  1919   002D12  0E00               	movlw	0
  1920   002D14  22DD               	addwfc	postdec2,f,c
  1921   002D16                     l1212:
  1922   002D16  0012               	return		;funcret
  1923   002D18                     __end_of_fputc:
  1924                           	callstack 0
  1925                           
  1926 ;; *************** function _putch *****************
  1927 ;; Defined at:
  1928 ;;		line 7 in file "C:\Program Files\Microchip\xc8\v2.46\pic\sources\c99\common\putch.c"
  1929 ;; Parameters:    Size  Location     Type
  1930 ;;  c               1    wreg     unsigned char 
  1931 ;; Auto vars:     Size  Location     Type
  1932 ;;  c               1    0[COMRAM] unsigned char 
  1933 ;; Return value:  Size  Location     Type
  1934 ;;                  1    wreg      void 
  1935 ;; Registers used:
  1936 ;;		wreg
  1937 ;; Tracked objects:
  1938 ;;		On entry : 0/0
  1939 ;;		On exit  : 0/0
  1940 ;;		Unchanged: 0/0
  1941 ;; Data sizes:     COMRAM   BANK0   BANK1   BANK2   BANK3   BANK4   BANK5   BANK6   BANK7   BANK8   BANK9  BANK10  BANK1
      +1  BANK12  BANK13  BANK14  BANK15
  1942 ;;      Params:         0       0       0       0       0       0       0       0       0       0       0       0       
      +0       0       0       0       0
  1943 ;;      Locals:         0       0       0       0       0       0       0       0       0       0       0       0       
      +0       0       0       0       0
  1944 ;;      Temps:          0       0       0       0       0       0       0       0       0       0       0       0       
      +0       0       0       0       0
  1945 ;;      Totals:         0       0       0       0       0       0       0       0       0       0       0       0       
      +0       0       0       0       0
  1946 ;;Total ram usage:        0 bytes
  1947 ;; Hardware stack levels used: 1
  1948 ;; Hardware stack levels required when called: 8
  1949 ;; This function calls:
  1950 ;;		Nothing
  1951 ;; This function is called by:
  1952 ;;		_fputc
  1953 ;; This function uses a non-reentrant model
  1954 ;;
  1955                           
  1956                           	psect	text5
  1957   00359E                     __ptext5:
  1958                           	callstack 0
  1959   00359E                     _putch:
  1960                           	callstack 18
  1961   00359E  0012               	return		;funcret
  1962   0035A0                     __end_of_putch:
  1963                           	callstack 0
  1964                           
  1965 ;; *************** function ___lwmod *****************
  1966 ;; Defined at:
  1967 ;;		line 7 in file "C:\Program Files\Microchip\xc8\v2.46\pic\sources\c99\common\lwmod.c"
  1968 ;; Parameters:    Size  Location     Type
  1969 ;;  dividend        2   12[BANK0 ] unsigned int 
  1970 ;;  divisor         2   14[BANK0 ] unsigned int 
  1971 ;; Auto vars:     Size  Location     Type
  1972 ;;  counter         1   16[BANK0 ] unsigned char 
  1973 ;; Return value:  Size  Location     Type
  1974 ;;                  2   12[BANK0 ] unsigned int 
  1975 ;; Registers used:
  1976 ;;		wreg, status,2, status,0
  1977 ;; Tracked objects:
  1978 ;;		On entry : 0/0
  1979 ;;		On exit  : 0/0
  1980 ;;		Unchanged: 0/0
  1981 ;; Data sizes:     COMRAM   BANK0   BANK1   BANK2   BANK3   BANK4   BANK5   BANK6   BANK7   BANK8   BANK9  BANK10  BANK1
      +1  BANK12  BANK13  BANK14  BANK15
  1982 ;;      Params:         0       4       0       0       0       0       0       0       0       0       0       0       
      +0       0       0       0       0
  1983 ;;      Locals:         0       1       0       0       0       0       0       0       0       0       0       0       
      +0       0       0       0       0
  1984 ;;      Temps:          0       0       0       0       0       0       0       0       0       0       0       0       
      +0       0       0       0       0
  1985 ;;      Totals:         0       5       0       0       0       0       0       0       0       0       0       0       
      +0       0       0       0       0
  1986 ;;Total ram usage:        5 bytes
  1987 ;; Hardware stack levels used: 1
  1988 ;; Hardware stack levels required when called: 8
  1989 ;; This function calls:
  1990 ;;		Nothing
  1991 ;; This function is called by:
  1992 ;;		_vfpfcnvrt
  1993 ;; This function uses a non-reentrant model
  1994 ;;
  1995                           
  1996                           	psect	text6
  1997   003054                     __ptext6:
  1998                           	callstack 0
  1999   003054                     ___lwmod:
  2000                           	callstack 19
  2001   003054  0100               	movlb	0	; () banked
  2002   003056  516E               	movf	___lwmod@divisor& (0+255),w,b
  2003   003058  116F               	iorwf	(___lwmod@divisor+1)& (0+255),w,b
  2004   00305A  B4D8               	btfsc	status,2,c
  2005   00305C  EF32  F018         	goto	u3851
  2006   003060  EF34  F018         	goto	u3850
  2007   003064                     u3851:
  2008   003064  EF58  F018         	goto	l979
  2009   003068                     u3850:
  2010   003068                     
  2011                           ; BSR set to: 0
  2012   003068  0E01               	movlw	1
  2013   00306A  6F70               	movwf	___lwmod@counter& (0+255),b
  2014   00306C  EF3C  F018         	goto	l4007
  2015   003070                     l4005:
  2016                           
  2017                           ; BSR set to: 0
  2018   003070  90D8               	bcf	status,0,c
  2019   003072  376E               	rlcf	___lwmod@divisor& (0+255),f,b
  2020   003074  376F               	rlcf	(___lwmod@divisor+1)& (0+255),f,b
  2021   003076  2B70               	incf	___lwmod@counter& (0+255),f,b
  2022   003078                     l4007:
  2023                           
  2024                           ; BSR set to: 0
  2025   003078  AF6F               	btfss	(___lwmod@divisor+1)& (0+255),7,b
  2026   00307A  EF41  F018         	goto	u3861
  2027   00307E  EF43  F018         	goto	u3860
  2028   003082                     u3861:
  2029   003082  EF38  F018         	goto	l4005
  2030   003086                     u3860:
  2031   003086                     l4009:
  2032                           
  2033                           ; BSR set to: 0
  2034   003086  516E               	movf	___lwmod@divisor& (0+255),w,b
  2035   003088  5D6C               	subwf	___lwmod@dividend& (0+255),w,b
  2036   00308A  516F               	movf	(___lwmod@divisor+1)& (0+255),w,b
  2037   00308C  596D               	subwfb	(___lwmod@dividend+1)& (0+255),w,b
  2038   00308E  A0D8               	btfss	status,0,c
  2039   003090  EF4C  F018         	goto	u3871
  2040   003094  EF4E  F018         	goto	u3870
  2041   003098                     u3871:
  2042   003098  EF52  F018         	goto	l4013
  2043   00309C                     u3870:
  2044   00309C                     
  2045                           ; BSR set to: 0
  2046   00309C  516E               	movf	___lwmod@divisor& (0+255),w,b
  2047   00309E  5F6C               	subwf	___lwmod@dividend& (0+255),f,b
  2048   0030A0  516F               	movf	(___lwmod@divisor+1)& (0+255),w,b
  2049   0030A2  5B6D               	subwfb	(___lwmod@dividend+1)& (0+255),f,b
  2050   0030A4                     l4013:
  2051                           
  2052                           ; BSR set to: 0
  2053   0030A4  90D8               	bcf	status,0,c
  2054   0030A6  336F               	rrcf	(___lwmod@divisor+1)& (0+255),f,b
  2055   0030A8  336E               	rrcf	___lwmod@divisor& (0+255),f,b
  2056   0030AA                     
  2057                           ; BSR set to: 0
  2058   0030AA  2F70               	decfsz	___lwmod@counter& (0+255),f,b
  2059   0030AC  EF43  F018         	goto	l4009
  2060   0030B0                     l979:
  2061                           
  2062                           ; BSR set to: 0
  2063   0030B0  C06C  F06C         	movff	___lwmod@dividend,?___lwmod
  2064   0030B4  C06D  F06D         	movff	___lwmod@dividend+1,?___lwmod+1
  2065   0030B8                     
  2066                           ; BSR set to: 0
  2067   0030B8  0012               	return		;funcret
  2068   0030BA                     __end_of___lwmod:
  2069                           	callstack 0
  2070                           
  2071 ;; *************** function ___lwdiv *****************
  2072 ;; Defined at:
  2073 ;;		line 7 in file "C:\Program Files\Microchip\xc8\v2.46\pic\sources\c99\common\lwdiv.c"
  2074 ;; Parameters:    Size  Location     Type
  2075 ;;  dividend        2   12[BANK0 ] unsigned int 
  2076 ;;  divisor         2   14[BANK0 ] unsigned int 
  2077 ;; Auto vars:     Size  Location     Type
  2078 ;;  quotient        2   17[BANK0 ] unsigned int 
  2079 ;;  counter         1   16[BANK0 ] unsigned char 
  2080 ;; Return value:  Size  Location     Type
  2081 ;;                  2   12[BANK0 ] unsigned int 
  2082 ;; Registers used:
  2083 ;;		wreg, status,2, status,0
  2084 ;; Tracked objects:
  2085 ;;		On entry : 0/0
  2086 ;;		On exit  : 0/0
  2087 ;;		Unchanged: 0/0
  2088 ;; Data sizes:     COMRAM   BANK0   BANK1   BANK2   BANK3   BANK4   BANK5   BANK6   BANK7   BANK8   BANK9  BANK10  BANK1
      +1  BANK12  BANK13  BANK14  BANK15
  2089 ;;      Params:         0       4       0       0       0       0       0       0       0       0       0       0       
      +0       0       0       0       0
  2090 ;;      Locals:         0       3       0       0       0       0       0       0       0       0       0       0       
      +0       0       0       0       0
  2091 ;;      Temps:          0       0       0       0       0       0       0       0       0       0       0       0       
      +0       0       0       0       0
  2092 ;;      Totals:         0       7       0       0       0       0       0       0       0       0       0       0       
      +0       0       0       0       0
  2093 ;;Total ram usage:        7 bytes
  2094 ;; Hardware stack levels used: 1
  2095 ;; Hardware stack levels required when called: 8
  2096 ;; This function calls:
  2097 ;;		Nothing
  2098 ;; This function is called by:
  2099 ;;		_vfpfcnvrt
  2100 ;; This function uses a non-reentrant model
  2101 ;;
  2102                           
  2103                           	psect	text7
  2104   002EF4                     __ptext7:
  2105                           	callstack 0
  2106   002EF4                     ___lwdiv:
  2107                           	callstack 19
  2108   002EF4  0E00               	movlw	0
  2109   002EF6  0100               	movlb	0	; () banked
  2110   002EF8  6F72               	movwf	(___lwdiv@quotient+1)& (0+255),b
  2111   002EFA  0E00               	movlw	0
  2112   002EFC  6F71               	movwf	___lwdiv@quotient& (0+255),b
  2113   002EFE                     
  2114                           ; BSR set to: 0
  2115   002EFE  516E               	movf	___lwdiv@divisor& (0+255),w,b
  2116   002F00  116F               	iorwf	(___lwdiv@divisor+1)& (0+255),w,b
  2117   002F02  B4D8               	btfsc	status,2,c
  2118   002F04  EF86  F017         	goto	u3821
  2119   002F08  EF88  F017         	goto	u3820
  2120   002F0C                     u3821:
  2121   002F0C  EFB0  F017         	goto	l969
  2122   002F10                     u3820:
  2123   002F10                     
  2124                           ; BSR set to: 0
  2125   002F10  0E01               	movlw	1
  2126   002F12  6F70               	movwf	___lwdiv@counter& (0+255),b
  2127   002F14  EF90  F017         	goto	l3987
  2128   002F18                     l3985:
  2129                           
  2130                           ; BSR set to: 0
  2131   002F18  90D8               	bcf	status,0,c
  2132   002F1A  376E               	rlcf	___lwdiv@divisor& (0+255),f,b
  2133   002F1C  376F               	rlcf	(___lwdiv@divisor+1)& (0+255),f,b
  2134   002F1E  2B70               	incf	___lwdiv@counter& (0+255),f,b
  2135   002F20                     l3987:
  2136                           
  2137                           ; BSR set to: 0
  2138   002F20  AF6F               	btfss	(___lwdiv@divisor+1)& (0+255),7,b
  2139   002F22  EF95  F017         	goto	u3831
  2140   002F26  EF97  F017         	goto	u3830
  2141   002F2A                     u3831:
  2142   002F2A  EF8C  F017         	goto	l3985
  2143   002F2E                     u3830:
  2144   002F2E                     l3989:
  2145                           
  2146                           ; BSR set to: 0
  2147   002F2E  90D8               	bcf	status,0,c
  2148   002F30  3771               	rlcf	___lwdiv@quotient& (0+255),f,b
  2149   002F32  3772               	rlcf	(___lwdiv@quotient+1)& (0+255),f,b
  2150   002F34                     
  2151                           ; BSR set to: 0
  2152   002F34  516E               	movf	___lwdiv@divisor& (0+255),w,b
  2153   002F36  5D6C               	subwf	___lwdiv@dividend& (0+255),w,b
  2154   002F38  516F               	movf	(___lwdiv@divisor+1)& (0+255),w,b
  2155   002F3A  596D               	subwfb	(___lwdiv@dividend+1)& (0+255),w,b
  2156   002F3C  A0D8               	btfss	status,0,c
  2157   002F3E  EFA3  F017         	goto	u3841
  2158   002F42  EFA5  F017         	goto	u3840
  2159   002F46                     u3841:
  2160   002F46  EFAA  F017         	goto	l3997
  2161   002F4A                     u3840:
  2162   002F4A                     
  2163                           ; BSR set to: 0
  2164   002F4A  516E               	movf	___lwdiv@divisor& (0+255),w,b
  2165   002F4C  5F6C               	subwf	___lwdiv@dividend& (0+255),f,b
  2166   002F4E  516F               	movf	(___lwdiv@divisor+1)& (0+255),w,b
  2167   002F50  5B6D               	subwfb	(___lwdiv@dividend+1)& (0+255),f,b
  2168   002F52                     
  2169                           ; BSR set to: 0
  2170   002F52  8171               	bsf	___lwdiv@quotient& (0+255),0,b
  2171   002F54                     l3997:
  2172                           
  2173                           ; BSR set to: 0
  2174   002F54  90D8               	bcf	status,0,c
  2175   002F56  336F               	rrcf	(___lwdiv@divisor+1)& (0+255),f,b
  2176   002F58  336E               	rrcf	___lwdiv@divisor& (0+255),f,b
  2177   002F5A                     
  2178                           ; BSR set to: 0
  2179   002F5A  2F70               	decfsz	___lwdiv@counter& (0+255),f,b
  2180   002F5C  EF97  F017         	goto	l3989
  2181   002F60                     l969:
  2182                           
  2183                           ; BSR set to: 0
  2184   002F60  C071  F06C         	movff	___lwdiv@quotient,?___lwdiv
  2185   002F64  C072  F06D         	movff	___lwdiv@quotient+1,?___lwdiv+1
  2186   002F68                     
  2187                           ; BSR set to: 0
  2188   002F68  0012               	return		;funcret
  2189   002F6A                     __end_of___lwdiv:
  2190                           	callstack 0
  2191                           
  2192 ;; *************** function _Timer0_SetCallback *****************
  2193 ;; Defined at:
  2194 ;;		line 32 in file "Timer0.c"
  2195 ;; Parameters:    Size  Location     Type
  2196 ;;  callback        2   12[BANK0 ] PTR FTN()void 
  2197 ;;		 -> Timer0_UserCallback(1), 
  2198 ;; Auto vars:     Size  Location     Type
  2199 ;;		None
  2200 ;; Return value:  Size  Location     Type
  2201 ;;                  1    wreg      void 
  2202 ;; Registers used:
  2203 ;;		wreg, status,2, status,0
  2204 ;; Tracked objects:
  2205 ;;		On entry : 0/0
  2206 ;;		On exit  : 0/0
  2207 ;;		Unchanged: 0/0
  2208 ;; Data sizes:     COMRAM   BANK0   BANK1   BANK2   BANK3   BANK4   BANK5   BANK6   BANK7   BANK8   BANK9  BANK10  BANK1
      +1  BANK12  BANK13  BANK14  BANK15
  2209 ;;      Params:         0       2       0       0       0       0       0       0       0       0       0       0       
      +0       0       0       0       0
  2210 ;;      Locals:         0       0       0       0       0       0       0       0       0       0       0       0       
      +0       0       0       0       0
  2211 ;;      Temps:          0       0       0       0       0       0       0       0       0       0       0       0       
      +0       0       0       0       0
  2212 ;;      Totals:         0       2       0       0       0       0       0       0       0       0       0       0       
      +0       0       0       0       0
  2213 ;;Total ram usage:        2 bytes
  2214 ;; Hardware stack levels used: 1
  2215 ;; Hardware stack levels required when called: 8
  2216 ;; This function calls:
  2217 ;;		Nothing
  2218 ;; This function is called by:
  2219 ;;		_main
  2220 ;; This function uses a non-reentrant model
  2221 ;;
  2222                           
  2223                           	psect	text8
  2224   003564                     __ptext8:
  2225                           	callstack 0
  2226   003564                     _Timer0_SetCallback:
  2227                           	callstack 22
  2228   003564                     
  2229                           ;Timer0.c: 33:     Timer0_Callback = callback;
  2230   003564  C06C  F0CE         	movff	Timer0_SetCallback@callback,_Timer0_Callback
  2231   003568  C06D  F0CF         	movff	Timer0_SetCallback@callback+1,_Timer0_Callback+1
  2232   00356C  0012               	return		;funcret
  2233   00356E                     __end_of_Timer0_SetCallback:
  2234                           	callstack 0
  2235                           
  2236 ;; *************** function _Timer0_Initialize *****************
  2237 ;; Defined at:
  2238 ;;		line 5 in file "Timer0.c"
  2239 ;; Parameters:    Size  Location     Type
  2240 ;;		None
  2241 ;; Auto vars:     Size  Location     Type
  2242 ;;		None
  2243 ;; Return value:  Size  Location     Type
  2244 ;;                  1    wreg      void 
  2245 ;; Registers used:
  2246 ;;		wreg, status,2
  2247 ;; Tracked objects:
  2248 ;;		On entry : 0/0
  2249 ;;		On exit  : 0/0
  2250 ;;		Unchanged: 0/0
  2251 ;; Data sizes:     COMRAM   BANK0   BANK1   BANK2   BANK3   BANK4   BANK5   BANK6   BANK7   BANK8   BANK9  BANK10  BANK1
      +1  BANK12  BANK13  BANK14  BANK15
  2252 ;;      Params:         0       0       0       0       0       0       0       0       0       0       0       0       
      +0       0       0       0       0
  2253 ;;      Locals:         0       0       0       0       0       0       0       0       0       0       0       0       
      +0       0       0       0       0
  2254 ;;      Temps:          0       0       0       0       0       0       0       0       0       0       0       0       
      +0       0       0       0       0
  2255 ;;      Totals:         0       0       0       0       0       0       0       0       0       0       0       0       
      +0       0       0       0       0
  2256 ;;Total ram usage:        0 bytes
  2257 ;; Hardware stack levels used: 1
  2258 ;; Hardware stack levels required when called: 8
  2259 ;; This function calls:
  2260 ;;		Nothing
  2261 ;; This function is called by:
  2262 ;;		_main
  2263 ;; This function uses a non-reentrant model
  2264 ;;
  2265                           
  2266                           	psect	text9
  2267   0034E4                     __ptext9:
  2268                           	callstack 0
  2269   0034E4                     _Timer0_Initialize:
  2270                           	callstack 22
  2271   0034E4                     
  2272                           ;Timer0.c: 8:     T0CONbits.TMR0ON = 0;
  2273   0034E4  9ED5               	bcf	213,7,c	;volatile
  2274                           
  2275                           ;Timer0.c: 9:     T0CONbits.PSA = 0;
  2276   0034E6  96D5               	bcf	213,3,c	;volatile
  2277                           
  2278                           ;Timer0.c: 10:     T0CONbits.T0CS = 0;
  2279   0034E8  9AD5               	bcf	213,5,c	;volatile
  2280   0034EA                     
  2281                           ;Timer0.c: 12:     T0CONbits.T0PS = 0b111;
  2282   0034EA  0E07               	movlw	7
  2283   0034EC  12D5               	iorwf	213,f,c	;volatile
  2284   0034EE                     
  2285                           ;Timer0.c: 13:     T0CONbits.T08BIT = 0;
  2286   0034EE  9CD5               	bcf	213,6,c	;volatile
  2287                           
  2288                           ;Timer0.c: 14:     TMR0H = (0xE1);
  2289   0034F0  0EE1               	movlw	225
  2290   0034F2  6ED7               	movwf	215,c	;volatile
  2291                           
  2292                           ;Timer0.c: 15:     TMR0L = (0x6B);
  2293   0034F4  0E6B               	movlw	107
  2294   0034F6  6ED6               	movwf	214,c	;volatile
  2295   0034F8                     
  2296                           ;Timer0.c: 16:     INTCONbits.TMR0IF = 0;
  2297   0034F8  94F2               	bcf	242,2,c	;volatile
  2298   0034FA                     
  2299                           ;Timer0.c: 17:     INTCONbits.TMR0IE = 1;
  2300   0034FA  8AF2               	bsf	242,5,c	;volatile
  2301   0034FC                     
  2302                           ;Timer0.c: 18:     T0CONbits.TMR0ON = 1;
  2303   0034FC  8ED5               	bsf	213,7,c	;volatile
  2304   0034FE  0012               	return		;funcret
  2305   003500                     __end_of_Timer0_Initialize:
  2306                           	callstack 0
  2307                           
  2308 ;; *************** function _SYSTEM_Initialize *****************
  2309 ;; Defined at:
  2310 ;;		line 39 in file "mcc_generated_files/system/src/system.c"
  2311 ;; Parameters:    Size  Location     Type
  2312 ;;		None
  2313 ;; Auto vars:     Size  Location     Type
  2314 ;;		None
  2315 ;; Return value:  Size  Location     Type
  2316 ;;                  1    wreg      void 
  2317 ;; Registers used:
  2318 ;;		wreg, status,2, status,0, cstack
  2319 ;; Tracked objects:
  2320 ;;		On entry : 0/0
  2321 ;;		On exit  : 0/0
  2322 ;;		Unchanged: 0/0
  2323 ;; Data sizes:     COMRAM   BANK0   BANK1   BANK2   BANK3   BANK4   BANK5   BANK6   BANK7   BANK8   BANK9  BANK10  BANK1
      +1  BANK12  BANK13  BANK14  BANK15
  2324 ;;      Params:         0       0       0       0       0       0       0       0       0       0       0       0       
      +0       0       0       0       0
  2325 ;;      Locals:         0       0       0       0       0       0       0       0       0       0       0       0       
      +0       0       0       0       0
  2326 ;;      Temps:          0       0       0       0       0       0       0       0       0       0       0       0       
      +0       0       0       0       0
  2327 ;;      Totals:         0       0       0       0       0       0       0       0       0       0       0       0       
      +0       0       0       0       0
  2328 ;;Total ram usage:        0 bytes
  2329 ;; Hardware stack levels used: 1
  2330 ;; Hardware stack levels required when called: 10
  2331 ;; This function calls:
  2332 ;;		_ADC_Initialize
  2333 ;;		_CLOCK_Initialize
  2334 ;;		_EUSART_Initialize
  2335 ;;		_INTERRUPT_Initialize
  2336 ;;		_PIN_MANAGER_Initialize
  2337 ;; This function is called by:
  2338 ;;		_main
  2339 ;; This function uses a non-reentrant model
  2340 ;;
  2341                           
  2342                           	psect	text10
  2343   003530                     __ptext10:
  2344                           	callstack 0
  2345   003530                     _SYSTEM_Initialize:
  2346                           	callstack 20
  2347   003530                     
  2348                           ;mcc_generated_files/system/src/system.c: 41:     CLOCK_Initialize();
  2349   003530  ECC6  F01A         	call	_CLOCK_Initialize	;wreg free
  2350                           
  2351                           ;mcc_generated_files/system/src/system.c: 42:     PIN_MANAGER_Initialize();
  2352   003534  EC02  F01A         	call	_PIN_MANAGER_Initialize	;wreg free
  2353                           
  2354                           ;mcc_generated_files/system/src/system.c: 43:     ADC_Initialize();
  2355   003538  EC80  F01A         	call	_ADC_Initialize	;wreg free
  2356   00353C                     
  2357                           ;mcc_generated_files/system/src/system.c: 44:     EUSART_Initialize();
  2358   00353C  EC8D  F019         	call	_EUSART_Initialize	;wreg free
  2359   003540                     
  2360                           ;mcc_generated_files/system/src/system.c: 45:     INTERRUPT_Initialize();
  2361   003540  ECC9  F019         	call	_INTERRUPT_Initialize	;wreg free
  2362   003544  0012               	return		;funcret
  2363   003546                     __end_of_SYSTEM_Initialize:
  2364                           	callstack 0
  2365                           
  2366 ;; *************** function _PIN_MANAGER_Initialize *****************
  2367 ;; Defined at:
  2368 ;;		line 38 in file "mcc_generated_files/system/src/pins.c"
  2369 ;; Parameters:    Size  Location     Type
  2370 ;;		None
  2371 ;; Auto vars:     Size  Location     Type
  2372 ;;		None
  2373 ;; Return value:  Size  Location     Type
  2374 ;;                  1    wreg      void 
  2375 ;; Registers used:
  2376 ;;		wreg, status,2
  2377 ;; Tracked objects:
  2378 ;;		On entry : 0/0
  2379 ;;		On exit  : 0/0
  2380 ;;		Unchanged: 0/0
  2381 ;; Data sizes:     COMRAM   BANK0   BANK1   BANK2   BANK3   BANK4   BANK5   BANK6   BANK7   BANK8   BANK9  BANK10  BANK1
      +1  BANK12  BANK13  BANK14  BANK15
  2382 ;;      Params:         0       0       0       0       0       0       0       0       0       0       0       0       
      +0       0       0       0       0
  2383 ;;      Locals:         0       0       0       0       0       0       0       0       0       0       0       0       
      +0       0       0       0       0
  2384 ;;      Temps:          0       0       0       0       0       0       0       0       0       0       0       0       
      +0       0       0       0       0
  2385 ;;      Totals:         0       0       0       0       0       0       0       0       0       0       0       0       
      +0       0       0       0       0
  2386 ;;Total ram usage:        0 bytes
  2387 ;; Hardware stack levels used: 1
  2388 ;; Hardware stack levels required when called: 8
  2389 ;; This function calls:
  2390 ;;		Nothing
  2391 ;; This function is called by:
  2392 ;;		_SYSTEM_Initialize
  2393 ;; This function uses a non-reentrant model
  2394 ;;
  2395                           
  2396                           	psect	text11
  2397   003404                     __ptext11:
  2398                           	callstack 0
  2399   003404                     _PIN_MANAGER_Initialize:
  2400                           	callstack 21
  2401   003404                     
  2402                           ;mcc_generated_files/system/src/pins.c: 43:     LATA = 0x0;
  2403   003404  0E00               	movlw	0
  2404   003406  6E89               	movwf	137,c	;volatile
  2405                           
  2406                           ;mcc_generated_files/system/src/pins.c: 44:     LATB = 0x0;
  2407   003408  0E00               	movlw	0
  2408   00340A  6E8A               	movwf	138,c	;volatile
  2409                           
  2410                           ;mcc_generated_files/system/src/pins.c: 45:     LATC = 0x0;
  2411   00340C  0E00               	movlw	0
  2412   00340E  6E8B               	movwf	139,c	;volatile
  2413                           
  2414                           ;mcc_generated_files/system/src/pins.c: 46:     LATD = 0x0;
  2415   003410  0E00               	movlw	0
  2416   003412  6E8C               	movwf	140,c	;volatile
  2417                           
  2418                           ;mcc_generated_files/system/src/pins.c: 47:     LATE = 0x0;
  2419   003414  0E00               	movlw	0
  2420   003416  6E8D               	movwf	141,c	;volatile
  2421   003418                     
  2422                           ;mcc_generated_files/system/src/pins.c: 55:     TRISA = 0xFF;
  2423   003418  6892               	setf	146,c	;volatile
  2424   00341A                     
  2425                           ;mcc_generated_files/system/src/pins.c: 56:     TRISB = 0xFF;
  2426   00341A  6893               	setf	147,c	;volatile
  2427                           
  2428                           ;mcc_generated_files/system/src/pins.c: 57:     TRISC = 0xBF;
  2429   00341C  0EBF               	movlw	191
  2430   00341E  6E94               	movwf	148,c	;volatile
  2431   003420                     
  2432                           ;mcc_generated_files/system/src/pins.c: 58:     TRISD = 0xFF;
  2433   003420  6895               	setf	149,c	;volatile
  2434                           
  2435                           ;mcc_generated_files/system/src/pins.c: 59:     TRISE = 0x7;
  2436   003422  0E07               	movlw	7
  2437   003424  6E96               	movwf	150,c	;volatile
  2438                           
  2439                           ;mcc_generated_files/system/src/pins.c: 64:     ANSELH = 0x1F;
  2440   003426  0E1F               	movlw	31
  2441   003428  6E7F               	movwf	127,c	;volatile
  2442   00342A                     
  2443                           ;mcc_generated_files/system/src/pins.c: 69:     WPUB = 0xFF;
  2444   00342A  687C               	setf	124,c	;volatile
  2445                           
  2446                           ;mcc_generated_files/system/src/pins.c: 90:     IOCB = 0x0;
  2447   00342C  0E00               	movlw	0
  2448   00342E  6E7D               	movwf	125,c	;volatile
  2449   003430                     
  2450                           ;mcc_generated_files/system/src/pins.c: 94:     INTCONbits.RBIE = 1;
  2451   003430  86F2               	bsf	242,3,c	;volatile
  2452   003432  0012               	return		;funcret
  2453   003434                     __end_of_PIN_MANAGER_Initialize:
  2454                           	callstack 0
  2455                           
  2456 ;; *************** function _INTERRUPT_Initialize *****************
  2457 ;; Defined at:
  2458 ;;		line 42 in file "mcc_generated_files/system/src/interrupt.c"
  2459 ;; Parameters:    Size  Location     Type
  2460 ;;		None
  2461 ;; Auto vars:     Size  Location     Type
  2462 ;;		None
  2463 ;; Return value:  Size  Location     Type
  2464 ;;                  1    wreg      void 
  2465 ;; Registers used:
  2466 ;;		wreg, status,2, status,0, cstack
  2467 ;; Tracked objects:
  2468 ;;		On entry : 0/0
  2469 ;;		On exit  : 0/0
  2470 ;;		Unchanged: 0/0
  2471 ;; Data sizes:     COMRAM   BANK0   BANK1   BANK2   BANK3   BANK4   BANK5   BANK6   BANK7   BANK8   BANK9  BANK10  BANK1
      +1  BANK12  BANK13  BANK14  BANK15
  2472 ;;      Params:         0       0       0       0       0       0       0       0       0       0       0       0       
      +0       0       0       0       0
  2473 ;;      Locals:         0       0       0       0       0       0       0       0       0       0       0       0       
      +0       0       0       0       0
  2474 ;;      Temps:          0       0       0       0       0       0       0       0       0       0       0       0       
      +0       0       0       0       0
  2475 ;;      Totals:         0       0       0       0       0       0       0       0       0       0       0       0       
      +0       0       0       0       0
  2476 ;;Total ram usage:        0 bytes
  2477 ;; Hardware stack levels used: 1
  2478 ;; Hardware stack levels required when called: 9
  2479 ;; This function calls:
  2480 ;;		_INT0_SetInterruptHandler
  2481 ;;		_INT1_SetInterruptHandler
  2482 ;;		_INT2_SetInterruptHandler
  2483 ;; This function is called by:
  2484 ;;		_SYSTEM_Initialize
  2485 ;; This function uses a non-reentrant model
  2486 ;;
  2487                           
  2488                           	psect	text12
  2489   003392                     __ptext12:
  2490                           	callstack 0
  2491   003392                     _INTERRUPT_Initialize:
  2492                           	callstack 20
  2493   003392                     
  2494                           ;mcc_generated_files/system/src/interrupt.c: 45:     RCONbits.IPEN = 0;
  2495   003392  9ED0               	bcf	208,7,c	;volatile
  2496                           
  2497                           ;mcc_generated_files/system/src/interrupt.c: 49:     (INTCONbits.INT0IF = 0);
  2498   003394  92F2               	bcf	242,1,c	;volatile
  2499                           
  2500                           ;mcc_generated_files/system/src/interrupt.c: 50:     (INTCON2bits.INTEDG0 = 1);
  2501   003396  8CF1               	bsf	241,6,c	;volatile
  2502   003398                     
  2503                           ;mcc_generated_files/system/src/interrupt.c: 52:     INT0_SetInterruptHandler(INT0_Defau
      +                          ltInterruptHandler);
  2504   003398  0E00               	movlw	0
  2505   00339A  0100               	movlb	0	; () banked
  2506   00339C  6F6C               	movwf	INT0_SetInterruptHandler@InterruptHandler& (0+255),b
  2507   00339E  0E00               	movlw	0
  2508   0033A0  6F6D               	movwf	(INT0_SetInterruptHandler@InterruptHandler+1)& (0+255),b
  2509   0033A2  ECC1  F01A         	call	_INT0_SetInterruptHandler	;wreg free
  2510   0033A6                     
  2511                           ;mcc_generated_files/system/src/interrupt.c: 57:     (INTCON3bits.INT1IF = 0);
  2512   0033A6  90F0               	bcf	240,0,c	;volatile
  2513   0033A8                     
  2514                           ;mcc_generated_files/system/src/interrupt.c: 58:     (INTCON2bits.INTEDG1 = 1);
  2515   0033A8  8AF1               	bsf	241,5,c	;volatile
  2516                           
  2517                           ;mcc_generated_files/system/src/interrupt.c: 60:     INT1_SetInterruptHandler(INT1_Defau
      +                          ltInterruptHandler);
  2518   0033AA  0E00               	movlw	0
  2519   0033AC  0100               	movlb	0	; () banked
  2520   0033AE  6F6C               	movwf	INT1_SetInterruptHandler@InterruptHandler& (0+255),b
  2521   0033B0  0E00               	movlw	0
  2522   0033B2  6F6D               	movwf	(INT1_SetInterruptHandler@InterruptHandler+1)& (0+255),b
  2523   0033B4  ECBC  F01A         	call	_INT1_SetInterruptHandler	;wreg free
  2524   0033B8                     
  2525                           ;mcc_generated_files/system/src/interrupt.c: 65:     (INTCON3bits.INT2IF = 0);
  2526   0033B8  92F0               	bcf	240,1,c	;volatile
  2527   0033BA                     
  2528                           ;mcc_generated_files/system/src/interrupt.c: 66:     (INTCON2bits.INTEDG2 = 1);
  2529   0033BA  88F1               	bsf	241,4,c	;volatile
  2530                           
  2531                           ;mcc_generated_files/system/src/interrupt.c: 68:     INT2_SetInterruptHandler(INT2_Defau
      +                          ltInterruptHandler);
  2532   0033BC  0E00               	movlw	0
  2533   0033BE  0100               	movlb	0	; () banked
  2534   0033C0  6F6C               	movwf	INT2_SetInterruptHandler@InterruptHandler& (0+255),b
  2535   0033C2  0E00               	movlw	0
  2536   0033C4  6F6D               	movwf	(INT2_SetInterruptHandler@InterruptHandler+1)& (0+255),b
  2537   0033C6  ECB7  F01A         	call	_INT2_SetInterruptHandler	;wreg free
  2538   0033CA  0012               	return		;funcret
  2539   0033CC                     __end_of_INTERRUPT_Initialize:
  2540                           	callstack 0
  2541                           
  2542 ;; *************** function _INT2_SetInterruptHandler *****************
  2543 ;; Defined at:
  2544 ;;		line 144 in file "mcc_generated_files/system/src/interrupt.c"
  2545 ;; Parameters:    Size  Location     Type
  2546 ;;  InterruptHan    2   12[BANK0 ] PTR FTN()void 
  2547 ;;		 -> INT2_DefaultInterruptHandler(1), 
  2548 ;; Auto vars:     Size  Location     Type
  2549 ;;		None
  2550 ;; Return value:  Size  Location     Type
  2551 ;;                  1    wreg      void 
  2552 ;; Registers used:
  2553 ;;		wreg, status,2, status,0
  2554 ;; Tracked objects:
  2555 ;;		On entry : 0/0
  2556 ;;		On exit  : 0/0
  2557 ;;		Unchanged: 0/0
  2558 ;; Data sizes:     COMRAM   BANK0   BANK1   BANK2   BANK3   BANK4   BANK5   BANK6   BANK7   BANK8   BANK9  BANK10  BANK1
      +1  BANK12  BANK13  BANK14  BANK15
  2559 ;;      Params:         0       2       0       0       0       0       0       0       0       0       0       0       
      +0       0       0       0       0
  2560 ;;      Locals:         0       0       0       0       0       0       0       0       0       0       0       0       
      +0       0       0       0       0
  2561 ;;      Temps:          0       0       0       0       0       0       0       0       0       0       0       0       
      +0       0       0       0       0
  2562 ;;      Totals:         0       2       0       0       0       0       0       0       0       0       0       0       
      +0       0       0       0       0
  2563 ;;Total ram usage:        2 bytes
  2564 ;; Hardware stack levels used: 1
  2565 ;; Hardware stack levels required when called: 8
  2566 ;; This function calls:
  2567 ;;		Nothing
  2568 ;; This function is called by:
  2569 ;;		_INTERRUPT_Initialize
  2570 ;; This function uses a non-reentrant model
  2571 ;;
  2572                           
  2573                           	psect	text13
  2574   00356E                     __ptext13:
  2575                           	callstack 0
  2576   00356E                     _INT2_SetInterruptHandler:
  2577                           	callstack 20
  2578   00356E                     
  2579                           ;mcc_generated_files/system/src/interrupt.c: 145:     INT2_InterruptHandler = InterruptH
      +                          andler;
  2580   00356E  C06C  F0DC         	movff	INT2_SetInterruptHandler@InterruptHandler,_INT2_InterruptHandler
  2581   003572  C06D  F0DD         	movff	INT2_SetInterruptHandler@InterruptHandler+1,_INT2_InterruptHandler+1
  2582   003576  0012               	return		;funcret
  2583   003578                     __end_of_INT2_SetInterruptHandler:
  2584                           	callstack 0
  2585                           
  2586 ;; *************** function _INT1_SetInterruptHandler *****************
  2587 ;; Defined at:
  2588 ;;		line 118 in file "mcc_generated_files/system/src/interrupt.c"
  2589 ;; Parameters:    Size  Location     Type
  2590 ;;  InterruptHan    2   12[BANK0 ] PTR FTN()void 
  2591 ;;		 -> INT1_DefaultInterruptHandler(1), 
  2592 ;; Auto vars:     Size  Location     Type
  2593 ;;		None
  2594 ;; Return value:  Size  Location     Type
  2595 ;;                  1    wreg      void 
  2596 ;; Registers used:
  2597 ;;		wreg, status,2, status,0
  2598 ;; Tracked objects:
  2599 ;;		On entry : 0/0
  2600 ;;		On exit  : 0/0
  2601 ;;		Unchanged: 0/0
  2602 ;; Data sizes:     COMRAM   BANK0   BANK1   BANK2   BANK3   BANK4   BANK5   BANK6   BANK7   BANK8   BANK9  BANK10  BANK1
      +1  BANK12  BANK13  BANK14  BANK15
  2603 ;;      Params:         0       2       0       0       0       0       0       0       0       0       0       0       
      +0       0       0       0       0
  2604 ;;      Locals:         0       0       0       0       0       0       0       0       0       0       0       0       
      +0       0       0       0       0
  2605 ;;      Temps:          0       0       0       0       0       0       0       0       0       0       0       0       
      +0       0       0       0       0
  2606 ;;      Totals:         0       2       0       0       0       0       0       0       0       0       0       0       
      +0       0       0       0       0
  2607 ;;Total ram usage:        2 bytes
  2608 ;; Hardware stack levels used: 1
  2609 ;; Hardware stack levels required when called: 8
  2610 ;; This function calls:
  2611 ;;		Nothing
  2612 ;; This function is called by:
  2613 ;;		_INTERRUPT_Initialize
  2614 ;; This function uses a non-reentrant model
  2615 ;;
  2616                           
  2617                           	psect	text14
  2618   003578                     __ptext14:
  2619                           	callstack 0
  2620   003578                     _INT1_SetInterruptHandler:
  2621                           	callstack 20
  2622   003578                     
  2623                           ;mcc_generated_files/system/src/interrupt.c: 119:     INT1_InterruptHandler = InterruptH
      +                          andler;
  2624   003578  C06C  F0DE         	movff	INT1_SetInterruptHandler@InterruptHandler,_INT1_InterruptHandler
  2625   00357C  C06D  F0DF         	movff	INT1_SetInterruptHandler@InterruptHandler+1,_INT1_InterruptHandler+1
  2626   003580  0012               	return		;funcret
  2627   003582                     __end_of_INT1_SetInterruptHandler:
  2628                           	callstack 0
  2629                           
  2630 ;; *************** function _INT0_SetInterruptHandler *****************
  2631 ;; Defined at:
  2632 ;;		line 92 in file "mcc_generated_files/system/src/interrupt.c"
  2633 ;; Parameters:    Size  Location     Type
  2634 ;;  InterruptHan    2   12[BANK0 ] PTR FTN()void 
  2635 ;;		 -> INT0_DefaultInterruptHandler(1), 
  2636 ;; Auto vars:     Size  Location     Type
  2637 ;;		None
  2638 ;; Return value:  Size  Location     Type
  2639 ;;                  1    wreg      void 
  2640 ;; Registers used:
  2641 ;;		wreg, status,2, status,0
  2642 ;; Tracked objects:
  2643 ;;		On entry : 0/0
  2644 ;;		On exit  : 0/0
  2645 ;;		Unchanged: 0/0
  2646 ;; Data sizes:     COMRAM   BANK0   BANK1   BANK2   BANK3   BANK4   BANK5   BANK6   BANK7   BANK8   BANK9  BANK10  BANK1
      +1  BANK12  BANK13  BANK14  BANK15
  2647 ;;      Params:         0       2       0       0       0       0       0       0       0       0       0       0       
      +0       0       0       0       0
  2648 ;;      Locals:         0       0       0       0       0       0       0       0       0       0       0       0       
      +0       0       0       0       0
  2649 ;;      Temps:          0       0       0       0       0       0       0       0       0       0       0       0       
      +0       0       0       0       0
  2650 ;;      Totals:         0       2       0       0       0       0       0       0       0       0       0       0       
      +0       0       0       0       0
  2651 ;;Total ram usage:        2 bytes
  2652 ;; Hardware stack levels used: 1
  2653 ;; Hardware stack levels required when called: 8
  2654 ;; This function calls:
  2655 ;;		Nothing
  2656 ;; This function is called by:
  2657 ;;		_INTERRUPT_Initialize
  2658 ;; This function uses a non-reentrant model
  2659 ;;
  2660                           
  2661                           	psect	text15
  2662   003582                     __ptext15:
  2663                           	callstack 0
  2664   003582                     _INT0_SetInterruptHandler:
  2665                           	callstack 20
  2666   003582                     
  2667                           ;mcc_generated_files/system/src/interrupt.c: 93:     INT0_InterruptHandler = InterruptHa
      +                          ndler;
  2668   003582  C06C  F0E0         	movff	INT0_SetInterruptHandler@InterruptHandler,_INT0_InterruptHandler
  2669   003586  C06D  F0E1         	movff	INT0_SetInterruptHandler@InterruptHandler+1,_INT0_InterruptHandler+1
  2670   00358A  0012               	return		;funcret
  2671   00358C                     __end_of_INT0_SetInterruptHandler:
  2672                           	callstack 0
  2673                           
  2674 ;; *************** function _EUSART_Initialize *****************
  2675 ;; Defined at:
  2676 ;;		line 94 in file "mcc_generated_files/uart/src/eusart.c"
  2677 ;; Parameters:    Size  Location     Type
  2678 ;;		None
  2679 ;; Auto vars:     Size  Location     Type
  2680 ;;		None
  2681 ;; Return value:  Size  Location     Type
  2682 ;;                  1    wreg      void 
  2683 ;; Registers used:
  2684 ;;		wreg, status,2, status,0, cstack
  2685 ;; Tracked objects:
  2686 ;;		On entry : 0/0
  2687 ;;		On exit  : 0/0
  2688 ;;		Unchanged: 0/0
  2689 ;; Data sizes:     COMRAM   BANK0   BANK1   BANK2   BANK3   BANK4   BANK5   BANK6   BANK7   BANK8   BANK9  BANK10  BANK1
      +1  BANK12  BANK13  BANK14  BANK15
  2690 ;;      Params:         0       0       0       0       0       0       0       0       0       0       0       0       
      +0       0       0       0       0
  2691 ;;      Locals:         0       0       0       0       0       0       0       0       0       0       0       0       
      +0       0       0       0       0
  2692 ;;      Temps:          0       0       0       0       0       0       0       0       0       0       0       0       
      +0       0       0       0       0
  2693 ;;      Totals:         0       0       0       0       0       0       0       0       0       0       0       0       
      +0       0       0       0       0
  2694 ;;Total ram usage:        0 bytes
  2695 ;; Hardware stack levels used: 1
  2696 ;; Hardware stack levels required when called: 9
  2697 ;; This function calls:
  2698 ;;		_EUSART_FramingErrorCallbackRegister
  2699 ;;		_EUSART_OverrunErrorCallbackRegister
  2700 ;; This function is called by:
  2701 ;;		_SYSTEM_Initialize
  2702 ;; This function uses a non-reentrant model
  2703 ;;
  2704                           
  2705                           	psect	text16
  2706   00331A                     __ptext16:
  2707                           	callstack 0
  2708   00331A                     _EUSART_Initialize:
  2709                           	callstack 20
  2710   00331A                     
  2711                           ;mcc_generated_files/uart/src/eusart.c: 99:     BAUDCON = 0x48;
  2712   00331A  0E48               	movlw	72
  2713   00331C  6EB8               	movwf	184,c	;volatile
  2714                           
  2715                           ;mcc_generated_files/uart/src/eusart.c: 101:     RCSTA = 0x90;
  2716   00331E  0E90               	movlw	144
  2717   003320  6EAB               	movwf	171,c	;volatile
  2718                           
  2719                           ;mcc_generated_files/uart/src/eusart.c: 103:     TXSTA = 0x26;
  2720   003322  0E26               	movlw	38
  2721   003324  6EAC               	movwf	172,c	;volatile
  2722                           
  2723                           ;mcc_generated_files/uart/src/eusart.c: 105:     SPBRG = 0xA0;
  2724   003326  0EA0               	movlw	160
  2725   003328  6EAF               	movwf	175,c	;volatile
  2726                           
  2727                           ;mcc_generated_files/uart/src/eusart.c: 107:     SPBRGH = 0x1;
  2728   00332A  0E01               	movlw	1
  2729   00332C  6EB0               	movwf	176,c	;volatile
  2730   00332E                     
  2731                           ;mcc_generated_files/uart/src/eusart.c: 109:     EUSART_FramingErrorCallbackRegister(EUS
      +                          ART_DefaultFramingErrorCallback);
  2732   00332E  0E00               	movlw	0
  2733   003330  0100               	movlb	0	; () banked
  2734   003332  6F6C               	movwf	EUSART_FramingErrorCallbackRegister@callbackHandler& (0+255),b
  2735   003334  0E00               	movlw	0
  2736   003336  6F6D               	movwf	(EUSART_FramingErrorCallbackRegister@callbackHandler+1)& (0+255),b
  2737   003338  EC63  F01A         	call	_EUSART_FramingErrorCallbackRegister	;wreg free
  2738   00333C                     
  2739                           ;mcc_generated_files/uart/src/eusart.c: 110:     EUSART_OverrunErrorCallbackRegister(EUS
      +                          ART_DefaultOverrunErrorCallback);
  2740   00333C  0E00               	movlw	0
  2741   00333E  0100               	movlb	0	; () banked
  2742   003340  6F6C               	movwf	EUSART_OverrunErrorCallbackRegister@callbackHandler& (0+255),b
  2743   003342  0E00               	movlw	0
  2744   003344  6F6D               	movwf	(EUSART_OverrunErrorCallbackRegister@callbackHandler+1)& (0+255),b
  2745   003346  EC54  F01A         	call	_EUSART_OverrunErrorCallbackRegister	;wreg free
  2746                           
  2747                           ;mcc_generated_files/uart/src/eusart.c: 111:     eusartRxLastError.status = 0;
  2748   00334A  0E00               	movlw	0
  2749   00334C  0100               	movlb	0	; () banked
  2750   00334E  6FDB               	movwf	(_eusartRxLastError+1)& (0+255),b	;volatile
  2751   003350  0E00               	movlw	0
  2752   003352  6FDA               	movwf	_eusartRxLastError& (0+255),b	;volatile
  2753   003354                     
  2754                           ; BSR set to: 0
  2755   003354  0012               	return		;funcret
  2756   003356                     __end_of_EUSART_Initialize:
  2757                           	callstack 0
  2758                           
  2759 ;; *************** function _EUSART_OverrunErrorCallbackRegister *****************
  2760 ;; Defined at:
  2761 ;;		line 260 in file "mcc_generated_files/uart/src/eusart.c"
  2762 ;; Parameters:    Size  Location     Type
  2763 ;;  callbackHand    2   12[BANK0 ] PTR FTN()void 
  2764 ;;		 -> EUSART_DefaultOverrunErrorCallback(1), 
  2765 ;; Auto vars:     Size  Location     Type
  2766 ;;		None
  2767 ;; Return value:  Size  Location     Type
  2768 ;;                  1    wreg      void 
  2769 ;; Registers used:
  2770 ;;		wreg, status,2, status,0
  2771 ;; Tracked objects:
  2772 ;;		On entry : 0/0
  2773 ;;		On exit  : 0/0
  2774 ;;		Unchanged: 0/0
  2775 ;; Data sizes:     COMRAM   BANK0   BANK1   BANK2   BANK3   BANK4   BANK5   BANK6   BANK7   BANK8   BANK9  BANK10  BANK1
      +1  BANK12  BANK13  BANK14  BANK15
  2776 ;;      Params:         0       2       0       0       0       0       0       0       0       0       0       0       
      +0       0       0       0       0
  2777 ;;      Locals:         0       0       0       0       0       0       0       0       0       0       0       0       
      +0       0       0       0       0
  2778 ;;      Temps:          0       0       0       0       0       0       0       0       0       0       0       0       
      +0       0       0       0       0
  2779 ;;      Totals:         0       2       0       0       0       0       0       0       0       0       0       0       
      +0       0       0       0       0
  2780 ;;Total ram usage:        2 bytes
  2781 ;; Hardware stack levels used: 1
  2782 ;; Hardware stack levels required when called: 8
  2783 ;; This function calls:
  2784 ;;		Nothing
  2785 ;; This function is called by:
  2786 ;;		_EUSART_Initialize
  2787 ;; This function uses a non-reentrant model
  2788 ;;
  2789                           
  2790                           	psect	text17
  2791   0034A8                     __ptext17:
  2792                           	callstack 0
  2793   0034A8                     _EUSART_OverrunErrorCallbackRegister:
  2794                           	callstack 20
  2795   0034A8                     
  2796                           ;mcc_generated_files/uart/src/eusart.c: 260: void EUSART_OverrunErrorCallbackRegister(vo
      +                          id (* callbackHandler)(void));mcc_generated_files/uart/src/eusart.c: 261: {;mcc_generate
      +                          d_files/uart/src/eusart.c: 262:     if(((void*)0) != callbackHandler)
  2797   0034A8  0100               	movlb	0	; () banked
  2798   0034AA  516C               	movf	EUSART_OverrunErrorCallbackRegister@callbackHandler& (0+255),w,b
  2799   0034AC  116D               	iorwf	(EUSART_OverrunErrorCallbackRegister@callbackHandler+1)& (0+255),w,b
  2800   0034AE  B4D8               	btfsc	status,2,c
  2801   0034B0  EF5C  F01A         	goto	u3941
  2802   0034B4  EF5E  F01A         	goto	u3940
  2803   0034B8                     u3941:
  2804   0034B8  EF62  F01A         	goto	l312
  2805   0034BC                     u3940:
  2806   0034BC                     
  2807                           ; BSR set to: 0
  2808                           ;mcc_generated_files/uart/src/eusart.c: 263:     {;mcc_generated_files/uart/src/eusart.c
      +                          : 264:         EUSART_OverrunErrorHandler = callbackHandler;
  2809   0034BC  C06C  F0D6         	movff	EUSART_OverrunErrorCallbackRegister@callbackHandler,_EUSART_OverrunErrorHandler
  2810   0034C0  C06D  F0D7         	movff	EUSART_OverrunErrorCallbackRegister@callbackHandler+1,_EUSART_OverrunErrorHandler
      +                          +1
  2811   0034C4                     l312:
  2812                           
  2813                           ; BSR set to: 0
  2814   0034C4  0012               	return		;funcret
  2815   0034C6                     __end_of_EUSART_OverrunErrorCallbackRegister:
  2816                           	callstack 0
  2817                           
  2818 ;; *************** function _EUSART_FramingErrorCallbackRegister *****************
  2819 ;; Defined at:
  2820 ;;		line 252 in file "mcc_generated_files/uart/src/eusart.c"
  2821 ;; Parameters:    Size  Location     Type
  2822 ;;  callbackHand    2   12[BANK0 ] PTR FTN()void 
  2823 ;;		 -> EUSART_DefaultFramingErrorCallback(1), 
  2824 ;; Auto vars:     Size  Location     Type
  2825 ;;		None
  2826 ;; Return value:  Size  Location     Type
  2827 ;;                  1    wreg      void 
  2828 ;; Registers used:
  2829 ;;		wreg, status,2, status,0
  2830 ;; Tracked objects:
  2831 ;;		On entry : 0/0
  2832 ;;		On exit  : 0/0
  2833 ;;		Unchanged: 0/0
  2834 ;; Data sizes:     COMRAM   BANK0   BANK1   BANK2   BANK3   BANK4   BANK5   BANK6   BANK7   BANK8   BANK9  BANK10  BANK1
      +1  BANK12  BANK13  BANK14  BANK15
  2835 ;;      Params:         0       2       0       0       0       0       0       0       0       0       0       0       
      +0       0       0       0       0
  2836 ;;      Locals:         0       0       0       0       0       0       0       0       0       0       0       0       
      +0       0       0       0       0
  2837 ;;      Temps:          0       0       0       0       0       0       0       0       0       0       0       0       
      +0       0       0       0       0
  2838 ;;      Totals:         0       2       0       0       0       0       0       0       0       0       0       0       
      +0       0       0       0       0
  2839 ;;Total ram usage:        2 bytes
  2840 ;; Hardware stack levels used: 1
  2841 ;; Hardware stack levels required when called: 8
  2842 ;; This function calls:
  2843 ;;		Nothing
  2844 ;; This function is called by:
  2845 ;;		_EUSART_Initialize
  2846 ;; This function uses a non-reentrant model
  2847 ;;
  2848                           
  2849                           	psect	text18
  2850   0034C6                     __ptext18:
  2851                           	callstack 0
  2852   0034C6                     _EUSART_FramingErrorCallbackRegister:
  2853                           	callstack 20
  2854   0034C6                     
  2855                           ;mcc_generated_files/uart/src/eusart.c: 252: void EUSART_FramingErrorCallbackRegister(vo
      +                          id (* callbackHandler)(void));mcc_generated_files/uart/src/eusart.c: 253: {;mcc_generate
      +                          d_files/uart/src/eusart.c: 254:     if(((void*)0) != callbackHandler)
  2856   0034C6  0100               	movlb	0	; () banked
  2857   0034C8  516C               	movf	EUSART_FramingErrorCallbackRegister@callbackHandler& (0+255),w,b
  2858   0034CA  116D               	iorwf	(EUSART_FramingErrorCallbackRegister@callbackHandler+1)& (0+255),w,b
  2859   0034CC  B4D8               	btfsc	status,2,c
  2860   0034CE  EF6B  F01A         	goto	u3931
  2861   0034D2  EF6D  F01A         	goto	u3930
  2862   0034D6                     u3931:
  2863   0034D6  EF71  F01A         	goto	l308
  2864   0034DA                     u3930:
  2865   0034DA                     
  2866                           ; BSR set to: 0
  2867                           ;mcc_generated_files/uart/src/eusart.c: 255:     {;mcc_generated_files/uart/src/eusart.c
      +                          : 256:         EUSART_FramingErrorHandler = callbackHandler;
  2868   0034DA  C06C  F0D8         	movff	EUSART_FramingErrorCallbackRegister@callbackHandler,_EUSART_FramingErrorHandler
  2869   0034DE  C06D  F0D9         	movff	EUSART_FramingErrorCallbackRegister@callbackHandler+1,_EUSART_FramingErrorHandler
      +                          +1
  2870   0034E2                     l308:
  2871                           
  2872                           ; BSR set to: 0
  2873   0034E2  0012               	return		;funcret
  2874   0034E4                     __end_of_EUSART_FramingErrorCallbackRegister:
  2875                           	callstack 0
  2876                           
  2877 ;; *************** function _CLOCK_Initialize *****************
  2878 ;; Defined at:
  2879 ;;		line 40 in file "mcc_generated_files/system/src/clock.c"
  2880 ;; Parameters:    Size  Location     Type
  2881 ;;		None
  2882 ;; Auto vars:     Size  Location     Type
  2883 ;;		None
  2884 ;; Return value:  Size  Location     Type
  2885 ;;                  1    wreg      void 
  2886 ;; Registers used:
  2887 ;;		wreg, status,2
  2888 ;; Tracked objects:
  2889 ;;		On entry : 0/0
  2890 ;;		On exit  : 0/0
  2891 ;;		Unchanged: 0/0
  2892 ;; Data sizes:     COMRAM   BANK0   BANK1   BANK2   BANK3   BANK4   BANK5   BANK6   BANK7   BANK8   BANK9  BANK10  BANK1
      +1  BANK12  BANK13  BANK14  BANK15
  2893 ;;      Params:         0       0       0       0       0       0       0       0       0       0       0       0       
      +0       0       0       0       0
  2894 ;;      Locals:         0       0       0       0       0       0       0       0       0       0       0       0       
      +0       0       0       0       0
  2895 ;;      Temps:          0       0       0       0       0       0       0       0       0       0       0       0       
      +0       0       0       0       0
  2896 ;;      Totals:         0       0       0       0       0       0       0       0       0       0       0       0       
      +0       0       0       0       0
  2897 ;;Total ram usage:        0 bytes
  2898 ;; Hardware stack levels used: 1
  2899 ;; Hardware stack levels required when called: 8
  2900 ;; This function calls:
  2901 ;;		Nothing
  2902 ;; This function is called by:
  2903 ;;		_SYSTEM_Initialize
  2904 ;; This function uses a non-reentrant model
  2905 ;;
  2906                           
  2907                           	psect	text19
  2908   00358C                     __ptext19:
  2909                           	callstack 0
  2910   00358C                     _CLOCK_Initialize:
  2911                           	callstack 21
  2912   00358C                     
  2913                           ;mcc_generated_files/system/src/clock.c: 42:     OSCCON = (0 << 0x0)
  2914   00358C  0E70               	movlw	112
  2915   00358E  6ED3               	movwf	211,c	;volatile
  2916                           
  2917                           ;mcc_generated_files/system/src/clock.c: 46:     OSCTUNE = (0 << 0x0)
  2918   003590  0E00               	movlw	0
  2919   003592  6E9B               	movwf	155,c	;volatile
  2920   003594  0012               	return		;funcret
  2921   003596                     __end_of_CLOCK_Initialize:
  2922                           	callstack 0
  2923                           
  2924 ;; *************** function _ADC_Initialize *****************
  2925 ;; Defined at:
  2926 ;;		line 53 in file "mcc_generated_files/adc/src/adc.c"
  2927 ;; Parameters:    Size  Location     Type
  2928 ;;		None
  2929 ;; Auto vars:     Size  Location     Type
  2930 ;;		None
  2931 ;; Return value:  Size  Location     Type
  2932 ;;                  1    wreg      void 
  2933 ;; Registers used:
  2934 ;;		wreg, status,2
  2935 ;; Tracked objects:
  2936 ;;		On entry : 0/0
  2937 ;;		On exit  : 0/0
  2938 ;;		Unchanged: 0/0
  2939 ;; Data sizes:     COMRAM   BANK0   BANK1   BANK2   BANK3   BANK4   BANK5   BANK6   BANK7   BANK8   BANK9  BANK10  BANK1
      +1  BANK12  BANK13  BANK14  BANK15
  2940 ;;      Params:         0       0       0       0       0       0       0       0       0       0       0       0       
      +0       0       0       0       0
  2941 ;;      Locals:         0       0       0       0       0       0       0       0       0       0       0       0       
      +0       0       0       0       0
  2942 ;;      Temps:          0       0       0       0       0       0       0       0       0       0       0       0       
      +0       0       0       0       0
  2943 ;;      Totals:         0       0       0       0       0       0       0       0       0       0       0       0       
      +0       0       0       0       0
  2944 ;;Total ram usage:        0 bytes
  2945 ;; Hardware stack levels used: 1
  2946 ;; Hardware stack levels required when called: 8
  2947 ;; This function calls:
  2948 ;;		Nothing
  2949 ;; This function is called by:
  2950 ;;		_SYSTEM_Initialize
  2951 ;; This function uses a non-reentrant model
  2952 ;;
  2953                           
  2954                           	psect	text20
  2955   003500                     __ptext20:
  2956                           	callstack 0
  2957   003500                     _ADC_Initialize:
  2958                           	callstack 21
  2959   003500                     
  2960                           ;mcc_generated_files/adc/src/adc.c: 55:     ADCON1 = 0x0;
  2961   003500  0E00               	movlw	0
  2962   003502  6EC1               	movwf	193,c	;volatile
  2963                           
  2964                           ;mcc_generated_files/adc/src/adc.c: 57:     ADCON2 = 0x00;
  2965   003504  0E00               	movlw	0
  2966   003506  6EC0               	movwf	192,c	;volatile
  2967                           
  2968                           ;mcc_generated_files/adc/src/adc.c: 60:     ADRESL = 0x0;
  2969   003508  0E00               	movlw	0
  2970   00350A  6EC3               	movwf	195,c	;volatile
  2971                           
  2972                           ;mcc_generated_files/adc/src/adc.c: 63:     ADRESH = 0x0;
  2973   00350C  0E00               	movlw	0
  2974   00350E  6EC4               	movwf	196,c	;volatile
  2975                           
  2976                           ;mcc_generated_files/adc/src/adc.c: 66:     ADCON0 = 0x3;
  2977   003510  0E03               	movlw	3
  2978   003512  6EC2               	movwf	194,c	;volatile
  2979   003514                     
  2980                           ;mcc_generated_files/adc/src/adc.c: 69:     PIR1bits.ADIF = 0;
  2981   003514  9C9E               	bcf	158,6,c	;volatile
  2982   003516  0012               	return		;funcret
  2983   003518                     __end_of_ADC_Initialize:
  2984                           	callstack 0
  2985                           
  2986 ;; *************** function _LCD_WriteString *****************
  2987 ;; Defined at:
  2988 ;;		line 32 in file "lcd.c"
  2989 ;; Parameters:    Size  Location     Type
  2990 ;;  str             2   17[BANK0 ] PTR const unsigned char 
  2991 ;;		 -> STR_6(7), STR_5(5), main@bpmstr(6), main@str(6), 
  2992 ;;		 -> STR_2(14), 
  2993 ;; Auto vars:     Size  Location     Type
  2994 ;;		None
  2995 ;; Return value:  Size  Location     Type
  2996 ;;                  1    wreg      void 
  2997 ;; Registers used:
  2998 ;;		wreg, fsr0l, fsr0h, status,2, status,0, tblptrl, tblptrh, tblptru, cstack
  2999 ;; Tracked objects:
  3000 ;;		On entry : 0/0
  3001 ;;		On exit  : 0/0
  3002 ;;		Unchanged: 0/0
  3003 ;; Data sizes:     COMRAM   BANK0   BANK1   BANK2   BANK3   BANK4   BANK5   BANK6   BANK7   BANK8   BANK9  BANK10  BANK1
      +1  BANK12  BANK13  BANK14  BANK15
  3004 ;;      Params:         0       2       0       0       0       0       0       0       0       0       0       0       
      +0       0       0       0       0
  3005 ;;      Locals:         0       0       0       0       0       0       0       0       0       0       0       0       
      +0       0       0       0       0
  3006 ;;      Temps:          0       0       0       0       0       0       0       0       0       0       0       0       
      +0       0       0       0       0
  3007 ;;      Totals:         0       2       0       0       0       0       0       0       0       0       0       0       
      +0       0       0       0       0
  3008 ;;Total ram usage:        2 bytes
  3009 ;; Hardware stack levels used: 1
  3010 ;; Hardware stack levels required when called: 11
  3011 ;; This function calls:
  3012 ;;		_LCD_WriteChar
  3013 ;; This function is called by:
  3014 ;;		_main
  3015 ;; This function uses a non-reentrant model
  3016 ;;
  3017                           
  3018                           	psect	text21
  3019   0030BA                     __ptext21:
  3020                           	callstack 0
  3021   0030BA                     _LCD_WriteString:
  3022                           	callstack 19
  3023   0030BA                     
  3024                           ;lcd.c: 33:     while (*str) {
  3025   0030BA  EF75  F018         	goto	l4657
  3026   0030BE                     l4653:
  3027                           
  3028                           ;lcd.c: 34:         LCD_WriteChar(*str++);
  3029   0030BE  C071  FFF6         	movff	LCD_WriteString@str,tblptrl
  3030   0030C2  C072  FFF7         	movff	LCD_WriteString@str+1,tblptrh
  3031   0030C6  0E00               	movlw	low (__smallconst shr (0+16))
  3032   0030C8  6EF8               	movwf	tblptru,c
  3033   0030CA  0E0F               	movlw	(high __ramtop+-1)
  3034   0030CC  64F7               	cpfsgt	tblptrh,c
  3035   0030CE  D003               	bra	u4667
  3036   0030D0  0008               	tblrd		*
  3037   0030D2  50F5               	movf	tablat,w,c
  3038   0030D4  D005               	bra	u4660
  3039   0030D6                     u4667:
  3040   0030D6  CFF6 FFE9          	movff	tblptrl,fsr0l
  3041   0030DA  CFF7 FFEA          	movff	tblptrh,fsr0h
  3042   0030DE  50EF               	movf	indf0,w,c
  3043   0030E0                     u4660:
  3044   0030E0  ECB5  F017         	call	_LCD_WriteChar
  3045   0030E4  0100               	movlb	0	; () banked
  3046   0030E6  4B71               	infsnz	LCD_WriteString@str& (0+255),f,b
  3047   0030E8  2B72               	incf	(LCD_WriteString@str+1)& (0+255),f,b
  3048   0030EA                     l4657:
  3049                           
  3050                           ;lcd.c: 33:     while (*str) {
  3051   0030EA  C071  FFF6         	movff	LCD_WriteString@str,tblptrl
  3052   0030EE  C072  FFF7         	movff	LCD_WriteString@str+1,tblptrh
  3053   0030F2  0E00               	movlw	low (__smallconst shr (0+16))
  3054   0030F4  6EF8               	movwf	tblptru,c
  3055   0030F6  0E0F               	movlw	(high __ramtop+-1)
  3056   0030F8  64F7               	cpfsgt	tblptrh,c
  3057   0030FA  D003               	bra	u4677
  3058   0030FC  0008               	tblrd		*
  3059   0030FE  50F5               	movf	tablat,w,c
  3060   003100  D005               	bra	u4670
  3061   003102                     u4677:
  3062   003102  CFF6 FFE9          	movff	tblptrl,fsr0l
  3063   003106  CFF7 FFEA          	movff	tblptrh,fsr0h
  3064   00310A  50EF               	movf	indf0,w,c
  3065   00310C                     u4670:
  3066   00310C  0900               	iorlw	0
  3067   00310E  A4D8               	btfss	status,2,c
  3068   003110  EF8C  F018         	goto	u4681
  3069   003114  EF8E  F018         	goto	u4680
  3070   003118                     u4681:
  3071   003118  EF5F  F018         	goto	l4653
  3072   00311C                     u4680:
  3073   00311C  0012               	return		;funcret
  3074   00311E                     __end_of_LCD_WriteString:
  3075                           	callstack 0
  3076                           
  3077 ;; *************** function _LCD_WriteChar *****************
  3078 ;; Defined at:
  3079 ;;		line 18 in file "lcd.c"
  3080 ;; Parameters:    Size  Location     Type
  3081 ;;  data            1    wreg     unsigned char 
  3082 ;; Auto vars:     Size  Location     Type
  3083 ;;  data            1   16[BANK0 ] unsigned char 
  3084 ;; Return value:  Size  Location     Type
  3085 ;;                  1    wreg      void 
  3086 ;; Registers used:
  3087 ;;		wreg, status,2, status,0, cstack
  3088 ;; Tracked objects:
  3089 ;;		On entry : 0/0
  3090 ;;		On exit  : 0/0
  3091 ;;		Unchanged: 0/0
  3092 ;; Data sizes:     COMRAM   BANK0   BANK1   BANK2   BANK3   BANK4   BANK5   BANK6   BANK7   BANK8   BANK9  BANK10  BANK1
      +1  BANK12  BANK13  BANK14  BANK15
  3093 ;;      Params:         0       0       0       0       0       0       0       0       0       0       0       0       
      +0       0       0       0       0
  3094 ;;      Locals:         0       1       0       0       0       0       0       0       0       0       0       0       
      +0       0       0       0       0
  3095 ;;      Temps:          0       1       0       0       0       0       0       0       0       0       0       0       
      +0       0       0       0       0
  3096 ;;      Totals:         0       2       0       0       0       0       0       0       0       0       0       0       
      +0       0       0       0       0
  3097 ;;Total ram usage:        2 bytes
  3098 ;; Hardware stack levels used: 1
  3099 ;; Hardware stack levels required when called: 10
  3100 ;; This function calls:
  3101 ;;		_MCP23S09_Write
  3102 ;; This function is called by:
  3103 ;;		_LCD_WriteString
  3104 ;; This function uses a non-reentrant model
  3105 ;;
  3106                           
  3107                           	psect	text22
  3108   002F6A                     __ptext22:
  3109                           	callstack 0
  3110   002F6A                     _LCD_WriteChar:
  3111                           	callstack 19
  3112                           
  3113                           ;incstack = 0
  3114                           ;LCD_WriteChar@data stored from wreg
  3115   002F6A  0100               	movlb	0	; () banked
  3116   002F6C  6F70               	movwf	LCD_WriteChar@data& (0+255),b
  3117   002F6E                     
  3118                           ;lcd.c: 20:     MCP23S09_Write(0x09,( (data & 0xF0) | 0x05));
  3119   002F6E  0100               	movlb	0	; () banked
  3120   002F70  5170               	movf	LCD_WriteChar@data& (0+255),w,b
  3121   002F72  0BF0               	andlw	240
  3122   002F74  0905               	iorlw	5
  3123   002F76  6F6D               	movwf	MCP23S09_Write@data& (0+255),b
  3124   002F78  0E09               	movlw	9
  3125   002F7A  EC44  F01A         	call	_MCP23S09_Write
  3126   002F7E                     
  3127                           ;lcd.c: 21:     _delay((unsigned long)((1)*(16000000/4000000.0)));
  3128   002F7E  F000 F000          	nop2		;2 cycle nop
  3129   002F82  F000 F000          	nop2		;2 cycle nop
  3130                           
  3131                           ;lcd.c: 22:     MCP23S09_Write(0x09, ((data & 0xF0) |0x01));
  3132   002F86  0100               	movlb	0	; () banked
  3133   002F88  5170               	movf	LCD_WriteChar@data& (0+255),w,b
  3134   002F8A  0BF0               	andlw	240
  3135   002F8C  0901               	iorlw	1
  3136   002F8E  6F6D               	movwf	MCP23S09_Write@data& (0+255),b
  3137   002F90  0E09               	movlw	9
  3138   002F92  EC44  F01A         	call	_MCP23S09_Write
  3139   002F96                     
  3140                           ;lcd.c: 23:     _delay((unsigned long)((200)*(16000000/4000000.0)));
  3141   002F96  0EA0               	movlw	160
  3142   002F98                     u4777:
  3143   002F98  F000 F000          	nop2	
  3144   002F9C  2EE8               	decfsz	wreg,f,c
  3145   002F9E  D7FC               	bra	u4777
  3146   002FA0                     
  3147                           ;lcd.c: 26:     MCP23S09_Write(0x09, (((data << 4) & 0xF0) | 0x05));
  3148   002FA0  0100               	movlb	0	; () banked
  3149   002FA2  3970               	swapf	LCD_WriteChar@data& (0+255),w,b
  3150   002FA4  0BF0               	andlw	240
  3151   002FA6  0BF0               	andlw	240
  3152   002FA8  0905               	iorlw	5
  3153   002FAA  6F6D               	movwf	MCP23S09_Write@data& (0+255),b
  3154   002FAC  0E09               	movlw	9
  3155   002FAE  EC44  F01A         	call	_MCP23S09_Write
  3156   002FB2                     
  3157                           ;lcd.c: 27:     _delay((unsigned long)((1)*(16000000/4000000.0)));
  3158   002FB2  F000 F000          	nop2		;2 cycle nop
  3159   002FB6  F000 F000          	nop2		;2 cycle nop
  3160   002FBA                     
  3161                           ;lcd.c: 28:     MCP23S09_Write(0x09, (((data << 4) & 0xF0) |0x01));
  3162   002FBA  0100               	movlb	0	; () banked
  3163   002FBC  3970               	swapf	LCD_WriteChar@data& (0+255),w,b
  3164   002FBE  0BF0               	andlw	240
  3165   002FC0  0BF0               	andlw	240
  3166   002FC2  0901               	iorlw	1
  3167   002FC4  6F6D               	movwf	MCP23S09_Write@data& (0+255),b
  3168   002FC6  0E09               	movlw	9
  3169   002FC8  EC44  F01A         	call	_MCP23S09_Write
  3170   002FCC                     
  3171                           ;lcd.c: 29:     _delay((unsigned long)((2)*(16000000/4000.0)));
  3172   002FCC  0E0B               	movlw	11
  3173   002FCE  0100               	movlb	0	; () banked
  3174   002FD0  6F6F               	movwf	??_LCD_WriteChar& (0+255),b
  3175   002FD2  0E62               	movlw	98
  3176   002FD4                     u4787:
  3177   002FD4  2EE8               	decfsz	wreg,f,c
  3178   002FD6  D7FE               	bra	u4787
  3179   002FD8  2F6F               	decfsz	??_LCD_WriteChar& (0+255),f,b
  3180   002FDA  D7FC               	bra	u4787
  3181   002FDC  0000               	nop	
  3182   002FDE  0012               	return		;funcret
  3183   002FE0                     __end_of_LCD_WriteChar:
  3184                           	callstack 0
  3185                           
  3186 ;; *************** function _LCD_Init *****************
  3187 ;; Defined at:
  3188 ;;		line 38 in file "lcd.c"
  3189 ;; Parameters:    Size  Location     Type
  3190 ;;		None
  3191 ;; Auto vars:     Size  Location     Type
  3192 ;;		None
  3193 ;; Return value:  Size  Location     Type
  3194 ;;                  1    wreg      void 
  3195 ;; Registers used:
  3196 ;;		wreg, status,2, status,0, cstack
  3197 ;; Tracked objects:
  3198 ;;		On entry : 0/0
  3199 ;;		On exit  : 0/0
  3200 ;;		Unchanged: 0/0
  3201 ;; Data sizes:     COMRAM   BANK0   BANK1   BANK2   BANK3   BANK4   BANK5   BANK6   BANK7   BANK8   BANK9  BANK10  BANK1
      +1  BANK12  BANK13  BANK14  BANK15
  3202 ;;      Params:         0       0       0       0       0       0       0       0       0       0       0       0       
      +0       0       0       0       0
  3203 ;;      Locals:         0       0       0       0       0       0       0       0       0       0       0       0       
      +0       0       0       0       0
  3204 ;;      Temps:          0       1       0       0       0       0       0       0       0       0       0       0       
      +0       0       0       0       0
  3205 ;;      Totals:         0       1       0       0       0       0       0       0       0       0       0       0       
      +0       0       0       0       0
  3206 ;;Total ram usage:        1 bytes
  3207 ;; Hardware stack levels used: 1
  3208 ;; Hardware stack levels required when called: 11
  3209 ;; This function calls:
  3210 ;;		_LCD_Command
  3211 ;;		_MCP23S09_Init
  3212 ;; This function is called by:
  3213 ;;		_main
  3214 ;; This function uses a non-reentrant model
  3215 ;;
  3216                           
  3217                           	psect	text23
  3218   002DD2                     __ptext23:
  3219                           	callstack 0
  3220   002DD2                     _LCD_Init:
  3221                           	callstack 19
  3222   002DD2                     
  3223                           ;lcd.c: 39:     MCP23S09_Init();
  3224   002DD2  EC1A  F01A         	call	_MCP23S09_Init	;wreg free
  3225   002DD6                     
  3226                           ;lcd.c: 40:     _delay((unsigned long)((20)*(16000000/4000.0)));
  3227   002DD6  0E68               	movlw	104
  3228   002DD8  0100               	movlb	0	; () banked
  3229   002DDA  6F71               	movwf	??_LCD_Init& (0+255),b
  3230   002DDC  0EE4               	movlw	228
  3231   002DDE                     u4797:
  3232   002DDE  2EE8               	decfsz	wreg,f,c
  3233   002DE0  D7FE               	bra	u4797
  3234   002DE2  2F71               	decfsz	??_LCD_Init& (0+255),f,b
  3235   002DE4  D7FC               	bra	u4797
  3236   002DE6  0000               	nop	
  3237   002DE8                     
  3238                           ;lcd.c: 42:     LCD_Command(0x33);
  3239   002DE8  0E33               	movlw	51
  3240   002DEA  EC3D  F017         	call	_LCD_Command
  3241   002DEE                     
  3242                           ;lcd.c: 43:     _delay((unsigned long)((5)*(16000000/4000.0)));
  3243   002DEE  0E1A               	movlw	26
  3244   002DF0  0100               	movlb	0	; () banked
  3245   002DF2  6F71               	movwf	??_LCD_Init& (0+255),b
  3246   002DF4  0EF8               	movlw	248
  3247   002DF6                     u4807:
  3248   002DF6  2EE8               	decfsz	wreg,f,c
  3249   002DF8  D7FE               	bra	u4807
  3250   002DFA  2F71               	decfsz	??_LCD_Init& (0+255),f,b
  3251   002DFC  D7FC               	bra	u4807
  3252   002DFE  0000               	nop	
  3253   002E00                     
  3254                           ;lcd.c: 44:     LCD_Command(0x32);
  3255   002E00  0E32               	movlw	50
  3256   002E02  EC3D  F017         	call	_LCD_Command
  3257   002E06                     
  3258                           ;lcd.c: 45:     _delay((unsigned long)((5)*(16000000/4000.0)));
  3259   002E06  0E1A               	movlw	26
  3260   002E08  0100               	movlb	0	; () banked
  3261   002E0A  6F71               	movwf	??_LCD_Init& (0+255),b
  3262   002E0C  0EF8               	movlw	248
  3263   002E0E                     u4817:
  3264   002E0E  2EE8               	decfsz	wreg,f,c
  3265   002E10  D7FE               	bra	u4817
  3266   002E12  2F71               	decfsz	??_LCD_Init& (0+255),f,b
  3267   002E14  D7FC               	bra	u4817
  3268   002E16  0000               	nop	
  3269   002E18                     
  3270                           ;lcd.c: 46:     LCD_Command(0x28);
  3271   002E18  0E28               	movlw	40
  3272   002E1A  EC3D  F017         	call	_LCD_Command
  3273   002E1E                     
  3274                           ;lcd.c: 47:     _delay((unsigned long)((5)*(16000000/4000.0)));
  3275   002E1E  0E1A               	movlw	26
  3276   002E20  0100               	movlb	0	; () banked
  3277   002E22  6F71               	movwf	??_LCD_Init& (0+255),b
  3278   002E24  0EF8               	movlw	248
  3279   002E26                     u4827:
  3280   002E26  2EE8               	decfsz	wreg,f,c
  3281   002E28  D7FE               	bra	u4827
  3282   002E2A  2F71               	decfsz	??_LCD_Init& (0+255),f,b
  3283   002E2C  D7FC               	bra	u4827
  3284   002E2E  0000               	nop	
  3285   002E30                     
  3286                           ;lcd.c: 48:     LCD_Command(0x0C);
  3287   002E30  0E0C               	movlw	12
  3288   002E32  EC3D  F017         	call	_LCD_Command
  3289   002E36                     
  3290                           ;lcd.c: 49:     _delay((unsigned long)((5)*(16000000/4000.0)));
  3291   002E36  0E1A               	movlw	26
  3292   002E38  0100               	movlb	0	; () banked
  3293   002E3A  6F71               	movwf	??_LCD_Init& (0+255),b
  3294   002E3C  0EF8               	movlw	248
  3295   002E3E                     u4837:
  3296   002E3E  2EE8               	decfsz	wreg,f,c
  3297   002E40  D7FE               	bra	u4837
  3298   002E42  2F71               	decfsz	??_LCD_Init& (0+255),f,b
  3299   002E44  D7FC               	bra	u4837
  3300   002E46  0000               	nop	
  3301   002E48                     
  3302                           ;lcd.c: 50:     LCD_Command(0x06);
  3303   002E48  0E06               	movlw	6
  3304   002E4A  EC3D  F017         	call	_LCD_Command
  3305   002E4E                     
  3306                           ;lcd.c: 51:     _delay((unsigned long)((5)*(16000000/4000.0)));
  3307   002E4E  0E1A               	movlw	26
  3308   002E50  0100               	movlb	0	; () banked
  3309   002E52  6F71               	movwf	??_LCD_Init& (0+255),b
  3310   002E54  0EF8               	movlw	248
  3311   002E56                     u4847:
  3312   002E56  2EE8               	decfsz	wreg,f,c
  3313   002E58  D7FE               	bra	u4847
  3314   002E5A  2F71               	decfsz	??_LCD_Init& (0+255),f,b
  3315   002E5C  D7FC               	bra	u4847
  3316   002E5E  0000               	nop	
  3317   002E60                     
  3318                           ;lcd.c: 52:     LCD_Command(0x01);
  3319   002E60  0E01               	movlw	1
  3320   002E62  EC3D  F017         	call	_LCD_Command
  3321   002E66                     
  3322                           ;lcd.c: 53:     _delay((unsigned long)((5)*(16000000/4000.0)));
  3323   002E66  0E1A               	movlw	26
  3324   002E68  0100               	movlb	0	; () banked
  3325   002E6A  6F71               	movwf	??_LCD_Init& (0+255),b
  3326   002E6C  0EF8               	movlw	248
  3327   002E6E                     u4857:
  3328   002E6E  2EE8               	decfsz	wreg,f,c
  3329   002E70  D7FE               	bra	u4857
  3330   002E72  2F71               	decfsz	??_LCD_Init& (0+255),f,b
  3331   002E74  D7FC               	bra	u4857
  3332   002E76  0000               	nop	
  3333   002E78  0012               	return		;funcret
  3334   002E7A                     __end_of_LCD_Init:
  3335                           	callstack 0
  3336                           
  3337 ;; *************** function _MCP23S09_Init *****************
  3338 ;; Defined at:
  3339 ;;		line 12 in file "mcp23s09.c"
  3340 ;; Parameters:    Size  Location     Type
  3341 ;;		None
  3342 ;; Auto vars:     Size  Location     Type
  3343 ;;		None
  3344 ;; Return value:  Size  Location     Type
  3345 ;;                  1    wreg      void 
  3346 ;; Registers used:
  3347 ;;		wreg, status,2, cstack
  3348 ;; Tracked objects:
  3349 ;;		On entry : 0/0
  3350 ;;		On exit  : 0/0
  3351 ;;		Unchanged: 0/0
  3352 ;; Data sizes:     COMRAM   BANK0   BANK1   BANK2   BANK3   BANK4   BANK5   BANK6   BANK7   BANK8   BANK9  BANK10  BANK1
      +1  BANK12  BANK13  BANK14  BANK15
  3353 ;;      Params:         0       0       0       0       0       0       0       0       0       0       0       0       
      +0       0       0       0       0
  3354 ;;      Locals:         0       0       0       0       0       0       0       0       0       0       0       0       
      +0       0       0       0       0
  3355 ;;      Temps:          0       0       0       0       0       0       0       0       0       0       0       0       
      +0       0       0       0       0
  3356 ;;      Totals:         0       0       0       0       0       0       0       0       0       0       0       0       
      +0       0       0       0       0
  3357 ;;Total ram usage:        0 bytes
  3358 ;; Hardware stack levels used: 1
  3359 ;; Hardware stack levels required when called: 10
  3360 ;; This function calls:
  3361 ;;		_MCP23S09_Write
  3362 ;;		_SPI_Init
  3363 ;; This function is called by:
  3364 ;;		_LCD_Init
  3365 ;; This function uses a non-reentrant model
  3366 ;;
  3367                           
  3368                           	psect	text24
  3369   003434                     __ptext24:
  3370                           	callstack 0
  3371   003434                     _MCP23S09_Init:
  3372                           	callstack 19
  3373   003434                     
  3374                           ;mcp23s09.c: 14:     TRISDbits.TRISD0 = 0;
  3375   003434  9095               	bcf	149,0,c	;volatile
  3376   003436                     
  3377                           ;mcp23s09.c: 15:     SPI_Init();
  3378   003436  ECAB  F01A         	call	_SPI_Init	;wreg free
  3379                           
  3380                           ;mcp23s09.c: 18:     MCP23S09_Write(0x0A, 0xFF);
  3381   00343A  0EFF               	movlw	255
  3382   00343C  0100               	movlb	0	; () banked
  3383   00343E  6F6D               	movwf	MCP23S09_Write@data& (0+255),b
  3384   003440  0E0A               	movlw	10
  3385   003442  EC44  F01A         	call	_MCP23S09_Write
  3386                           
  3387                           ;mcp23s09.c: 20:     MCP23S09_Write(0x00, 0x00);
  3388   003446  0E00               	movlw	0
  3389   003448  0100               	movlb	0	; () banked
  3390   00344A  6F6D               	movwf	MCP23S09_Write@data& (0+255),b
  3391   00344C  0E00               	movlw	0
  3392   00344E  EC44  F01A         	call	_MCP23S09_Write
  3393                           
  3394                           ;mcp23s09.c: 21:     MCP23S09_Write(0x06,0xFF);
  3395   003452  0EFF               	movlw	255
  3396   003454  0100               	movlb	0	; () banked
  3397   003456  6F6D               	movwf	MCP23S09_Write@data& (0+255),b
  3398   003458  0E06               	movlw	6
  3399   00345A  EC44  F01A         	call	_MCP23S09_Write
  3400   00345E  0012               	return		;funcret
  3401   003460                     __end_of_MCP23S09_Init:
  3402                           	callstack 0
  3403                           
  3404 ;; *************** function _SPI_Init *****************
  3405 ;; Defined at:
  3406 ;;		line 5 in file "spi.c"
  3407 ;; Parameters:    Size  Location     Type
  3408 ;;		None
  3409 ;; Auto vars:     Size  Location     Type
  3410 ;;		None
  3411 ;; Return value:  Size  Location     Type
  3412 ;;                  1    wreg      void 
  3413 ;; Registers used:
  3414 ;;		wreg, status,2
  3415 ;; Tracked objects:
  3416 ;;		On entry : 0/0
  3417 ;;		On exit  : 0/0
  3418 ;;		Unchanged: 0/0
  3419 ;; Data sizes:     COMRAM   BANK0   BANK1   BANK2   BANK3   BANK4   BANK5   BANK6   BANK7   BANK8   BANK9  BANK10  BANK1
      +1  BANK12  BANK13  BANK14  BANK15
  3420 ;;      Params:         0       0       0       0       0       0       0       0       0       0       0       0       
      +0       0       0       0       0
  3421 ;;      Locals:         0       0       0       0       0       0       0       0       0       0       0       0       
      +0       0       0       0       0
  3422 ;;      Temps:          0       0       0       0       0       0       0       0       0       0       0       0       
      +0       0       0       0       0
  3423 ;;      Totals:         0       0       0       0       0       0       0       0       0       0       0       0       
      +0       0       0       0       0
  3424 ;;Total ram usage:        0 bytes
  3425 ;; Hardware stack levels used: 1
  3426 ;; Hardware stack levels required when called: 8
  3427 ;; This function calls:
  3428 ;;		Nothing
  3429 ;; This function is called by:
  3430 ;;		_MCP23S09_Init
  3431 ;; This function uses a non-reentrant model
  3432 ;;
  3433                           
  3434                           	psect	text25
  3435   003556                     __ptext25:
  3436                           	callstack 0
  3437   003556                     _SPI_Init:
  3438                           	callstack 20
  3439   003556                     
  3440                           ;spi.c: 6:     TRISCbits.TRISC3 = 0;
  3441   003556  9694               	bcf	148,3,c	;volatile
  3442                           
  3443                           ;spi.c: 7:     TRISCbits.TRISC5 = 0;
  3444   003558  9A94               	bcf	148,5,c	;volatile
  3445   00355A                     
  3446                           ;spi.c: 8:     SSPCON1 = 0x20;
  3447   00355A  0E20               	movlw	32
  3448   00355C  6EC6               	movwf	198,c	;volatile
  3449                           
  3450                           ;spi.c: 9:     SSPSTAT = 0x00;
  3451   00355E  0E00               	movlw	0
  3452   003560  6EC7               	movwf	199,c	;volatile
  3453   003562  0012               	return		;funcret
  3454   003564                     __end_of_SPI_Init:
  3455                           	callstack 0
  3456                           
  3457 ;; *************** function _LCD_Command *****************
  3458 ;; Defined at:
  3459 ;;		line 4 in file "lcd.c"
  3460 ;; Parameters:    Size  Location     Type
  3461 ;;  cmd             1    wreg     unsigned char 
  3462 ;; Auto vars:     Size  Location     Type
  3463 ;;  cmd             1   16[BANK0 ] unsigned char 
  3464 ;; Return value:  Size  Location     Type
  3465 ;;                  1    wreg      void 
  3466 ;; Registers used:
  3467 ;;		wreg, status,2, status,0, cstack
  3468 ;; Tracked objects:
  3469 ;;		On entry : 0/0
  3470 ;;		On exit  : 0/0
  3471 ;;		Unchanged: 0/0
  3472 ;; Data sizes:     COMRAM   BANK0   BANK1   BANK2   BANK3   BANK4   BANK5   BANK6   BANK7   BANK8   BANK9  BANK10  BANK1
      +1  BANK12  BANK13  BANK14  BANK15
  3473 ;;      Params:         0       0       0       0       0       0       0       0       0       0       0       0       
      +0       0       0       0       0
  3474 ;;      Locals:         0       1       0       0       0       0       0       0       0       0       0       0       
      +0       0       0       0       0
  3475 ;;      Temps:          0       1       0       0       0       0       0       0       0       0       0       0       
      +0       0       0       0       0
  3476 ;;      Totals:         0       2       0       0       0       0       0       0       0       0       0       0       
      +0       0       0       0       0
  3477 ;;Total ram usage:        2 bytes
  3478 ;; Hardware stack levels used: 1
  3479 ;; Hardware stack levels required when called: 10
  3480 ;; This function calls:
  3481 ;;		_MCP23S09_Write
  3482 ;; This function is called by:
  3483 ;;		_main
  3484 ;;		_LCD_Init
  3485 ;; This function uses a non-reentrant model
  3486 ;;
  3487                           
  3488                           	psect	text26
  3489   002E7A                     __ptext26:
  3490                           	callstack 0
  3491   002E7A                     _LCD_Command:
  3492                           	callstack 19
  3493                           
  3494                           ;incstack = 0
  3495                           ;LCD_Command@cmd stored from wreg
  3496   002E7A  0100               	movlb	0	; () banked
  3497   002E7C  6F70               	movwf	LCD_Command@cmd& (0+255),b
  3498   002E7E                     
  3499                           ;lcd.c: 6:     MCP23S09_Write(0x09, ((cmd & 0xF0) | 0x04));
  3500   002E7E  0100               	movlb	0	; () banked
  3501   002E80  5170               	movf	LCD_Command@cmd& (0+255),w,b
  3502   002E82  0BF0               	andlw	240
  3503   002E84  0904               	iorlw	4
  3504   002E86  6F6D               	movwf	MCP23S09_Write@data& (0+255),b
  3505   002E88  0E09               	movlw	9
  3506   002E8A  EC44  F01A         	call	_MCP23S09_Write
  3507   002E8E                     
  3508                           ;lcd.c: 7:     _delay((unsigned long)((1)*(16000000/4000000.0)));
  3509   002E8E  F000 F000          	nop2		;2 cycle nop
  3510   002E92  F000 F000          	nop2		;2 cycle nop
  3511                           
  3512                           ;lcd.c: 8:     MCP23S09_Write(0x09, (cmd & 0xF0));
  3513   002E96  0100               	movlb	0	; () banked
  3514   002E98  5170               	movf	LCD_Command@cmd& (0+255),w,b
  3515   002E9A  0BF0               	andlw	240
  3516   002E9C  6F6D               	movwf	MCP23S09_Write@data& (0+255),b
  3517   002E9E  0E09               	movlw	9
  3518   002EA0  EC44  F01A         	call	_MCP23S09_Write
  3519   002EA4                     
  3520                           ;lcd.c: 9:     _delay((unsigned long)((2)*(16000000/4000.0)));
  3521   002EA4  0E0B               	movlw	11
  3522   002EA6  0100               	movlb	0	; () banked
  3523   002EA8  6F6F               	movwf	??_LCD_Command& (0+255),b
  3524   002EAA  0E62               	movlw	98
  3525   002EAC                     u4867:
  3526   002EAC  2EE8               	decfsz	wreg,f,c
  3527   002EAE  D7FE               	bra	u4867
  3528   002EB0  2F6F               	decfsz	??_LCD_Command& (0+255),f,b
  3529   002EB2  D7FC               	bra	u4867
  3530   002EB4  0000               	nop	
  3531   002EB6                     
  3532                           ;lcd.c: 12:     MCP23S09_Write(0x09, (((cmd << 4) & 0xF0) | 0x04));
  3533   002EB6  0100               	movlb	0	; () banked
  3534   002EB8  3970               	swapf	LCD_Command@cmd& (0+255),w,b
  3535   002EBA  0BF0               	andlw	240
  3536   002EBC  0BF0               	andlw	240
  3537   002EBE  0904               	iorlw	4
  3538   002EC0  6F6D               	movwf	MCP23S09_Write@data& (0+255),b
  3539   002EC2  0E09               	movlw	9
  3540   002EC4  EC44  F01A         	call	_MCP23S09_Write
  3541   002EC8                     
  3542                           ;lcd.c: 13:     _delay((unsigned long)((1)*(16000000/4000000.0)));
  3543   002EC8  F000 F000          	nop2		;2 cycle nop
  3544   002ECC  F000 F000          	nop2		;2 cycle nop
  3545   002ED0                     
  3546                           ;lcd.c: 14:     MCP23S09_Write(0x09, ((cmd << 4) & 0xF0));
  3547   002ED0  0100               	movlb	0	; () banked
  3548   002ED2  3970               	swapf	LCD_Command@cmd& (0+255),w,b
  3549   002ED4  0BF0               	andlw	240
  3550   002ED6  0BF0               	andlw	240
  3551   002ED8  6F6D               	movwf	MCP23S09_Write@data& (0+255),b
  3552   002EDA  0E09               	movlw	9
  3553   002EDC  EC44  F01A         	call	_MCP23S09_Write
  3554   002EE0                     
  3555                           ;lcd.c: 15:     _delay((unsigned long)((2)*(16000000/4000.0)));
  3556   002EE0  0E0B               	movlw	11
  3557   002EE2  0100               	movlb	0	; () banked
  3558   002EE4  6F6F               	movwf	??_LCD_Command& (0+255),b
  3559   002EE6  0E62               	movlw	98
  3560   002EE8                     u4877:
  3561   002EE8  2EE8               	decfsz	wreg,f,c
  3562   002EEA  D7FE               	bra	u4877
  3563   002EEC  2F6F               	decfsz	??_LCD_Command& (0+255),f,b
  3564   002EEE  D7FC               	bra	u4877
  3565   002EF0  0000               	nop	
  3566   002EF2  0012               	return		;funcret
  3567   002EF4                     __end_of_LCD_Command:
  3568                           	callstack 0
  3569                           
  3570 ;; *************** function _MCP23S09_Write *****************
  3571 ;; Defined at:
  3572 ;;		line 25 in file "mcp23s09.c"
  3573 ;; Parameters:    Size  Location     Type
  3574 ;;  reg             1    wreg     unsigned char 
  3575 ;;  data            1   13[BANK0 ] unsigned char 
  3576 ;; Auto vars:     Size  Location     Type
  3577 ;;  reg             1   14[BANK0 ] unsigned char 
  3578 ;; Return value:  Size  Location     Type
  3579 ;;                  1    wreg      void 
  3580 ;; Registers used:
  3581 ;;		wreg, status,2, cstack
  3582 ;; Tracked objects:
  3583 ;;		On entry : 0/0
  3584 ;;		On exit  : 0/0
  3585 ;;		Unchanged: 0/0
  3586 ;; Data sizes:     COMRAM   BANK0   BANK1   BANK2   BANK3   BANK4   BANK5   BANK6   BANK7   BANK8   BANK9  BANK10  BANK1
      +1  BANK12  BANK13  BANK14  BANK15
  3587 ;;      Params:         0       1       0       0       0       0       0       0       0       0       0       0       
      +0       0       0       0       0
  3588 ;;      Locals:         0       1       0       0       0       0       0       0       0       0       0       0       
      +0       0       0       0       0
  3589 ;;      Temps:          0       0       0       0       0       0       0       0       0       0       0       0       
      +0       0       0       0       0
  3590 ;;      Totals:         0       2       0       0       0       0       0       0       0       0       0       0       
      +0       0       0       0       0
  3591 ;;Total ram usage:        2 bytes
  3592 ;; Hardware stack levels used: 1
  3593 ;; Hardware stack levels required when called: 9
  3594 ;; This function calls:
  3595 ;;		_SPI_Write
  3596 ;; This function is called by:
  3597 ;;		_MCP23S09_Init
  3598 ;;		_LCD_Command
  3599 ;;		_LCD_WriteChar
  3600 ;; This function uses a non-reentrant model
  3601 ;;
  3602                           
  3603                           	psect	text27
  3604   003488                     __ptext27:
  3605                           	callstack 0
  3606   003488                     _MCP23S09_Write:
  3607                           	callstack 19
  3608                           
  3609                           ;incstack = 0
  3610                           ;MCP23S09_Write@reg stored from wreg
  3611   003488  0100               	movlb	0	; () banked
  3612   00348A  6F6E               	movwf	MCP23S09_Write@reg& (0+255),b
  3613   00348C                     
  3614                           ;mcp23s09.c: 26:     LATDbits.LATD0 = 0;
  3615   00348C  908C               	bcf	140,0,c	;volatile
  3616   00348E                     
  3617                           ;mcp23s09.c: 27:     SPI_Write(0b01000000);
  3618   00348E  0E40               	movlw	64
  3619   003490  EC8C  F01A         	call	_SPI_Write
  3620   003494                     
  3621                           ;mcp23s09.c: 28:     SPI_Write(reg);
  3622   003494  0100               	movlb	0	; () banked
  3623   003496  516E               	movf	MCP23S09_Write@reg& (0+255),w,b
  3624   003498  EC8C  F01A         	call	_SPI_Write
  3625   00349C                     
  3626                           ;mcp23s09.c: 30:    SPI_Write(data);
  3627   00349C  0100               	movlb	0	; () banked
  3628   00349E  516D               	movf	MCP23S09_Write@data& (0+255),w,b
  3629   0034A0  EC8C  F01A         	call	_SPI_Write
  3630   0034A4                     
  3631                           ;mcp23s09.c: 34:    LATDbits.LATD0 = 1;
  3632   0034A4  808C               	bsf	140,0,c	;volatile
  3633   0034A6  0012               	return		;funcret
  3634   0034A8                     __end_of_MCP23S09_Write:
  3635                           	callstack 0
  3636                           
  3637 ;; *************** function _SPI_Write *****************
  3638 ;; Defined at:
  3639 ;;		line 12 in file "spi.c"
  3640 ;; Parameters:    Size  Location     Type
  3641 ;;  data            1    wreg     unsigned char 
  3642 ;; Auto vars:     Size  Location     Type
  3643 ;;  data            1   12[BANK0 ] unsigned char 
  3644 ;; Return value:  Size  Location     Type
  3645 ;;                  1    wreg      void 
  3646 ;; Registers used:
  3647 ;;		wreg
  3648 ;; Tracked objects:
  3649 ;;		On entry : 0/0
  3650 ;;		On exit  : 0/0
  3651 ;;		Unchanged: 0/0
  3652 ;; Data sizes:     COMRAM   BANK0   BANK1   BANK2   BANK3   BANK4   BANK5   BANK6   BANK7   BANK8   BANK9  BANK10  BANK1
      +1  BANK12  BANK13  BANK14  BANK15
  3653 ;;      Params:         0       0       0       0       0       0       0       0       0       0       0       0       
      +0       0       0       0       0
  3654 ;;      Locals:         0       1       0       0       0       0       0       0       0       0       0       0       
      +0       0       0       0       0
  3655 ;;      Temps:          0       0       0       0       0       0       0       0       0       0       0       0       
      +0       0       0       0       0
  3656 ;;      Totals:         0       1       0       0       0       0       0       0       0       0       0       0       
      +0       0       0       0       0
  3657 ;;Total ram usage:        1 bytes
  3658 ;; Hardware stack levels used: 1
  3659 ;; Hardware stack levels required when called: 8
  3660 ;; This function calls:
  3661 ;;		Nothing
  3662 ;; This function is called by:
  3663 ;;		_MCP23S09_Write
  3664 ;; This function uses a non-reentrant model
  3665 ;;
  3666                           
  3667                           	psect	text28
  3668   003518                     __ptext28:
  3669                           	callstack 0
  3670   003518                     _SPI_Write:
  3671                           	callstack 19
  3672                           
  3673                           ;incstack = 0
  3674                           ;SPI_Write@data stored from wreg
  3675   003518  0100               	movlb	0	; () banked
  3676   00351A  6F6C               	movwf	SPI_Write@data& (0+255),b
  3677   00351C                     
  3678                           ;spi.c: 13:     SSPBUF = data;
  3679   00351C  C06C  FFC9         	movff	SPI_Write@data,4041	;volatile
  3680   003520                     l390:
  3681   003520  A0C7               	btfss	199,0,c	;volatile
  3682   003522  EF95  F01A         	goto	u3811
  3683   003526  EF97  F01A         	goto	u3810
  3684   00352A                     u3811:
  3685   00352A  EF90  F01A         	goto	l390
  3686   00352E                     u3810:
  3687   00352E  0012               	return		;funcret
  3688   003530                     __end_of_SPI_Write:
  3689                           	callstack 0
  3690                           
  3691 ;; *************** function _Heart_Init *****************
  3692 ;; Defined at:
  3693 ;;		line 4 in file "heart.c"
  3694 ;; Parameters:    Size  Location     Type
  3695 ;;		None
  3696 ;; Auto vars:     Size  Location     Type
  3697 ;;		None
  3698 ;; Return value:  Size  Location     Type
  3699 ;;                  1    wreg      void 
  3700 ;; Registers used:
  3701 ;;		wreg, status,2
  3702 ;; Tracked objects:
  3703 ;;		On entry : 0/0
  3704 ;;		On exit  : 0/0
  3705 ;;		Unchanged: 0/0
  3706 ;; Data sizes:     COMRAM   BANK0   BANK1   BANK2   BANK3   BANK4   BANK5   BANK6   BANK7   BANK8   BANK9  BANK10  BANK1
      +1  BANK12  BANK13  BANK14  BANK15
  3707 ;;      Params:         0       0       0       0       0       0       0       0       0       0       0       0       
      +0       0       0       0       0
  3708 ;;      Locals:         0       0       0       0       0       0       0       0       0       0       0       0       
      +0       0       0       0       0
  3709 ;;      Temps:          0       0       0       0       0       0       0       0       0       0       0       0       
      +0       0       0       0       0
  3710 ;;      Totals:         0       0       0       0       0       0       0       0       0       0       0       0       
      +0       0       0       0       0
  3711 ;;Total ram usage:        0 bytes
  3712 ;; Hardware stack levels used: 1
  3713 ;; Hardware stack levels required when called: 8
  3714 ;; This function calls:
  3715 ;;		Nothing
  3716 ;; This function is called by:
  3717 ;;		_main
  3718 ;; This function uses a non-reentrant model
  3719 ;;
  3720                           
  3721                           	psect	text29
  3722   003546                     __ptext29:
  3723                           	callstack 0
  3724   003546                     _Heart_Init:
  3725                           	callstack 22
  3726   003546                     
  3727                           ;heart.c: 5:     T1CON = 0x31;
  3728   003546  0E31               	movlw	49
  3729   003548  6ECD               	movwf	205,c	;volatile
  3730                           
  3731                           ;heart.c: 6:     TMR1 = 0;
  3732   00354A  0E00               	movlw	0
  3733   00354C  6ECF               	movwf	207,c	;volatile
  3734   00354E  0E00               	movlw	0
  3735   003550  6ECE               	movwf	206,c	;volatile
  3736   003552                     
  3737                           ;heart.c: 7:     TMR1IF = 0;
  3738   003552  909E               	bcf	3998,0,c	;volatile
  3739   003554  0012               	return		;funcret
  3740   003556                     __end_of_Heart_Init:
  3741                           	callstack 0
  3742                           
  3743 ;; *************** function _Calculate_bpm *****************
  3744 ;; Defined at:
  3745 ;;		line 10 in file "heart.c"
  3746 ;; Parameters:    Size  Location     Type
  3747 ;;		None
  3748 ;; Auto vars:     Size  Location     Type
  3749 ;;  timeDifferen    2   95[BANK0 ] unsigned int 
  3750 ;;  res1            2   93[BANK0 ] unsigned short 
  3751 ;;  adcValue        2   91[BANK0 ] unsigned int 
  3752 ;; Return value:  Size  Location     Type
  3753 ;;                  2   86[BANK0 ] int 
  3754 ;; Registers used:
  3755 ;;		wreg, status,2, status,0, prodl, prodh, cstack
  3756 ;; Tracked objects:
  3757 ;;		On entry : 0/0
  3758 ;;		On exit  : 0/0
  3759 ;;		Unchanged: 0/0
  3760 ;; Data sizes:     COMRAM   BANK0   BANK1   BANK2   BANK3   BANK4   BANK5   BANK6   BANK7   BANK8   BANK9  BANK10  BANK1
      +1  BANK12  BANK13  BANK14  BANK15
  3761 ;;      Params:         0       2       0       0       0       0       0       0       0       0       0       0       
      +0       0       0       0       0
  3762 ;;      Locals:         0       6       0       0       0       0       0       0       0       0       0       0       
      +0       0       0       0       0
  3763 ;;      Temps:          0       3       0       0       0       0       0       0       0       0       0       0       
      +0       0       0       0       0
  3764 ;;      Totals:         0      11       0       0       0       0       0       0       0       0       0       0       
      +0       0       0       0       0
  3765 ;;Total ram usage:       11 bytes
  3766 ;; Hardware stack levels used: 1
  3767 ;; Hardware stack levels required when called: 9
  3768 ;; This function calls:
  3769 ;;		_ADC_GetConversion
  3770 ;;		___fldiv
  3771 ;;		___flmul
  3772 ;;		___fltol
  3773 ;;		___xxtofl
  3774 ;; This function is called by:
  3775 ;;		_main
  3776 ;; This function uses a non-reentrant model
  3777 ;;
  3778                           
  3779                           	psect	text30
  3780   00282C                     __ptext30:
  3781                           	callstack 0
  3782   00282C                     _Calculate_bpm:
  3783                           	callstack 21
  3784   00282C                     
  3785                           ;heart.c: 11:             unsigned int adcValue = ADC_GetConversion(1);
  3786   00282C  0E01               	movlw	1
  3787   00282E  ECC1  F018         	call	_ADC_GetConversion
  3788   002832  C06C  F0BB         	movff	?_ADC_GetConversion,Calculate_bpm@adcValue
  3789   002836  C06D  F0BC         	movff	?_ADC_GetConversion+1,Calculate_bpm@adcValue+1
  3790   00283A                     
  3791                           ;heart.c: 12:             uint16_t res1 =adcValue>>6;
  3792   00283A  C0BB  F0B8         	movff	Calculate_bpm@adcValue,??_Calculate_bpm
  3793   00283E  C0BC  F0B9         	movff	Calculate_bpm@adcValue+1,??_Calculate_bpm+1
  3794   002842  0E06               	movlw	6
  3795   002844  0100               	movlb	0	; () banked
  3796   002846  6FBA               	movwf	(??_Calculate_bpm+2)& (0+255),b
  3797   002848                     u4695:
  3798   002848  90D8               	bcf	status,0,c
  3799   00284A  33B9               	rrcf	(??_Calculate_bpm+1)& (0+255),f,b
  3800   00284C  33B8               	rrcf	??_Calculate_bpm& (0+255),f,b
  3801   00284E  2FBA               	decfsz	(??_Calculate_bpm+2)& (0+255),f,b
  3802   002850  EF24  F014         	goto	u4695
  3803   002854  C0B8  F0BD         	movff	??_Calculate_bpm,Calculate_bpm@res1
  3804   002858  C0B9  F0BE         	movff	??_Calculate_bpm+1,Calculate_bpm@res1+1
  3805   00285C                     
  3806                           ; BSR set to: 0
  3807                           ;heart.c: 15:     if (res1 > 450) {
  3808   00285C  0EC3               	movlw	195
  3809   00285E  5DBD               	subwf	Calculate_bpm@res1& (0+255),w,b
  3810   002860  0E01               	movlw	1
  3811   002862  59BE               	subwfb	(Calculate_bpm@res1+1)& (0+255),w,b
  3812   002864  A0D8               	btfss	status,0,c
  3813   002866  EF37  F014         	goto	u4701
  3814   00286A  EF39  F014         	goto	u4700
  3815   00286E                     u4701:
  3816   00286E  EFA3  F014         	goto	l4693
  3817   002872                     u4700:
  3818   002872                     
  3819                           ; BSR set to: 0
  3820                           ;heart.c: 17:             currentTime = TMR1;
  3821   002872  CFCE F0CA          	movff	4046,_currentTime@heart$F1513	;volatile
  3822   002876  CFCF F0CB          	movff	4047,_currentTime@heart$F1513+1	;volatile
  3823   00287A                     
  3824                           ; BSR set to: 0
  3825                           ;heart.c: 18:             unsigned int timeDifference = currentTime - lastTime;
  3826   00287A  51CC               	movf	_lastTime@heart$F1512& (0+255),w,b	;volatile
  3827   00287C  5DCA               	subwf	_currentTime@heart$F1513& (0+255),w,b	;volatile
  3828   00287E  6FBF               	movwf	Calculate_bpm@timeDifference& (0+255),b
  3829   002880  51CD               	movf	(_lastTime@heart$F1512+1)& (0+255),w,b	;volatile
  3830   002882  59CB               	subwfb	(_currentTime@heart$F1513+1)& (0+255),w,b	;volatile
  3831   002884  6FC0               	movwf	(Calculate_bpm@timeDifference+1)& (0+255),b
  3832   002886                     
  3833                           ; BSR set to: 0
  3834                           ;heart.c: 19:             lastTime = currentTime;
  3835   002886  C0CA  F0CC         	movff	_currentTime@heart$F1513,_lastTime@heart$F1512	;volatile
  3836   00288A  C0CB  F0CD         	movff	_currentTime@heart$F1513+1,_lastTime@heart$F1512+1	;volatile
  3837                           
  3838                           ;heart.c: 21:             if (timeDifference > 0) {
  3839   00288E  51BF               	movf	Calculate_bpm@timeDifference& (0+255),w,b
  3840   002890  11C0               	iorwf	(Calculate_bpm@timeDifference+1)& (0+255),w,b
  3841   002892  B4D8               	btfsc	status,2,c
  3842   002894  EF4E  F014         	goto	u4711
  3843   002898  EF50  F014         	goto	u4710
  3844   00289C                     u4711:
  3845   00289C  EF96  F014         	goto	l4691
  3846   0028A0                     u4710:
  3847   0028A0                     
  3848                           ; BSR set to: 0
  3849                           ;heart.c: 22:                 bpm = (unsigned int)(60.0 / (timeDifference * (1.0 / (1600
      +                          0000 / 32.0))))/8;
  3850   0028A0  0EBD               	movlw	189
  3851   0028A2  6F97               	movwf	___flmul@a& (0+255),b
  3852   0028A4  0E37               	movlw	55
  3853   0028A6  6F98               	movwf	(___flmul@a+1)& (0+255),b
  3854   0028A8  0E06               	movlw	6
  3855   0028AA  6F99               	movwf	(___flmul@a+2)& (0+255),b
  3856   0028AC  0E36               	movlw	54
  3857   0028AE  6F9A               	movwf	(___flmul@a+3)& (0+255),b
  3858   0028B0  C0BF  F06C         	movff	Calculate_bpm@timeDifference,___xxtofl@val
  3859   0028B4  C0C0  F06D         	movff	Calculate_bpm@timeDifference+1,___xxtofl@val+1
  3860   0028B8  6B6E               	clrf	(___xxtofl@val+2)& (0+255),b
  3861   0028BA  6B6F               	clrf	(___xxtofl@val+3)& (0+255),b
  3862   0028BC  0E00               	movlw	0
  3863   0028BE  ECE0  F010         	call	___xxtofl
  3864   0028C2  C06C  F093         	movff	?___xxtofl,___flmul@b
  3865   0028C6  C06D  F094         	movff	?___xxtofl+1,___flmul@b+1
  3866   0028CA  C06E  F095         	movff	?___xxtofl+2,___flmul@b+2
  3867   0028CE  C06F  F096         	movff	?___xxtofl+3,___flmul@b+3
  3868   0028D2  EC2D  F008         	call	___flmul	;wreg free
  3869   0028D6  C093  F07E         	movff	?___flmul,___fldiv@a
  3870   0028DA  C094  F07F         	movff	?___flmul+1,___fldiv@a+1
  3871   0028DE  C095  F080         	movff	?___flmul+2,___fldiv@a+2
  3872   0028E2  C096  F081         	movff	?___flmul+3,___fldiv@a+3
  3873   0028E6  0E00               	movlw	0
  3874   0028E8  0100               	movlb	0	; () banked
  3875   0028EA  6F7A               	movwf	___fldiv@b& (0+255),b
  3876   0028EC  0E00               	movlw	0
  3877   0028EE  6F7B               	movwf	(___fldiv@b+1)& (0+255),b
  3878   0028F0  0E70               	movlw	112
  3879   0028F2  6F7C               	movwf	(___fldiv@b+2)& (0+255),b
  3880   0028F4  0E42               	movlw	66
  3881   0028F6  6F7D               	movwf	(___fldiv@b+3)& (0+255),b
  3882   0028F8  EC58  F00C         	call	___fldiv	;wreg free
  3883   0028FC  C07A  F0AC         	movff	?___fldiv,___fltol@f1
  3884   002900  C07B  F0AD         	movff	?___fldiv+1,___fltol@f1+1
  3885   002904  C07C  F0AE         	movff	?___fldiv+2,___fltol@f1+2
  3886   002908  C07D  F0AF         	movff	?___fldiv+3,___fltol@f1+3
  3887   00290C  ECA8  F014         	call	___fltol	;wreg free
  3888   002910  0100               	movlb	0	; () banked
  3889   002912  90D8               	bcf	status,0,c
  3890   002914  33AD               	rrcf	(?___fltol+1)& (0+255),f,b
  3891   002916  33AC               	rrcf	?___fltol& (0+255),f,b
  3892   002918  90D8               	bcf	status,0,c
  3893   00291A  33AD               	rrcf	(?___fltol+1)& (0+255),f,b
  3894   00291C  33AC               	rrcf	?___fltol& (0+255),f,b
  3895   00291E  90D8               	bcf	status,0,c
  3896   002920  33AD               	rrcf	(?___fltol+1)& (0+255),f,b
  3897   002922  33AC               	rrcf	?___fltol& (0+255),f,b
  3898   002924  C0AC  F0C8         	movff	?___fltol,_bpm@heart$F1514	;volatile
  3899   002928  C0AD  F0C9         	movff	?___fltol+1,_bpm@heart$F1514+1	;volatile
  3900   00292C                     l4691:
  3901                           
  3902                           ; BSR set to: 0
  3903                           ;heart.c: 25:             _delay((unsigned long)((300)*(16000000/4000.0)));
  3904   00292C  0E07               	movlw	7
  3905   00292E  0100               	movlb	0	; () banked
  3906   002930  6FB9               	movwf	(??_Calculate_bpm+1)& (0+255),b
  3907   002932  0E17               	movlw	23
  3908   002934  6FB8               	movwf	??_Calculate_bpm& (0+255),b
  3909   002936  0E6A               	movlw	106
  3910   002938                     u4887:
  3911   002938  2EE8               	decfsz	wreg,f,c
  3912   00293A  D7FE               	bra	u4887
  3913   00293C  2FB8               	decfsz	??_Calculate_bpm& (0+255),f,b
  3914   00293E  D7FC               	bra	u4887
  3915   002940  2FB9               	decfsz	(??_Calculate_bpm+1)& (0+255),f,b
  3916   002942  D7FA               	bra	u4887
  3917   002944  0000               	nop	
  3918   002946                     l4693:
  3919                           
  3920                           ;heart.c: 27:             return bpm;
  3921   002946  C0C8  F0B6         	movff	_bpm@heart$F1514,?_Calculate_bpm	;volatile
  3922   00294A  C0C9  F0B7         	movff	_bpm@heart$F1514+1,?_Calculate_bpm+1	;volatile
  3923   00294E  0012               	return		;funcret
  3924   002950                     __end_of_Calculate_bpm:
  3925                           	callstack 0
  3926                           
  3927 ;; *************** function ___xxtofl *****************
  3928 ;; Defined at:
  3929 ;;		line 10 in file "C:\Program Files\Microchip\xc8\v2.46\pic\sources\c99\common\xxtofl.c"
  3930 ;; Parameters:    Size  Location     Type
  3931 ;;  sign            1    wreg     unsigned char 
  3932 ;;  val             4   12[BANK0 ] long 
  3933 ;; Auto vars:     Size  Location     Type
  3934 ;;  sign            1   20[BANK0 ] unsigned char 
  3935 ;;  arg             4   22[BANK0 ] unsigned long 
  3936 ;;  exp             1   21[BANK0 ] unsigned char 
  3937 ;; Return value:  Size  Location     Type
  3938 ;;                  4   12[BANK0 ] unsigned char 
  3939 ;; Registers used:
  3940 ;;		wreg, status,2, status,0
  3941 ;; Tracked objects:
  3942 ;;		On entry : 0/0
  3943 ;;		On exit  : 0/0
  3944 ;;		Unchanged: 0/0
  3945 ;; Data sizes:     COMRAM   BANK0   BANK1   BANK2   BANK3   BANK4   BANK5   BANK6   BANK7   BANK8   BANK9  BANK10  BANK1
      +1  BANK12  BANK13  BANK14  BANK15
  3946 ;;      Params:         0       4       0       0       0       0       0       0       0       0       0       0       
      +0       0       0       0       0
  3947 ;;      Locals:         0       6       0       0       0       0       0       0       0       0       0       0       
      +0       0       0       0       0
  3948 ;;      Temps:          0       4       0       0       0       0       0       0       0       0       0       0       
      +0       0       0       0       0
  3949 ;;      Totals:         0      14       0       0       0       0       0       0       0       0       0       0       
      +0       0       0       0       0
  3950 ;;Total ram usage:       14 bytes
  3951 ;; Hardware stack levels used: 1
  3952 ;; Hardware stack levels required when called: 8
  3953 ;; This function calls:
  3954 ;;		Nothing
  3955 ;; This function is called by:
  3956 ;;		_main
  3957 ;;		_Calculate_bpm
  3958 ;; This function uses a non-reentrant model
  3959 ;;
  3960                           
  3961                           	psect	text31
  3962   0021C0                     __ptext31:
  3963                           	callstack 0
  3964   0021C0                     ___xxtofl:
  3965                           	callstack 22
  3966                           
  3967                           ;incstack = 0
  3968                           ;___xxtofl@sign stored from wreg
  3969   0021C0  0100               	movlb	0	; () banked
  3970   0021C2  6F74               	movwf	___xxtofl@sign& (0+255),b
  3971   0021C4  0100               	movlb	0	; () banked
  3972   0021C6  5174               	movf	___xxtofl@sign& (0+255),w,b
  3973   0021C8  B4D8               	btfsc	status,2,c
  3974   0021CA  EFE9  F010         	goto	u4521
  3975   0021CE  EFEB  F010         	goto	u4520
  3976   0021D2                     u4521:
  3977   0021D2  EF0D  F011         	goto	l1133
  3978   0021D6                     u4520:
  3979   0021D6                     
  3980                           ; BSR set to: 0
  3981   0021D6  BF6F               	btfsc	(___xxtofl@val+3)& (0+255),7,b
  3982   0021D8  EFF2  F010         	goto	u4530
  3983   0021DC  EFF0  F010         	goto	u4531
  3984   0021E0                     u4531:
  3985   0021E0  EF0D  F011         	goto	l1133
  3986   0021E4                     u4530:
  3987   0021E4                     
  3988                           ; BSR set to: 0
  3989   0021E4  C06C  F070         	movff	___xxtofl@val,??___xxtofl
  3990   0021E8  C06D  F071         	movff	___xxtofl@val+1,??___xxtofl+1
  3991   0021EC  C06E  F072         	movff	___xxtofl@val+2,??___xxtofl+2
  3992   0021F0  C06F  F073         	movff	___xxtofl@val+3,??___xxtofl+3
  3993   0021F4  1F70               	comf	??___xxtofl& (0+255),f,b
  3994   0021F6  1F71               	comf	(??___xxtofl+1)& (0+255),f,b
  3995   0021F8  1F72               	comf	(??___xxtofl+2)& (0+255),f,b
  3996   0021FA  1F73               	comf	(??___xxtofl+3)& (0+255),f,b
  3997   0021FC  2B70               	incf	??___xxtofl& (0+255),f,b
  3998   0021FE  0E00               	movlw	0
  3999   002200  2371               	addwfc	(??___xxtofl+1)& (0+255),f,b
  4000   002202  2372               	addwfc	(??___xxtofl+2)& (0+255),f,b
  4001   002204  2373               	addwfc	(??___xxtofl+3)& (0+255),f,b
  4002   002206  C070  F076         	movff	??___xxtofl,___xxtofl@arg
  4003   00220A  C071  F077         	movff	??___xxtofl+1,___xxtofl@arg+1
  4004   00220E  C072  F078         	movff	??___xxtofl+2,___xxtofl@arg+2
  4005   002212  C073  F079         	movff	??___xxtofl+3,___xxtofl@arg+3
  4006   002216  EF15  F011         	goto	l4545
  4007   00221A                     l1133:
  4008                           
  4009                           ; BSR set to: 0
  4010   00221A  C06C  F076         	movff	___xxtofl@val,___xxtofl@arg
  4011   00221E  C06D  F077         	movff	___xxtofl@val+1,___xxtofl@arg+1
  4012   002222  C06E  F078         	movff	___xxtofl@val+2,___xxtofl@arg+2
  4013   002226  C06F  F079         	movff	___xxtofl@val+3,___xxtofl@arg+3
  4014   00222A                     l4545:
  4015                           
  4016                           ; BSR set to: 0
  4017   00222A  516C               	movf	___xxtofl@val& (0+255),w,b
  4018   00222C  116D               	iorwf	(___xxtofl@val+1)& (0+255),w,b
  4019   00222E  116E               	iorwf	(___xxtofl@val+2)& (0+255),w,b
  4020   002230  116F               	iorwf	(___xxtofl@val+3)& (0+255),w,b
  4021   002232  A4D8               	btfss	status,2,c
  4022   002234  EF1E  F011         	goto	u4541
  4023   002238  EF20  F011         	goto	u4540
  4024   00223C                     u4541:
  4025   00223C  EF2A  F011         	goto	l4551
  4026   002240                     u4540:
  4027   002240                     
  4028                           ; BSR set to: 0
  4029   002240  0E00               	movlw	0
  4030   002242  6F6C               	movwf	?___xxtofl& (0+255),b
  4031   002244  0E00               	movlw	0
  4032   002246  6F6D               	movwf	(?___xxtofl+1)& (0+255),b
  4033   002248  0E00               	movlw	0
  4034   00224A  6F6E               	movwf	(?___xxtofl+2)& (0+255),b
  4035   00224C  0E00               	movlw	0
  4036   00224E  6F6F               	movwf	(?___xxtofl+3)& (0+255),b
  4037   002250  EFBB  F011         	goto	l1136
  4038   002254                     l4551:
  4039                           
  4040                           ; BSR set to: 0
  4041   002254  0E96               	movlw	150
  4042   002256  6F75               	movwf	___xxtofl@exp& (0+255),b
  4043   002258  EF34  F011         	goto	l4555
  4044   00225C                     l4553:
  4045                           
  4046                           ; BSR set to: 0
  4047   00225C  2B75               	incf	___xxtofl@exp& (0+255),f,b
  4048   00225E  90D8               	bcf	status,0,c
  4049   002260  3379               	rrcf	(___xxtofl@arg+3)& (0+255),f,b
  4050   002262  3378               	rrcf	(___xxtofl@arg+2)& (0+255),f,b
  4051   002264  3377               	rrcf	(___xxtofl@arg+1)& (0+255),f,b
  4052   002266  3376               	rrcf	___xxtofl@arg& (0+255),f,b
  4053   002268                     l4555:
  4054                           
  4055                           ; BSR set to: 0
  4056   002268  0E00               	movlw	0
  4057   00226A  1576               	andwf	___xxtofl@arg& (0+255),w,b
  4058   00226C  6F70               	movwf	??___xxtofl& (0+255),b
  4059   00226E  0E00               	movlw	0
  4060   002270  1577               	andwf	(___xxtofl@arg+1)& (0+255),w,b
  4061   002272  6F71               	movwf	(??___xxtofl+1)& (0+255),b
  4062   002274  0E00               	movlw	0
  4063   002276  1578               	andwf	(___xxtofl@arg+2)& (0+255),w,b
  4064   002278  6F72               	movwf	(??___xxtofl+2)& (0+255),b
  4065   00227A  0EFE               	movlw	254
  4066   00227C  1579               	andwf	(___xxtofl@arg+3)& (0+255),w,b
  4067   00227E  6F73               	movwf	(??___xxtofl+3)& (0+255),b
  4068   002280  5170               	movf	??___xxtofl& (0+255),w,b
  4069   002282  1171               	iorwf	(??___xxtofl+1)& (0+255),w,b
  4070   002284  1172               	iorwf	(??___xxtofl+2)& (0+255),w,b
  4071   002286  1173               	iorwf	(??___xxtofl+3)& (0+255),w,b
  4072   002288  A4D8               	btfss	status,2,c
  4073   00228A  EF49  F011         	goto	u4551
  4074   00228E  EF4B  F011         	goto	u4550
  4075   002292                     u4551:
  4076   002292  EF2E  F011         	goto	l4553
  4077   002296                     u4550:
  4078   002296  EF59  F011         	goto	l1140
  4079   00229A                     l4557:
  4080                           
  4081                           ; BSR set to: 0
  4082   00229A  2B75               	incf	___xxtofl@exp& (0+255),f,b
  4083   00229C                     
  4084                           ; BSR set to: 0
  4085   00229C  0E01               	movlw	1
  4086   00229E  2776               	addwf	___xxtofl@arg& (0+255),f,b
  4087   0022A0  0E00               	movlw	0
  4088   0022A2  2377               	addwfc	(___xxtofl@arg+1)& (0+255),f,b
  4089   0022A4  2378               	addwfc	(___xxtofl@arg+2)& (0+255),f,b
  4090   0022A6  2379               	addwfc	(___xxtofl@arg+3)& (0+255),f,b
  4091   0022A8                     
  4092                           ; BSR set to: 0
  4093   0022A8  90D8               	bcf	status,0,c
  4094   0022AA  3379               	rrcf	(___xxtofl@arg+3)& (0+255),f,b
  4095   0022AC  3378               	rrcf	(___xxtofl@arg+2)& (0+255),f,b
  4096   0022AE  3377               	rrcf	(___xxtofl@arg+1)& (0+255),f,b
  4097   0022B0  3376               	rrcf	___xxtofl@arg& (0+255),f,b
  4098   0022B2                     l1140:
  4099                           
  4100                           ; BSR set to: 0
  4101   0022B2  0E00               	movlw	0
  4102   0022B4  1576               	andwf	___xxtofl@arg& (0+255),w,b
  4103   0022B6  6F70               	movwf	??___xxtofl& (0+255),b
  4104   0022B8  0E00               	movlw	0
  4105   0022BA  1577               	andwf	(___xxtofl@arg+1)& (0+255),w,b
  4106   0022BC  6F71               	movwf	(??___xxtofl+1)& (0+255),b
  4107   0022BE  0E00               	movlw	0
  4108   0022C0  1578               	andwf	(___xxtofl@arg+2)& (0+255),w,b
  4109   0022C2  6F72               	movwf	(??___xxtofl+2)& (0+255),b
  4110   0022C4  0EFF               	movlw	255
  4111   0022C6  1579               	andwf	(___xxtofl@arg+3)& (0+255),w,b
  4112   0022C8  6F73               	movwf	(??___xxtofl+3)& (0+255),b
  4113   0022CA  5170               	movf	??___xxtofl& (0+255),w,b
  4114   0022CC  1171               	iorwf	(??___xxtofl+1)& (0+255),w,b
  4115   0022CE  1172               	iorwf	(??___xxtofl+2)& (0+255),w,b
  4116   0022D0  1173               	iorwf	(??___xxtofl+3)& (0+255),w,b
  4117   0022D2  A4D8               	btfss	status,2,c
  4118   0022D4  EF6E  F011         	goto	u4561
  4119   0022D8  EF70  F011         	goto	u4560
  4120   0022DC                     u4561:
  4121   0022DC  EF4D  F011         	goto	l4557
  4122   0022E0                     u4560:
  4123   0022E0  EF78  F011         	goto	l4565
  4124   0022E4                     l4563:
  4125                           
  4126                           ; BSR set to: 0
  4127   0022E4  0775               	decf	___xxtofl@exp& (0+255),f,b
  4128   0022E6  90D8               	bcf	status,0,c
  4129   0022E8  3776               	rlcf	___xxtofl@arg& (0+255),f,b
  4130   0022EA  3777               	rlcf	(___xxtofl@arg+1)& (0+255),f,b
  4131   0022EC  3778               	rlcf	(___xxtofl@arg+2)& (0+255),f,b
  4132   0022EE  3779               	rlcf	(___xxtofl@arg+3)& (0+255),f,b
  4133   0022F0                     l4565:
  4134                           
  4135                           ; BSR set to: 0
  4136   0022F0  BF78               	btfsc	(___xxtofl@arg+2)& (0+255),7,b
  4137   0022F2  EF7D  F011         	goto	u4571
  4138   0022F6  EF7F  F011         	goto	u4570
  4139   0022FA                     u4571:
  4140   0022FA  EF87  F011         	goto	l1147
  4141   0022FE                     u4570:
  4142   0022FE                     
  4143                           ; BSR set to: 0
  4144   0022FE  0E02               	movlw	2
  4145   002300  6175               	cpfslt	___xxtofl@exp& (0+255),b
  4146   002302  EF85  F011         	goto	u4581
  4147   002306  EF87  F011         	goto	u4580
  4148   00230A                     u4581:
  4149   00230A  EF72  F011         	goto	l4563
  4150   00230E                     u4580:
  4151   00230E                     l1147:
  4152                           
  4153                           ; BSR set to: 0
  4154   00230E  B175               	btfsc	___xxtofl@exp& (0+255),0,b
  4155   002310  EF8C  F011         	goto	u4591
  4156   002314  EF8E  F011         	goto	u4590
  4157   002318                     u4591:
  4158   002318  EF8F  F011         	goto	l4571
  4159   00231C                     u4590:
  4160   00231C                     
  4161                           ; BSR set to: 0
  4162   00231C  9F78               	bcf	(___xxtofl@arg+2)& (0+255),7,b
  4163   00231E                     l4571:
  4164                           
  4165                           ; BSR set to: 0
  4166   00231E  90D8               	bcf	status,0,c
  4167   002320  3375               	rrcf	___xxtofl@exp& (0+255),f,b
  4168   002322                     
  4169                           ; BSR set to: 0
  4170   002322  C075  F070         	movff	___xxtofl@exp,??___xxtofl
  4171   002326  6B71               	clrf	(??___xxtofl+1)& (0+255),b
  4172   002328  6B72               	clrf	(??___xxtofl+2)& (0+255),b
  4173   00232A  6B73               	clrf	(??___xxtofl+3)& (0+255),b
  4174   00232C  C070  F073         	movff	??___xxtofl,??___xxtofl+3
  4175   002330  6B72               	clrf	(??___xxtofl+2)& (0+255),b
  4176   002332  6B71               	clrf	(??___xxtofl+1)& (0+255),b
  4177   002334  6B70               	clrf	??___xxtofl& (0+255),b
  4178   002336  5170               	movf	??___xxtofl& (0+255),w,b
  4179   002338  1376               	iorwf	___xxtofl@arg& (0+255),f,b
  4180   00233A  5171               	movf	(??___xxtofl+1)& (0+255),w,b
  4181   00233C  1377               	iorwf	(___xxtofl@arg+1)& (0+255),f,b
  4182   00233E  5172               	movf	(??___xxtofl+2)& (0+255),w,b
  4183   002340  1378               	iorwf	(___xxtofl@arg+2)& (0+255),f,b
  4184   002342  5173               	movf	(??___xxtofl+3)& (0+255),w,b
  4185   002344  1379               	iorwf	(___xxtofl@arg+3)& (0+255),f,b
  4186   002346                     
  4187                           ; BSR set to: 0
  4188   002346  5174               	movf	___xxtofl@sign& (0+255),w,b
  4189   002348  B4D8               	btfsc	status,2,c
  4190   00234A  EFA9  F011         	goto	u4601
  4191   00234E  EFAB  F011         	goto	u4600
  4192   002352                     u4601:
  4193   002352  EFB3  F011         	goto	l4581
  4194   002356                     u4600:
  4195   002356                     
  4196                           ; BSR set to: 0
  4197   002356  BF6F               	btfsc	(___xxtofl@val+3)& (0+255),7,b
  4198   002358  EFB2  F011         	goto	u4610
  4199   00235C  EFB0  F011         	goto	u4611
  4200   002360                     u4611:
  4201   002360  EFB3  F011         	goto	l4581
  4202   002364                     u4610:
  4203   002364                     
  4204                           ; BSR set to: 0
  4205   002364  8F79               	bsf	(___xxtofl@arg+3)& (0+255),7,b
  4206   002366                     l4581:
  4207                           
  4208                           ; BSR set to: 0
  4209   002366  C076  F06C         	movff	___xxtofl@arg,?___xxtofl
  4210   00236A  C077  F06D         	movff	___xxtofl@arg+1,?___xxtofl+1
  4211   00236E  C078  F06E         	movff	___xxtofl@arg+2,?___xxtofl+2
  4212   002372  C079  F06F         	movff	___xxtofl@arg+3,?___xxtofl+3
  4213   002376                     l1136:
  4214                           
  4215                           ; BSR set to: 0
  4216   002376  0012               	return		;funcret
  4217   002378                     __end_of___xxtofl:
  4218                           	callstack 0
  4219                           
  4220 ;; *************** function ___fltol *****************
  4221 ;; Defined at:
  4222 ;;		line 43 in file "C:\Program Files\Microchip\xc8\v2.46\pic\sources\c99\common\fltol.c"
  4223 ;; Parameters:    Size  Location     Type
  4224 ;;  f1              4   76[BANK0 ] unsigned char 
  4225 ;; Auto vars:     Size  Location     Type
  4226 ;;  exp1            1   85[BANK0 ] unsigned char 
  4227 ;;  sign1           1   84[BANK0 ] unsigned char 
  4228 ;; Return value:  Size  Location     Type
  4229 ;;                  4   76[BANK0 ] long 
  4230 ;; Registers used:
  4231 ;;		wreg, status,2, status,0
  4232 ;; Tracked objects:
  4233 ;;		On entry : 0/0
  4234 ;;		On exit  : 0/0
  4235 ;;		Unchanged: 0/0
  4236 ;; Data sizes:     COMRAM   BANK0   BANK1   BANK2   BANK3   BANK4   BANK5   BANK6   BANK7   BANK8   BANK9  BANK10  BANK1
      +1  BANK12  BANK13  BANK14  BANK15
  4237 ;;      Params:         0       4       0       0       0       0       0       0       0       0       0       0       
      +0       0       0       0       0
  4238 ;;      Locals:         0       2       0       0       0       0       0       0       0       0       0       0       
      +0       0       0       0       0
  4239 ;;      Temps:          0       4       0       0       0       0       0       0       0       0       0       0       
      +0       0       0       0       0
  4240 ;;      Totals:         0      10       0       0       0       0       0       0       0       0       0       0       
      +0       0       0       0       0
  4241 ;;Total ram usage:       10 bytes
  4242 ;; Hardware stack levels used: 1
  4243 ;; Hardware stack levels required when called: 8
  4244 ;; This function calls:
  4245 ;;		Nothing
  4246 ;; This function is called by:
  4247 ;;		_main
  4248 ;;		_Calculate_bpm
  4249 ;; This function uses a non-reentrant model
  4250 ;;
  4251                           
  4252                           	psect	text32
  4253   002950                     __ptext32:
  4254                           	callstack 0
  4255   002950                     ___fltol:
  4256                           	callstack 22
  4257   002950  0100               	movlb	0	; () banked
  4258   002952  35AE               	rlcf	(___fltol@f1+2)& (0+255),w,b
  4259   002954  35AF               	rlcf	(___fltol@f1+3)& (0+255),w,b
  4260   002956  6FB5               	movwf	___fltol@exp1& (0+255),b
  4261   002958  51B5               	movf	___fltol@exp1& (0+255),w,b
  4262   00295A  A4D8               	btfss	status,2,c
  4263   00295C  EFB2  F014         	goto	u4451
  4264   002960  EFB4  F014         	goto	u4450
  4265   002964                     u4451:
  4266   002964  EFBE  F014         	goto	l4501
  4267   002968                     u4450:
  4268   002968                     l4497:
  4269                           
  4270                           ; BSR set to: 0
  4271   002968  0E00               	movlw	0
  4272   00296A  6FAC               	movwf	?___fltol& (0+255),b
  4273   00296C  0E00               	movlw	0
  4274   00296E  6FAD               	movwf	(?___fltol+1)& (0+255),b
  4275   002970  0E00               	movlw	0
  4276   002972  6FAE               	movwf	(?___fltol+2)& (0+255),b
  4277   002974  0E00               	movlw	0
  4278   002976  6FAF               	movwf	(?___fltol+3)& (0+255),b
  4279   002978  EF2B  F015         	goto	l775
  4280   00297C                     l4501:
  4281                           
  4282                           ; BSR set to: 0
  4283   00297C  C0AC  F0B0         	movff	___fltol@f1,??___fltol
  4284   002980  C0AD  F0B1         	movff	___fltol@f1+1,??___fltol+1
  4285   002984  C0AE  F0B2         	movff	___fltol@f1+2,??___fltol+2
  4286   002988  C0AF  F0B3         	movff	___fltol@f1+3,??___fltol+3
  4287   00298C  0E20               	movlw	32
  4288   00298E  EFCE  F014         	goto	u4460
  4289   002992                     u4465:
  4290   002992  90D8               	bcf	status,0,c
  4291   002994  33B3               	rrcf	(??___fltol+3)& (0+255),f,b
  4292   002996  33B2               	rrcf	(??___fltol+2)& (0+255),f,b
  4293   002998  33B1               	rrcf	(??___fltol+1)& (0+255),f,b
  4294   00299A  33B0               	rrcf	??___fltol& (0+255),f,b
  4295   00299C                     u4460:
  4296   00299C  2EE8               	decfsz	wreg,f,c
  4297   00299E  EFC9  F014         	goto	u4465
  4298   0029A2  51B0               	movf	??___fltol& (0+255),w,b
  4299   0029A4  6FB4               	movwf	___fltol@sign1& (0+255),b
  4300   0029A6                     
  4301                           ; BSR set to: 0
  4302   0029A6  8FAE               	bsf	(___fltol@f1+2)& (0+255),7,b
  4303   0029A8                     
  4304                           ; BSR set to: 0
  4305   0029A8  0EFF               	movlw	255
  4306   0029AA  17AC               	andwf	___fltol@f1& (0+255),f,b
  4307   0029AC  0EFF               	movlw	255
  4308   0029AE  17AD               	andwf	(___fltol@f1+1)& (0+255),f,b
  4309   0029B0  0EFF               	movlw	255
  4310   0029B2  17AE               	andwf	(___fltol@f1+2)& (0+255),f,b
  4311   0029B4  0E00               	movlw	0
  4312   0029B6  17AF               	andwf	(___fltol@f1+3)& (0+255),f,b
  4313   0029B8                     
  4314                           ; BSR set to: 0
  4315   0029B8  0E96               	movlw	150
  4316   0029BA  5FB5               	subwf	___fltol@exp1& (0+255),f,b
  4317   0029BC                     
  4318                           ; BSR set to: 0
  4319   0029BC  BFB5               	btfsc	___fltol@exp1& (0+255),7,b
  4320   0029BE  EFE5  F014         	goto	u4470
  4321   0029C2  EFE3  F014         	goto	u4471
  4322   0029C6                     u4471:
  4323   0029C6  EFFB  F014         	goto	l4521
  4324   0029CA                     u4470:
  4325   0029CA                     
  4326                           ; BSR set to: 0
  4327   0029CA  51B5               	movf	___fltol@exp1& (0+255),w,b
  4328   0029CC  0A80               	xorlw	128
  4329   0029CE  0F97               	addlw	151
  4330   0029D0  B0D8               	btfsc	status,0,c
  4331   0029D2  EFED  F014         	goto	u4481
  4332   0029D6  EFEF  F014         	goto	u4480
  4333   0029DA                     u4481:
  4334   0029DA  EFF1  F014         	goto	l4517
  4335   0029DE                     u4480:
  4336   0029DE  EFB4  F014         	goto	l4497
  4337   0029E2                     l4517:
  4338                           
  4339                           ; BSR set to: 0
  4340   0029E2  90D8               	bcf	status,0,c
  4341   0029E4  33AF               	rrcf	(___fltol@f1+3)& (0+255),f,b
  4342   0029E6  33AE               	rrcf	(___fltol@f1+2)& (0+255),f,b
  4343   0029E8  33AD               	rrcf	(___fltol@f1+1)& (0+255),f,b
  4344   0029EA  33AC               	rrcf	___fltol@f1& (0+255),f,b
  4345   0029EC                     
  4346                           ; BSR set to: 0
  4347   0029EC  3FB5               	incfsz	___fltol@exp1& (0+255),f,b
  4348   0029EE  EFF1  F014         	goto	l4517
  4349   0029F2  EF13  F015         	goto	l4531
  4350   0029F6                     l4521:
  4351                           
  4352                           ; BSR set to: 0
  4353   0029F6  0E1F               	movlw	31
  4354   0029F8  65B5               	cpfsgt	___fltol@exp1& (0+255),b
  4355   0029FA  EF01  F015         	goto	u4491
  4356   0029FE  EF03  F015         	goto	u4490
  4357   002A02                     u4491:
  4358   002A02  EF0B  F015         	goto	l4529
  4359   002A06                     u4490:
  4360   002A06  EFB4  F014         	goto	l4497
  4361   002A0A                     l4527:
  4362                           
  4363                           ; BSR set to: 0
  4364   002A0A  90D8               	bcf	status,0,c
  4365   002A0C  37AC               	rlcf	___fltol@f1& (0+255),f,b
  4366   002A0E  37AD               	rlcf	(___fltol@f1+1)& (0+255),f,b
  4367   002A10  37AE               	rlcf	(___fltol@f1+2)& (0+255),f,b
  4368   002A12  37AF               	rlcf	(___fltol@f1+3)& (0+255),f,b
  4369   002A14  07B5               	decf	___fltol@exp1& (0+255),f,b
  4370   002A16                     l4529:
  4371                           
  4372                           ; BSR set to: 0
  4373   002A16  51B5               	movf	___fltol@exp1& (0+255),w,b
  4374   002A18  A4D8               	btfss	status,2,c
  4375   002A1A  EF11  F015         	goto	u4501
  4376   002A1E  EF13  F015         	goto	u4500
  4377   002A22                     u4501:
  4378   002A22  EF05  F015         	goto	l4527
  4379   002A26                     u4500:
  4380   002A26                     l4531:
  4381                           
  4382                           ; BSR set to: 0
  4383   002A26  51B4               	movf	___fltol@sign1& (0+255),w,b
  4384   002A28  B4D8               	btfsc	status,2,c
  4385   002A2A  EF19  F015         	goto	u4511
  4386   002A2E  EF1B  F015         	goto	u4510
  4387   002A32                     u4511:
  4388   002A32  EF23  F015         	goto	l4535
  4389   002A36                     u4510:
  4390   002A36                     
  4391                           ; BSR set to: 0
  4392   002A36  1FAF               	comf	(___fltol@f1+3)& (0+255),f,b
  4393   002A38  1FAE               	comf	(___fltol@f1+2)& (0+255),f,b
  4394   002A3A  1FAD               	comf	(___fltol@f1+1)& (0+255),f,b
  4395   002A3C  6DAC               	negf	___fltol@f1& (0+255),b
  4396   002A3E  0E00               	movlw	0
  4397   002A40  23AD               	addwfc	(___fltol@f1+1)& (0+255),f,b
  4398   002A42  23AE               	addwfc	(___fltol@f1+2)& (0+255),f,b
  4399   002A44  23AF               	addwfc	(___fltol@f1+3)& (0+255),f,b
  4400   002A46                     l4535:
  4401                           
  4402                           ; BSR set to: 0
  4403   002A46  C0AC  F0AC         	movff	___fltol@f1,?___fltol
  4404   002A4A  C0AD  F0AD         	movff	___fltol@f1+1,?___fltol+1
  4405   002A4E  C0AE  F0AE         	movff	___fltol@f1+2,?___fltol+2
  4406   002A52  C0AF  F0AF         	movff	___fltol@f1+3,?___fltol+3
  4407   002A56                     l775:
  4408                           
  4409                           ; BSR set to: 0
  4410   002A56  0012               	return		;funcret
  4411   002A58                     __end_of___fltol:
  4412                           	callstack 0
  4413                           
  4414 ;; *************** function ___flmul *****************
  4415 ;; Defined at:
  4416 ;;		line 8 in file "C:\Program Files\Microchip\xc8\v2.46\pic\sources\c99\common\sprcmul.c"
  4417 ;; Parameters:    Size  Location     Type
  4418 ;;  b               4   51[BANK0 ] long 
  4419 ;;  a               4   55[BANK0 ] long 
  4420 ;; Auto vars:     Size  Location     Type
  4421 ;;  prod            4   70[BANK0 ] struct .
  4422 ;;  grs             4   65[BANK0 ] unsigned long 
  4423 ;;  temp            2   74[BANK0 ] struct .
  4424 ;;  bexp            1   69[BANK0 ] unsigned char 
  4425 ;;  aexp            1   64[BANK0 ] unsigned char 
  4426 ;;  sign            1   63[BANK0 ] unsigned char 
  4427 ;; Return value:  Size  Location     Type
  4428 ;;                  4   51[BANK0 ] unsigned char 
  4429 ;; Registers used:
  4430 ;;		wreg, status,2, status,0, prodl, prodh
  4431 ;; Tracked objects:
  4432 ;;		On entry : 0/0
  4433 ;;		On exit  : 0/0
  4434 ;;		Unchanged: 0/0
  4435 ;; Data sizes:     COMRAM   BANK0   BANK1   BANK2   BANK3   BANK4   BANK5   BANK6   BANK7   BANK8   BANK9  BANK10  BANK1
      +1  BANK12  BANK13  BANK14  BANK15
  4436 ;;      Params:         0       8       0       0       0       0       0       0       0       0       0       0       
      +0       0       0       0       0
  4437 ;;      Locals:         0      13       0       0       0       0       0       0       0       0       0       0       
      +0       0       0       0       0
  4438 ;;      Temps:          0       4       0       0       0       0       0       0       0       0       0       0       
      +0       0       0       0       0
  4439 ;;      Totals:         0      25       0       0       0       0       0       0       0       0       0       0       
      +0       0       0       0       0
  4440 ;;Total ram usage:       25 bytes
  4441 ;; Hardware stack levels used: 1
  4442 ;; Hardware stack levels required when called: 8
  4443 ;; This function calls:
  4444 ;;		Nothing
  4445 ;; This function is called by:
  4446 ;;		_main
  4447 ;;		_Calculate_bpm
  4448 ;; This function uses a non-reentrant model
  4449 ;;
  4450                           
  4451                           	psect	text33
  4452   00105A                     __ptext33:
  4453                           	callstack 0
  4454   00105A                     ___flmul:
  4455                           	callstack 22
  4456   00105A  0100               	movlb	0	; () banked
  4457   00105C  5196               	movf	(___flmul@b+3)& (0+255),w,b
  4458   00105E  0B80               	andlw	128
  4459   001060  6F9F               	movwf	___flmul@sign& (0+255),b
  4460   001062  5196               	movf	(___flmul@b+3)& (0+255),w,b
  4461   001064  2596               	addwf	(___flmul@b+3)& (0+255),w,b
  4462   001066  6FA5               	movwf	___flmul@bexp& (0+255),b
  4463   001068                     
  4464                           ; BSR set to: 0
  4465   001068  AF95               	btfss	(___flmul@b+2)& (0+255),7,b
  4466   00106A  EF39  F008         	goto	u4261
  4467   00106E  EF3B  F008         	goto	u4260
  4468   001072                     u4261:
  4469   001072  EF3C  F008         	goto	l4371
  4470   001076                     u4260:
  4471   001076                     
  4472                           ; BSR set to: 0
  4473   001076  81A5               	bsf	___flmul@bexp& (0+255),0,b
  4474   001078                     l4371:
  4475                           
  4476                           ; BSR set to: 0
  4477   001078  51A5               	movf	___flmul@bexp& (0+255),w,b
  4478   00107A  B4D8               	btfsc	status,2,c
  4479   00107C  EF42  F008         	goto	u4271
  4480   001080  EF44  F008         	goto	u4270
  4481   001084                     u4271:
  4482   001084  EF57  F008         	goto	l4379
  4483   001088                     u4270:
  4484   001088                     
  4485                           ; BSR set to: 0
  4486   001088  29A5               	incf	___flmul@bexp& (0+255),w,b
  4487   00108A  A4D8               	btfss	status,2,c
  4488   00108C  EF4A  F008         	goto	u4281
  4489   001090  EF4C  F008         	goto	u4280
  4490   001094                     u4281:
  4491   001094  EF54  F008         	goto	l4377
  4492   001098                     u4280:
  4493   001098                     
  4494                           ; BSR set to: 0
  4495   001098  0E00               	movlw	0
  4496   00109A  6F93               	movwf	___flmul@b& (0+255),b
  4497   00109C  0E00               	movlw	0
  4498   00109E  6F94               	movwf	(___flmul@b+1)& (0+255),b
  4499   0010A0  0E00               	movlw	0
  4500   0010A2  6F95               	movwf	(___flmul@b+2)& (0+255),b
  4501   0010A4  0E00               	movlw	0
  4502   0010A6  6F96               	movwf	(___flmul@b+3)& (0+255),b
  4503   0010A8                     l4377:
  4504                           
  4505                           ; BSR set to: 0
  4506   0010A8  8F95               	bsf	(___flmul@b+2)& (0+255),7,b
  4507   0010AA  EF5F  F008         	goto	l4381
  4508   0010AE                     l4379:
  4509                           
  4510                           ; BSR set to: 0
  4511   0010AE  0E00               	movlw	0
  4512   0010B0  6F93               	movwf	___flmul@b& (0+255),b
  4513   0010B2  0E00               	movlw	0
  4514   0010B4  6F94               	movwf	(___flmul@b+1)& (0+255),b
  4515   0010B6  0E00               	movlw	0
  4516   0010B8  6F95               	movwf	(___flmul@b+2)& (0+255),b
  4517   0010BA  0E00               	movlw	0
  4518   0010BC  6F96               	movwf	(___flmul@b+3)& (0+255),b
  4519   0010BE                     l4381:
  4520                           
  4521                           ; BSR set to: 0
  4522   0010BE  519A               	movf	(___flmul@a+3)& (0+255),w,b
  4523   0010C0  0B80               	andlw	128
  4524   0010C2  1B9F               	xorwf	___flmul@sign& (0+255),f,b
  4525   0010C4                     
  4526                           ; BSR set to: 0
  4527   0010C4  519A               	movf	(___flmul@a+3)& (0+255),w,b
  4528   0010C6  259A               	addwf	(___flmul@a+3)& (0+255),w,b
  4529   0010C8  6FA0               	movwf	___flmul@aexp& (0+255),b
  4530   0010CA                     
  4531                           ; BSR set to: 0
  4532   0010CA  AF99               	btfss	(___flmul@a+2)& (0+255),7,b
  4533   0010CC  EF6A  F008         	goto	u4291
  4534   0010D0  EF6C  F008         	goto	u4290
  4535   0010D4                     u4291:
  4536   0010D4  EF6D  F008         	goto	l4389
  4537   0010D8                     u4290:
  4538   0010D8                     
  4539                           ; BSR set to: 0
  4540   0010D8  81A0               	bsf	___flmul@aexp& (0+255),0,b
  4541   0010DA                     l4389:
  4542                           
  4543                           ; BSR set to: 0
  4544   0010DA  51A0               	movf	___flmul@aexp& (0+255),w,b
  4545   0010DC  B4D8               	btfsc	status,2,c
  4546   0010DE  EF73  F008         	goto	u4301
  4547   0010E2  EF75  F008         	goto	u4300
  4548   0010E6                     u4301:
  4549   0010E6  EF88  F008         	goto	l4397
  4550   0010EA                     u4300:
  4551   0010EA                     
  4552                           ; BSR set to: 0
  4553   0010EA  29A0               	incf	___flmul@aexp& (0+255),w,b
  4554   0010EC  A4D8               	btfss	status,2,c
  4555   0010EE  EF7B  F008         	goto	u4311
  4556   0010F2  EF7D  F008         	goto	u4310
  4557   0010F6                     u4311:
  4558   0010F6  EF85  F008         	goto	l4395
  4559   0010FA                     u4310:
  4560   0010FA                     
  4561                           ; BSR set to: 0
  4562   0010FA  0E00               	movlw	0
  4563   0010FC  6F97               	movwf	___flmul@a& (0+255),b
  4564   0010FE  0E00               	movlw	0
  4565   001100  6F98               	movwf	(___flmul@a+1)& (0+255),b
  4566   001102  0E00               	movlw	0
  4567   001104  6F99               	movwf	(___flmul@a+2)& (0+255),b
  4568   001106  0E00               	movlw	0
  4569   001108  6F9A               	movwf	(___flmul@a+3)& (0+255),b
  4570   00110A                     l4395:
  4571                           
  4572                           ; BSR set to: 0
  4573   00110A  8F99               	bsf	(___flmul@a+2)& (0+255),7,b
  4574   00110C  EF90  F008         	goto	l1092
  4575   001110                     l4397:
  4576                           
  4577                           ; BSR set to: 0
  4578   001110  0E00               	movlw	0
  4579   001112  6F97               	movwf	___flmul@a& (0+255),b
  4580   001114  0E00               	movlw	0
  4581   001116  6F98               	movwf	(___flmul@a+1)& (0+255),b
  4582   001118  0E00               	movlw	0
  4583   00111A  6F99               	movwf	(___flmul@a+2)& (0+255),b
  4584   00111C  0E00               	movlw	0
  4585   00111E  6F9A               	movwf	(___flmul@a+3)& (0+255),b
  4586   001120                     l1092:
  4587                           
  4588                           ; BSR set to: 0
  4589   001120  51A0               	movf	___flmul@aexp& (0+255),w,b
  4590   001122  B4D8               	btfsc	status,2,c
  4591   001124  EF96  F008         	goto	u4321
  4592   001128  EF98  F008         	goto	u4320
  4593   00112C                     u4321:
  4594   00112C  EFA0  F008         	goto	l4401
  4595   001130                     u4320:
  4596   001130                     
  4597                           ; BSR set to: 0
  4598   001130  51A5               	movf	___flmul@bexp& (0+255),w,b
  4599   001132  A4D8               	btfss	status,2,c
  4600   001134  EF9E  F008         	goto	u4331
  4601   001138  EFA0  F008         	goto	u4330
  4602   00113C                     u4331:
  4603   00113C  EFAA  F008         	goto	l4405
  4604   001140                     u4330:
  4605   001140                     l4401:
  4606                           
  4607                           ; BSR set to: 0
  4608   001140  0E00               	movlw	0
  4609   001142  6F93               	movwf	?___flmul& (0+255),b
  4610   001144  0E00               	movlw	0
  4611   001146  6F94               	movwf	(?___flmul+1)& (0+255),b
  4612   001148  0E00               	movlw	0
  4613   00114A  6F95               	movwf	(?___flmul+2)& (0+255),b
  4614   00114C  0E00               	movlw	0
  4615   00114E  6F96               	movwf	(?___flmul+3)& (0+255),b
  4616   001150  EF42  F00A         	goto	l1096
  4617   001154                     l4405:
  4618                           
  4619                           ; BSR set to: 0
  4620   001154  5199               	movf	(___flmul@a+2)& (0+255),w,b
  4621   001156  0393               	mulwf	___flmul@b& (0+255),b
  4622   001158  CFF3 F0AA          	movff	prodl,___flmul@temp
  4623   00115C  CFF4 F0AB          	movff	prodh,___flmul@temp+1
  4624   001160                     
  4625                           ; BSR set to: 0
  4626   001160  51AA               	movf	___flmul@temp& (0+255),w,b
  4627   001162  6FA1               	movwf	___flmul@grs& (0+255),b
  4628   001164  6BA2               	clrf	(___flmul@grs+1)& (0+255),b
  4629   001166  6BA3               	clrf	(___flmul@grs+2)& (0+255),b
  4630   001168  6BA4               	clrf	(___flmul@grs+3)& (0+255),b
  4631   00116A                     
  4632                           ; BSR set to: 0
  4633   00116A  51AB               	movf	(___flmul@temp+1)& (0+255),w,b
  4634   00116C  6FA6               	movwf	___flmul@prod& (0+255),b
  4635   00116E  6BA7               	clrf	(___flmul@prod+1)& (0+255),b
  4636   001170  6BA8               	clrf	(___flmul@prod+2)& (0+255),b
  4637   001172  6BA9               	clrf	(___flmul@prod+3)& (0+255),b
  4638   001174  5198               	movf	(___flmul@a+1)& (0+255),w,b
  4639   001176  0394               	mulwf	(___flmul@b+1)& (0+255),b
  4640   001178  CFF3 F0AA          	movff	prodl,___flmul@temp
  4641   00117C  CFF4 F0AB          	movff	prodh,___flmul@temp+1
  4642   001180                     
  4643                           ; BSR set to: 0
  4644   001180  51AA               	movf	___flmul@temp& (0+255),w,b
  4645   001182  27A1               	addwf	___flmul@grs& (0+255),f,b
  4646   001184  0E00               	movlw	0
  4647   001186  23A2               	addwfc	(___flmul@grs+1)& (0+255),f,b
  4648   001188  23A3               	addwfc	(___flmul@grs+2)& (0+255),f,b
  4649   00118A  23A4               	addwfc	(___flmul@grs+3)& (0+255),f,b
  4650   00118C                     
  4651                           ; BSR set to: 0
  4652   00118C  51AB               	movf	(___flmul@temp+1)& (0+255),w,b
  4653   00118E  27A6               	addwf	___flmul@prod& (0+255),f,b
  4654   001190  0E00               	movlw	0
  4655   001192  23A7               	addwfc	(___flmul@prod+1)& (0+255),f,b
  4656   001194  23A8               	addwfc	(___flmul@prod+2)& (0+255),f,b
  4657   001196  23A9               	addwfc	(___flmul@prod+3)& (0+255),f,b
  4658   001198  5197               	movf	___flmul@a& (0+255),w,b
  4659   00119A  0395               	mulwf	(___flmul@b+2)& (0+255),b
  4660   00119C  CFF3 F0AA          	movff	prodl,___flmul@temp
  4661   0011A0  CFF4 F0AB          	movff	prodh,___flmul@temp+1
  4662   0011A4                     
  4663                           ; BSR set to: 0
  4664   0011A4  51AA               	movf	___flmul@temp& (0+255),w,b
  4665   0011A6  27A1               	addwf	___flmul@grs& (0+255),f,b
  4666   0011A8  0E00               	movlw	0
  4667   0011AA  23A2               	addwfc	(___flmul@grs+1)& (0+255),f,b
  4668   0011AC  23A3               	addwfc	(___flmul@grs+2)& (0+255),f,b
  4669   0011AE  23A4               	addwfc	(___flmul@grs+3)& (0+255),f,b
  4670   0011B0                     
  4671                           ; BSR set to: 0
  4672   0011B0  51AB               	movf	(___flmul@temp+1)& (0+255),w,b
  4673   0011B2  27A6               	addwf	___flmul@prod& (0+255),f,b
  4674   0011B4  0E00               	movlw	0
  4675   0011B6  23A7               	addwfc	(___flmul@prod+1)& (0+255),f,b
  4676   0011B8  23A8               	addwfc	(___flmul@prod+2)& (0+255),f,b
  4677   0011BA  23A9               	addwfc	(___flmul@prod+3)& (0+255),f,b
  4678   0011BC                     
  4679                           ; BSR set to: 0
  4680   0011BC  C0A3  F0A4         	movff	___flmul@grs+2,___flmul@grs+3
  4681   0011C0  C0A2  F0A3         	movff	___flmul@grs+1,___flmul@grs+2
  4682   0011C4  C0A1  F0A2         	movff	___flmul@grs,___flmul@grs+1
  4683   0011C8  6BA1               	clrf	___flmul@grs& (0+255),b
  4684   0011CA                     
  4685                           ; BSR set to: 0
  4686   0011CA  5197               	movf	___flmul@a& (0+255),w,b
  4687   0011CC  0394               	mulwf	(___flmul@b+1)& (0+255),b
  4688   0011CE  CFF3 F0AA          	movff	prodl,___flmul@temp
  4689   0011D2  CFF4 F0AB          	movff	prodh,___flmul@temp+1
  4690   0011D6                     
  4691                           ; BSR set to: 0
  4692   0011D6  51AA               	movf	___flmul@temp& (0+255),w,b
  4693   0011D8  27A1               	addwf	___flmul@grs& (0+255),f,b
  4694   0011DA  51AB               	movf	(___flmul@temp+1)& (0+255),w,b
  4695   0011DC  23A2               	addwfc	(___flmul@grs+1)& (0+255),f,b
  4696   0011DE  0E00               	movlw	0
  4697   0011E0  23A3               	addwfc	(___flmul@grs+2)& (0+255),f,b
  4698   0011E2  0E00               	movlw	0
  4699   0011E4  23A4               	addwfc	(___flmul@grs+3)& (0+255),f,b
  4700   0011E6                     
  4701                           ; BSR set to: 0
  4702   0011E6  5198               	movf	(___flmul@a+1)& (0+255),w,b
  4703   0011E8  0393               	mulwf	___flmul@b& (0+255),b
  4704   0011EA  CFF3 F0AA          	movff	prodl,___flmul@temp
  4705   0011EE  CFF4 F0AB          	movff	prodh,___flmul@temp+1
  4706   0011F2                     
  4707                           ; BSR set to: 0
  4708   0011F2  51AA               	movf	___flmul@temp& (0+255),w,b
  4709   0011F4  27A1               	addwf	___flmul@grs& (0+255),f,b
  4710   0011F6  51AB               	movf	(___flmul@temp+1)& (0+255),w,b
  4711   0011F8  23A2               	addwfc	(___flmul@grs+1)& (0+255),f,b
  4712   0011FA  0E00               	movlw	0
  4713   0011FC  23A3               	addwfc	(___flmul@grs+2)& (0+255),f,b
  4714   0011FE  0E00               	movlw	0
  4715   001200  23A4               	addwfc	(___flmul@grs+3)& (0+255),f,b
  4716   001202                     
  4717                           ; BSR set to: 0
  4718   001202  C0A3  F0A4         	movff	___flmul@grs+2,___flmul@grs+3
  4719   001206  C0A2  F0A3         	movff	___flmul@grs+1,___flmul@grs+2
  4720   00120A  C0A1  F0A2         	movff	___flmul@grs,___flmul@grs+1
  4721   00120E  6BA1               	clrf	___flmul@grs& (0+255),b
  4722   001210  5197               	movf	___flmul@a& (0+255),w,b
  4723   001212  0393               	mulwf	___flmul@b& (0+255),b
  4724   001214  CFF3 F0AA          	movff	prodl,___flmul@temp
  4725   001218  CFF4 F0AB          	movff	prodh,___flmul@temp+1
  4726   00121C                     
  4727                           ; BSR set to: 0
  4728   00121C  51AA               	movf	___flmul@temp& (0+255),w,b
  4729   00121E  27A1               	addwf	___flmul@grs& (0+255),f,b
  4730   001220  51AB               	movf	(___flmul@temp+1)& (0+255),w,b
  4731   001222  23A2               	addwfc	(___flmul@grs+1)& (0+255),f,b
  4732   001224  0E00               	movlw	0
  4733   001226  23A3               	addwfc	(___flmul@grs+2)& (0+255),f,b
  4734   001228  0E00               	movlw	0
  4735   00122A  23A4               	addwfc	(___flmul@grs+3)& (0+255),f,b
  4736   00122C                     
  4737                           ; BSR set to: 0
  4738   00122C  5199               	movf	(___flmul@a+2)& (0+255),w,b
  4739   00122E  0394               	mulwf	(___flmul@b+1)& (0+255),b
  4740   001230  CFF3 F0AA          	movff	prodl,___flmul@temp
  4741   001234  CFF4 F0AB          	movff	prodh,___flmul@temp+1
  4742   001238  51AA               	movf	___flmul@temp& (0+255),w,b
  4743   00123A  27A6               	addwf	___flmul@prod& (0+255),f,b
  4744   00123C  51AB               	movf	(___flmul@temp+1)& (0+255),w,b
  4745   00123E  23A7               	addwfc	(___flmul@prod+1)& (0+255),f,b
  4746   001240  0E00               	movlw	0
  4747   001242  23A8               	addwfc	(___flmul@prod+2)& (0+255),f,b
  4748   001244  0E00               	movlw	0
  4749   001246  23A9               	addwfc	(___flmul@prod+3)& (0+255),f,b
  4750   001248                     
  4751                           ; BSR set to: 0
  4752   001248  5198               	movf	(___flmul@a+1)& (0+255),w,b
  4753   00124A  0395               	mulwf	(___flmul@b+2)& (0+255),b
  4754   00124C  CFF3 F0AA          	movff	prodl,___flmul@temp
  4755   001250  CFF4 F0AB          	movff	prodh,___flmul@temp+1
  4756   001254                     
  4757                           ; BSR set to: 0
  4758   001254  51AA               	movf	___flmul@temp& (0+255),w,b
  4759   001256  27A6               	addwf	___flmul@prod& (0+255),f,b
  4760   001258  51AB               	movf	(___flmul@temp+1)& (0+255),w,b
  4761   00125A  23A7               	addwfc	(___flmul@prod+1)& (0+255),f,b
  4762   00125C  0E00               	movlw	0
  4763   00125E  23A8               	addwfc	(___flmul@prod+2)& (0+255),f,b
  4764   001260  0E00               	movlw	0
  4765   001262  23A9               	addwfc	(___flmul@prod+3)& (0+255),f,b
  4766   001264  5199               	movf	(___flmul@a+2)& (0+255),w,b
  4767   001266  0395               	mulwf	(___flmul@b+2)& (0+255),b
  4768   001268  CFF3 F0AA          	movff	prodl,___flmul@temp
  4769   00126C  CFF4 F0AB          	movff	prodh,___flmul@temp+1
  4770   001270                     
  4771                           ; BSR set to: 0
  4772   001270  51AA               	movf	___flmul@temp& (0+255),w,b
  4773   001272  6F9B               	movwf	??___flmul& (0+255),b
  4774   001274  51AB               	movf	(___flmul@temp+1)& (0+255),w,b
  4775   001276  6F9C               	movwf	(??___flmul+1)& (0+255),b
  4776   001278  6B9D               	clrf	(??___flmul+2)& (0+255),b
  4777   00127A  6B9E               	clrf	(??___flmul+3)& (0+255),b
  4778   00127C  C09D  F09E         	movff	??___flmul+2,??___flmul+3
  4779   001280  C09C  F09D         	movff	??___flmul+1,??___flmul+2
  4780   001284  C09B  F09C         	movff	??___flmul,??___flmul+1
  4781   001288  6B9B               	clrf	??___flmul& (0+255),b
  4782   00128A  519B               	movf	??___flmul& (0+255),w,b
  4783   00128C  27A6               	addwf	___flmul@prod& (0+255),f,b
  4784   00128E  519C               	movf	(??___flmul+1)& (0+255),w,b
  4785   001290  23A7               	addwfc	(___flmul@prod+1)& (0+255),f,b
  4786   001292  519D               	movf	(??___flmul+2)& (0+255),w,b
  4787   001294  23A8               	addwfc	(___flmul@prod+2)& (0+255),f,b
  4788   001296  519E               	movf	(??___flmul+3)& (0+255),w,b
  4789   001298  23A9               	addwfc	(___flmul@prod+3)& (0+255),f,b
  4790   00129A                     
  4791                           ; BSR set to: 0
  4792   00129A  C0A1  F09B         	movff	___flmul@grs,??___flmul
  4793   00129E  C0A2  F09C         	movff	___flmul@grs+1,??___flmul+1
  4794   0012A2  C0A3  F09D         	movff	___flmul@grs+2,??___flmul+2
  4795   0012A6  C0A4  F09E         	movff	___flmul@grs+3,??___flmul+3
  4796   0012AA  0E19               	movlw	25
  4797   0012AC  EF5D  F009         	goto	u4340
  4798   0012B0                     u4345:
  4799   0012B0  90D8               	bcf	status,0,c
  4800   0012B2  339E               	rrcf	(??___flmul+3)& (0+255),f,b
  4801   0012B4  339D               	rrcf	(??___flmul+2)& (0+255),f,b
  4802   0012B6  339C               	rrcf	(??___flmul+1)& (0+255),f,b
  4803   0012B8  339B               	rrcf	??___flmul& (0+255),f,b
  4804   0012BA                     u4340:
  4805   0012BA  2EE8               	decfsz	wreg,f,c
  4806   0012BC  EF58  F009         	goto	u4345
  4807   0012C0  519B               	movf	??___flmul& (0+255),w,b
  4808   0012C2  27A6               	addwf	___flmul@prod& (0+255),f,b
  4809   0012C4  519C               	movf	(??___flmul+1)& (0+255),w,b
  4810   0012C6  23A7               	addwfc	(___flmul@prod+1)& (0+255),f,b
  4811   0012C8  519D               	movf	(??___flmul+2)& (0+255),w,b
  4812   0012CA  23A8               	addwfc	(___flmul@prod+2)& (0+255),f,b
  4813   0012CC  519E               	movf	(??___flmul+3)& (0+255),w,b
  4814   0012CE  23A9               	addwfc	(___flmul@prod+3)& (0+255),f,b
  4815   0012D0                     
  4816                           ; BSR set to: 0
  4817   0012D0  C0A3  F0A4         	movff	___flmul@grs+2,___flmul@grs+3
  4818   0012D4  C0A2  F0A3         	movff	___flmul@grs+1,___flmul@grs+2
  4819   0012D8  C0A1  F0A2         	movff	___flmul@grs,___flmul@grs+1
  4820   0012DC  6BA1               	clrf	___flmul@grs& (0+255),b
  4821   0012DE                     
  4822                           ; BSR set to: 0
  4823   0012DE  51A0               	movf	___flmul@aexp& (0+255),w,b
  4824   0012E0  C0A5  F09B         	movff	___flmul@bexp,??___flmul
  4825   0012E4  6B9C               	clrf	(??___flmul+1)& (0+255),b
  4826   0012E6  279B               	addwf	??___flmul& (0+255),f,b
  4827   0012E8  0E00               	movlw	0
  4828   0012EA  239C               	addwfc	(??___flmul+1)& (0+255),f,b
  4829   0012EC  0E82               	movlw	130
  4830   0012EE  259B               	addwf	??___flmul& (0+255),w,b
  4831   0012F0  6FAA               	movwf	___flmul@temp& (0+255),b
  4832   0012F2  0EFF               	movlw	255
  4833   0012F4  219C               	addwfc	(??___flmul+1)& (0+255),w,b
  4834   0012F6  6FAB               	movwf	(___flmul@temp+1)& (0+255),b
  4835   0012F8  EF93  F009         	goto	l4453
  4836   0012FC                     l4447:
  4837                           
  4838                           ; BSR set to: 0
  4839   0012FC  90D8               	bcf	status,0,c
  4840   0012FE  37A6               	rlcf	___flmul@prod& (0+255),f,b
  4841   001300  37A7               	rlcf	(___flmul@prod+1)& (0+255),f,b
  4842   001302  37A8               	rlcf	(___flmul@prod+2)& (0+255),f,b
  4843   001304  37A9               	rlcf	(___flmul@prod+3)& (0+255),f,b
  4844   001306                     
  4845                           ; BSR set to: 0
  4846   001306  AFA4               	btfss	(___flmul@grs+3)& (0+255),7,b
  4847   001308  EF88  F009         	goto	u4351
  4848   00130C  EF8A  F009         	goto	u4350
  4849   001310                     u4351:
  4850   001310  EF8B  F009         	goto	l1099
  4851   001314                     u4350:
  4852   001314                     
  4853                           ; BSR set to: 0
  4854   001314  81A6               	bsf	___flmul@prod& (0+255),0,b
  4855   001316                     l1099:
  4856                           
  4857                           ; BSR set to: 0
  4858   001316  90D8               	bcf	status,0,c
  4859   001318  37A1               	rlcf	___flmul@grs& (0+255),f,b
  4860   00131A  37A2               	rlcf	(___flmul@grs+1)& (0+255),f,b
  4861   00131C  37A3               	rlcf	(___flmul@grs+2)& (0+255),f,b
  4862   00131E  37A4               	rlcf	(___flmul@grs+3)& (0+255),f,b
  4863   001320  07AA               	decf	___flmul@temp& (0+255),f,b
  4864   001322  A0D8               	btfss	status,0,c
  4865   001324  07AB               	decf	(___flmul@temp+1)& (0+255),f,b
  4866   001326                     l4453:
  4867                           
  4868                           ; BSR set to: 0
  4869   001326  AFA8               	btfss	(___flmul@prod+2)& (0+255),7,b
  4870   001328  EF98  F009         	goto	u4361
  4871   00132C  EF9A  F009         	goto	u4360
  4872   001330                     u4361:
  4873   001330  EF7E  F009         	goto	l4447
  4874   001334                     u4360:
  4875   001334                     
  4876                           ; BSR set to: 0
  4877   001334  0E00               	movlw	0
  4878   001336  6FA0               	movwf	___flmul@aexp& (0+255),b
  4879   001338                     
  4880                           ; BSR set to: 0
  4881   001338  AFA4               	btfss	(___flmul@grs+3)& (0+255),7,b
  4882   00133A  EFA1  F009         	goto	u4371
  4883   00133E  EFA3  F009         	goto	u4370
  4884   001342                     u4371:
  4885   001342  EFC7  F009         	goto	l1101
  4886   001346                     u4370:
  4887   001346                     
  4888                           ; BSR set to: 0
  4889   001346  0EFF               	movlw	255
  4890   001348  15A1               	andwf	___flmul@grs& (0+255),w,b
  4891   00134A  6F9B               	movwf	??___flmul& (0+255),b
  4892   00134C  0EFF               	movlw	255
  4893   00134E  15A2               	andwf	(___flmul@grs+1)& (0+255),w,b
  4894   001350  6F9C               	movwf	(??___flmul+1)& (0+255),b
  4895   001352  0EFF               	movlw	255
  4896   001354  15A3               	andwf	(___flmul@grs+2)& (0+255),w,b
  4897   001356  6F9D               	movwf	(??___flmul+2)& (0+255),b
  4898   001358  0E7F               	movlw	127
  4899   00135A  15A4               	andwf	(___flmul@grs+3)& (0+255),w,b
  4900   00135C  6F9E               	movwf	(??___flmul+3)& (0+255),b
  4901   00135E  519B               	movf	??___flmul& (0+255),w,b
  4902   001360  119C               	iorwf	(??___flmul+1)& (0+255),w,b
  4903   001362  119D               	iorwf	(??___flmul+2)& (0+255),w,b
  4904   001364  119E               	iorwf	(??___flmul+3)& (0+255),w,b
  4905   001366  B4D8               	btfsc	status,2,c
  4906   001368  EFB8  F009         	goto	u4381
  4907   00136C  EFBA  F009         	goto	u4380
  4908   001370                     u4381:
  4909   001370  EFBE  F009         	goto	l1102
  4910   001374                     u4380:
  4911   001374                     l4461:
  4912                           
  4913                           ; BSR set to: 0
  4914   001374  0E01               	movlw	1
  4915   001376  6FA0               	movwf	___flmul@aexp& (0+255),b
  4916   001378  EFC7  F009         	goto	l1101
  4917   00137C                     l1102:
  4918                           
  4919                           ; BSR set to: 0
  4920   00137C  A1A6               	btfss	___flmul@prod& (0+255),0,b
  4921   00137E  EFC3  F009         	goto	u4391
  4922   001382  EFC5  F009         	goto	u4390
  4923   001386                     u4391:
  4924   001386  EFC7  F009         	goto	l1101
  4925   00138A                     u4390:
  4926   00138A  EFBA  F009         	goto	l4461
  4927   00138E                     l1101:
  4928                           
  4929                           ; BSR set to: 0
  4930   00138E  51A0               	movf	___flmul@aexp& (0+255),w,b
  4931   001390  B4D8               	btfsc	status,2,c
  4932   001392  EFCD  F009         	goto	u4401
  4933   001396  EFCF  F009         	goto	u4400
  4934   00139A                     u4401:
  4935   00139A  EFF3  F009         	goto	l4473
  4936   00139E                     u4400:
  4937   00139E                     
  4938                           ; BSR set to: 0
  4939   00139E  0E01               	movlw	1
  4940   0013A0  27A6               	addwf	___flmul@prod& (0+255),f,b
  4941   0013A2  0E00               	movlw	0
  4942   0013A4  23A7               	addwfc	(___flmul@prod+1)& (0+255),f,b
  4943   0013A6  23A8               	addwfc	(___flmul@prod+2)& (0+255),f,b
  4944   0013A8  23A9               	addwfc	(___flmul@prod+3)& (0+255),f,b
  4945   0013AA                     
  4946                           ; BSR set to: 0
  4947   0013AA  A1A9               	btfss	(___flmul@prod+3)& (0+255),0,b
  4948   0013AC  EFDA  F009         	goto	u4411
  4949   0013B0  EFDC  F009         	goto	u4410
  4950   0013B4                     u4411:
  4951   0013B4  EFF3  F009         	goto	l4473
  4952   0013B8                     u4410:
  4953   0013B8                     
  4954                           ; BSR set to: 0
  4955   0013B8  C0A6  F09B         	movff	___flmul@prod,??___flmul
  4956   0013BC  C0A7  F09C         	movff	___flmul@prod+1,??___flmul+1
  4957   0013C0  C0A8  F09D         	movff	___flmul@prod+2,??___flmul+2
  4958   0013C4  C0A9  F09E         	movff	___flmul@prod+3,??___flmul+3
  4959   0013C8  359E               	rlcf	(??___flmul+3)& (0+255),w,b
  4960   0013CA  339E               	rrcf	(??___flmul+3)& (0+255),f,b
  4961   0013CC  339D               	rrcf	(??___flmul+2)& (0+255),f,b
  4962   0013CE  339C               	rrcf	(??___flmul+1)& (0+255),f,b
  4963   0013D0  339B               	rrcf	??___flmul& (0+255),f,b
  4964   0013D2  C09B  F0A6         	movff	??___flmul,___flmul@prod
  4965   0013D6  C09C  F0A7         	movff	??___flmul+1,___flmul@prod+1
  4966   0013DA  C09D  F0A8         	movff	??___flmul+2,___flmul@prod+2
  4967   0013DE  C09E  F0A9         	movff	??___flmul+3,___flmul@prod+3
  4968   0013E2                     
  4969                           ; BSR set to: 0
  4970   0013E2  4BAA               	infsnz	___flmul@temp& (0+255),f,b
  4971   0013E4  2BAB               	incf	(___flmul@temp+1)& (0+255),f,b
  4972   0013E6                     l4473:
  4973                           
  4974                           ; BSR set to: 0
  4975   0013E6  BFAB               	btfsc	(___flmul@temp+1)& (0+255),7,b
  4976   0013E8  EFFE  F009         	goto	u4421
  4977   0013EC  51AB               	movf	(___flmul@temp+1)& (0+255),w,b
  4978   0013EE  E108               	bnz	u4420
  4979   0013F0  29AA               	incf	___flmul@temp& (0+255),w,b
  4980   0013F2  A0D8               	btfss	status,0,c
  4981   0013F4  EFFE  F009         	goto	u4421
  4982   0013F8  EF00  F00A         	goto	u4420
  4983   0013FC                     u4421:
  4984   0013FC  EF0A  F00A         	goto	l4477
  4985   001400                     u4420:
  4986   001400                     
  4987                           ; BSR set to: 0
  4988   001400  0E00               	movlw	0
  4989   001402  6FA6               	movwf	___flmul@prod& (0+255),b
  4990   001404  0E00               	movlw	0
  4991   001406  6FA7               	movwf	(___flmul@prod+1)& (0+255),b
  4992   001408  0E80               	movlw	128
  4993   00140A  6FA8               	movwf	(___flmul@prod+2)& (0+255),b
  4994   00140C  0E7F               	movlw	127
  4995   00140E  6FA9               	movwf	(___flmul@prod+3)& (0+255),b
  4996   001410  EF38  F00A         	goto	l4489
  4997   001414                     l4477:
  4998                           
  4999                           ; BSR set to: 0
  5000   001414  BFAB               	btfsc	(___flmul@temp+1)& (0+255),7,b
  5001   001416  EF17  F00A         	goto	u4430
  5002   00141A  51AB               	movf	(___flmul@temp+1)& (0+255),w,b
  5003   00141C  E106               	bnz	u4431
  5004   00141E  05AA               	decf	___flmul@temp& (0+255),w,b
  5005   001420  B0D8               	btfsc	status,0,c
  5006   001422  EF15  F00A         	goto	u4431
  5007   001426  EF17  F00A         	goto	u4430
  5008   00142A                     u4431:
  5009   00142A  EF23  F00A         	goto	l1109
  5010   00142E                     u4430:
  5011   00142E                     
  5012                           ; BSR set to: 0
  5013   00142E  0E00               	movlw	0
  5014   001430  6FA6               	movwf	___flmul@prod& (0+255),b
  5015   001432  0E00               	movlw	0
  5016   001434  6FA7               	movwf	(___flmul@prod+1)& (0+255),b
  5017   001436  0E00               	movlw	0
  5018   001438  6FA8               	movwf	(___flmul@prod+2)& (0+255),b
  5019   00143A  0E00               	movlw	0
  5020   00143C  6FA9               	movwf	(___flmul@prod+3)& (0+255),b
  5021   00143E  0E00               	movlw	0
  5022   001440  6F9F               	movwf	___flmul@sign& (0+255),b
  5023   001442  EF38  F00A         	goto	l4489
  5024   001446                     l1109:
  5025                           
  5026                           ; BSR set to: 0
  5027   001446  C0AA  F0A5         	movff	___flmul@temp,___flmul@bexp
  5028   00144A                     
  5029                           ; BSR set to: 0
  5030   00144A  0EFF               	movlw	255
  5031   00144C  17A6               	andwf	___flmul@prod& (0+255),f,b
  5032   00144E  0EFF               	movlw	255
  5033   001450  17A7               	andwf	(___flmul@prod+1)& (0+255),f,b
  5034   001452  0E7F               	movlw	127
  5035   001454  17A8               	andwf	(___flmul@prod+2)& (0+255),f,b
  5036   001456  0E00               	movlw	0
  5037   001458  17A9               	andwf	(___flmul@prod+3)& (0+255),f,b
  5038   00145A                     
  5039                           ; BSR set to: 0
  5040   00145A  A1A5               	btfss	___flmul@bexp& (0+255),0,b
  5041   00145C  EF32  F00A         	goto	u4441
  5042   001460  EF34  F00A         	goto	u4440
  5043   001464                     u4441:
  5044   001464  EF35  F00A         	goto	l4487
  5045   001468                     u4440:
  5046   001468                     
  5047                           ; BSR set to: 0
  5048   001468  8FA8               	bsf	(___flmul@prod+2)& (0+255),7,b
  5049   00146A                     l4487:
  5050                           
  5051                           ; BSR set to: 0
  5052   00146A  90D8               	bcf	status,0,c
  5053   00146C  31A5               	rrcf	___flmul@bexp& (0+255),w,b
  5054   00146E  6FA9               	movwf	(___flmul@prod+3)& (0+255),b
  5055   001470                     l4489:
  5056                           
  5057                           ; BSR set to: 0
  5058   001470  519F               	movf	___flmul@sign& (0+255),w,b
  5059   001472  13A9               	iorwf	(___flmul@prod+3)& (0+255),f,b
  5060   001474                     
  5061                           ; BSR set to: 0
  5062   001474  C0A6  F093         	movff	___flmul@prod,?___flmul
  5063   001478  C0A7  F094         	movff	___flmul@prod+1,?___flmul+1
  5064   00147C  C0A8  F095         	movff	___flmul@prod+2,?___flmul+2
  5065   001480  C0A9  F096         	movff	___flmul@prod+3,?___flmul+3
  5066   001484                     l1096:
  5067                           
  5068                           ; BSR set to: 0
  5069   001484  0012               	return		;funcret
  5070   001486                     __end_of___flmul:
  5071                           	callstack 0
  5072                           
  5073 ;; *************** function ___fldiv *****************
  5074 ;; Defined at:
  5075 ;;		line 11 in file "C:\Program Files\Microchip\xc8\v2.46\pic\sources\c99\common\sprcdiv.c"
  5076 ;; Parameters:    Size  Location     Type
  5077 ;;  b               4   26[BANK0 ] unsigned char 
  5078 ;;  a               4   30[BANK0 ] unsigned char 
  5079 ;; Auto vars:     Size  Location     Type
  5080 ;;  grs             4   45[BANK0 ] unsigned long 
  5081 ;;  rem             4   38[BANK0 ] unsigned long 
  5082 ;;  new_exp         2   43[BANK0 ] short 
  5083 ;;  aexp            1   50[BANK0 ] unsigned char 
  5084 ;;  bexp            1   49[BANK0 ] unsigned char 
  5085 ;;  sign            1   42[BANK0 ] unsigned char 
  5086 ;; Return value:  Size  Location     Type
  5087 ;;                  4   26[BANK0 ] unsigned char 
  5088 ;; Registers used:
  5089 ;;		wreg, status,2, status,0
  5090 ;; Tracked objects:
  5091 ;;		On entry : 0/0
  5092 ;;		On exit  : 0/0
  5093 ;;		Unchanged: 0/0
  5094 ;; Data sizes:     COMRAM   BANK0   BANK1   BANK2   BANK3   BANK4   BANK5   BANK6   BANK7   BANK8   BANK9  BANK10  BANK1
      +1  BANK12  BANK13  BANK14  BANK15
  5095 ;;      Params:         0       8       0       0       0       0       0       0       0       0       0       0       
      +0       0       0       0       0
  5096 ;;      Locals:         0      13       0       0       0       0       0       0       0       0       0       0       
      +0       0       0       0       0
  5097 ;;      Temps:          0       4       0       0       0       0       0       0       0       0       0       0       
      +0       0       0       0       0
  5098 ;;      Totals:         0      25       0       0       0       0       0       0       0       0       0       0       
      +0       0       0       0       0
  5099 ;;Total ram usage:       25 bytes
  5100 ;; Hardware stack levels used: 1
  5101 ;; Hardware stack levels required when called: 8
  5102 ;; This function calls:
  5103 ;;		Nothing
  5104 ;; This function is called by:
  5105 ;;		_main
  5106 ;;		_Calculate_bpm
  5107 ;; This function uses a non-reentrant model
  5108 ;;
  5109                           
  5110                           	psect	text34
  5111   0018B0                     __ptext34:
  5112                           	callstack 0
  5113   0018B0                     ___fldiv:
  5114                           	callstack 22
  5115   0018B0  0100               	movlb	0	; () banked
  5116   0018B2  517D               	movf	(___fldiv@b+3)& (0+255),w,b
  5117   0018B4  0B80               	andlw	128
  5118   0018B6  6F8A               	movwf	___fldiv@sign& (0+255),b
  5119   0018B8  517D               	movf	(___fldiv@b+3)& (0+255),w,b
  5120   0018BA  257D               	addwf	(___fldiv@b+3)& (0+255),w,b
  5121   0018BC  6F91               	movwf	___fldiv@bexp& (0+255),b
  5122   0018BE                     
  5123                           ; BSR set to: 0
  5124   0018BE  AF7C               	btfss	(___fldiv@b+2)& (0+255),7,b
  5125   0018C0  EF64  F00C         	goto	u4031
  5126   0018C4  EF66  F00C         	goto	u4030
  5127   0018C8                     u4031:
  5128   0018C8  EF67  F00C         	goto	l4233
  5129   0018CC                     u4030:
  5130   0018CC                     
  5131                           ; BSR set to: 0
  5132   0018CC  8191               	bsf	___fldiv@bexp& (0+255),0,b
  5133   0018CE                     l4233:
  5134                           
  5135                           ; BSR set to: 0
  5136   0018CE  5191               	movf	___fldiv@bexp& (0+255),w,b
  5137   0018D0  B4D8               	btfsc	status,2,c
  5138   0018D2  EF6D  F00C         	goto	u4041
  5139   0018D6  EF6F  F00C         	goto	u4040
  5140   0018DA                     u4041:
  5141   0018DA  EF84  F00C         	goto	l4243
  5142   0018DE                     u4040:
  5143   0018DE                     
  5144                           ; BSR set to: 0
  5145   0018DE  2991               	incf	___fldiv@bexp& (0+255),w,b
  5146   0018E0  A4D8               	btfss	status,2,c
  5147   0018E2  EF75  F00C         	goto	u4051
  5148   0018E6  EF77  F00C         	goto	u4050
  5149   0018EA                     u4051:
  5150   0018EA  EF7F  F00C         	goto	l4239
  5151   0018EE                     u4050:
  5152   0018EE                     
  5153                           ; BSR set to: 0
  5154   0018EE  0E00               	movlw	0
  5155   0018F0  6F7A               	movwf	___fldiv@b& (0+255),b
  5156   0018F2  0E00               	movlw	0
  5157   0018F4  6F7B               	movwf	(___fldiv@b+1)& (0+255),b
  5158   0018F6  0E00               	movlw	0
  5159   0018F8  6F7C               	movwf	(___fldiv@b+2)& (0+255),b
  5160   0018FA  0E00               	movlw	0
  5161   0018FC  6F7D               	movwf	(___fldiv@b+3)& (0+255),b
  5162   0018FE                     l4239:
  5163                           
  5164                           ; BSR set to: 0
  5165   0018FE  8F7C               	bsf	(___fldiv@b+2)& (0+255),7,b
  5166   001900                     
  5167                           ; BSR set to: 0
  5168   001900  0E00               	movlw	0
  5169   001902  6F7D               	movwf	(___fldiv@b+3)& (0+255),b
  5170   001904  EF8C  F00C         	goto	l4245
  5171   001908                     l4243:
  5172                           
  5173                           ; BSR set to: 0
  5174   001908  0E00               	movlw	0
  5175   00190A  6F7A               	movwf	___fldiv@b& (0+255),b
  5176   00190C  0E00               	movlw	0
  5177   00190E  6F7B               	movwf	(___fldiv@b+1)& (0+255),b
  5178   001910  0E00               	movlw	0
  5179   001912  6F7C               	movwf	(___fldiv@b+2)& (0+255),b
  5180   001914  0E00               	movlw	0
  5181   001916  6F7D               	movwf	(___fldiv@b+3)& (0+255),b
  5182   001918                     l4245:
  5183                           
  5184                           ; BSR set to: 0
  5185   001918  5181               	movf	(___fldiv@a+3)& (0+255),w,b
  5186   00191A  0B80               	andlw	128
  5187   00191C  1B8A               	xorwf	___fldiv@sign& (0+255),f,b
  5188   00191E                     
  5189                           ; BSR set to: 0
  5190   00191E  5181               	movf	(___fldiv@a+3)& (0+255),w,b
  5191   001920  2581               	addwf	(___fldiv@a+3)& (0+255),w,b
  5192   001922  6F92               	movwf	___fldiv@aexp& (0+255),b
  5193   001924                     
  5194                           ; BSR set to: 0
  5195   001924  AF80               	btfss	(___fldiv@a+2)& (0+255),7,b
  5196   001926  EF97  F00C         	goto	u4061
  5197   00192A  EF99  F00C         	goto	u4060
  5198   00192E                     u4061:
  5199   00192E  EF9A  F00C         	goto	l4253
  5200   001932                     u4060:
  5201   001932                     
  5202                           ; BSR set to: 0
  5203   001932  8192               	bsf	___fldiv@aexp& (0+255),0,b
  5204   001934                     l4253:
  5205                           
  5206                           ; BSR set to: 0
  5207   001934  5192               	movf	___fldiv@aexp& (0+255),w,b
  5208   001936  B4D8               	btfsc	status,2,c
  5209   001938  EFA0  F00C         	goto	u4071
  5210   00193C  EFA2  F00C         	goto	u4070
  5211   001940                     u4071:
  5212   001940  EFB7  F00C         	goto	l4263
  5213   001944                     u4070:
  5214   001944                     
  5215                           ; BSR set to: 0
  5216   001944  2992               	incf	___fldiv@aexp& (0+255),w,b
  5217   001946  A4D8               	btfss	status,2,c
  5218   001948  EFA8  F00C         	goto	u4081
  5219   00194C  EFAA  F00C         	goto	u4080
  5220   001950                     u4081:
  5221   001950  EFB2  F00C         	goto	l4259
  5222   001954                     u4080:
  5223   001954                     
  5224                           ; BSR set to: 0
  5225   001954  0E00               	movlw	0
  5226   001956  6F7E               	movwf	___fldiv@a& (0+255),b
  5227   001958  0E00               	movlw	0
  5228   00195A  6F7F               	movwf	(___fldiv@a+1)& (0+255),b
  5229   00195C  0E00               	movlw	0
  5230   00195E  6F80               	movwf	(___fldiv@a+2)& (0+255),b
  5231   001960  0E00               	movlw	0
  5232   001962  6F81               	movwf	(___fldiv@a+3)& (0+255),b
  5233   001964                     l4259:
  5234                           
  5235                           ; BSR set to: 0
  5236   001964  8F80               	bsf	(___fldiv@a+2)& (0+255),7,b
  5237   001966                     
  5238                           ; BSR set to: 0
  5239   001966  0E00               	movlw	0
  5240   001968  6F81               	movwf	(___fldiv@a+3)& (0+255),b
  5241   00196A  EFBF  F00C         	goto	l4265
  5242   00196E                     l4263:
  5243                           
  5244                           ; BSR set to: 0
  5245   00196E  0E00               	movlw	0
  5246   001970  6F7E               	movwf	___fldiv@a& (0+255),b
  5247   001972  0E00               	movlw	0
  5248   001974  6F7F               	movwf	(___fldiv@a+1)& (0+255),b
  5249   001976  0E00               	movlw	0
  5250   001978  6F80               	movwf	(___fldiv@a+2)& (0+255),b
  5251   00197A  0E00               	movlw	0
  5252   00197C  6F81               	movwf	(___fldiv@a+3)& (0+255),b
  5253   00197E                     l4265:
  5254                           
  5255                           ; BSR set to: 0
  5256   00197E  517E               	movf	___fldiv@a& (0+255),w,b
  5257   001980  117F               	iorwf	(___fldiv@a+1)& (0+255),w,b
  5258   001982  1180               	iorwf	(___fldiv@a+2)& (0+255),w,b
  5259   001984  1181               	iorwf	(___fldiv@a+3)& (0+255),w,b
  5260   001986  A4D8               	btfss	status,2,c
  5261   001988  EFC8  F00C         	goto	u4091
  5262   00198C  EFCA  F00C         	goto	u4090
  5263   001990                     u4091:
  5264   001990  EFE2  F00C         	goto	l4277
  5265   001994                     u4090:
  5266   001994                     
  5267                           ; BSR set to: 0
  5268   001994  0E00               	movlw	0
  5269   001996  6F7A               	movwf	___fldiv@b& (0+255),b
  5270   001998  0E00               	movlw	0
  5271   00199A  6F7B               	movwf	(___fldiv@b+1)& (0+255),b
  5272   00199C  0E00               	movlw	0
  5273   00199E  6F7C               	movwf	(___fldiv@b+2)& (0+255),b
  5274   0019A0  0E00               	movlw	0
  5275   0019A2  6F7D               	movwf	(___fldiv@b+3)& (0+255),b
  5276   0019A4                     
  5277                           ; BSR set to: 0
  5278   0019A4  0E80               	movlw	128
  5279   0019A6  137C               	iorwf	(___fldiv@b+2)& (0+255),f,b
  5280   0019A8  0E7F               	movlw	127
  5281   0019AA  137D               	iorwf	(___fldiv@b+3)& (0+255),f,b
  5282   0019AC                     l4271:
  5283                           
  5284                           ; BSR set to: 0
  5285   0019AC  518A               	movf	___fldiv@sign& (0+255),w,b
  5286   0019AE  137D               	iorwf	(___fldiv@b+3)& (0+255),f,b
  5287   0019B0                     
  5288                           ; BSR set to: 0
  5289   0019B0  C07A  F07A         	movff	___fldiv@b,?___fldiv
  5290   0019B4  C07B  F07B         	movff	___fldiv@b+1,?___fldiv+1
  5291   0019B8  C07C  F07C         	movff	___fldiv@b+2,?___fldiv+2
  5292   0019BC  C07D  F07D         	movff	___fldiv@b+3,?___fldiv+3
  5293   0019C0  EF25  F00E         	goto	l1060
  5294   0019C4                     l4277:
  5295                           
  5296                           ; BSR set to: 0
  5297   0019C4  5191               	movf	___fldiv@bexp& (0+255),w,b
  5298   0019C6  A4D8               	btfss	status,2,c
  5299   0019C8  EFE8  F00C         	goto	u4101
  5300   0019CC  EFEA  F00C         	goto	u4100
  5301   0019D0                     u4101:
  5302   0019D0  EFF4  F00C         	goto	l4285
  5303   0019D4                     u4100:
  5304   0019D4                     
  5305                           ; BSR set to: 0
  5306   0019D4  0E00               	movlw	0
  5307   0019D6  6F7A               	movwf	?___fldiv& (0+255),b
  5308   0019D8  0E00               	movlw	0
  5309   0019DA  6F7B               	movwf	(?___fldiv+1)& (0+255),b
  5310   0019DC  0E00               	movlw	0
  5311   0019DE  6F7C               	movwf	(?___fldiv+2)& (0+255),b
  5312   0019E0  0E00               	movlw	0
  5313   0019E2  6F7D               	movwf	(?___fldiv+3)& (0+255),b
  5314   0019E4  EF25  F00E         	goto	l1060
  5315   0019E8                     l4285:
  5316                           
  5317                           ; BSR set to: 0
  5318   0019E8  5192               	movf	___fldiv@aexp& (0+255),w,b
  5319   0019EA  C091  F082         	movff	___fldiv@bexp,??___fldiv
  5320   0019EE  6B83               	clrf	(??___fldiv+1)& (0+255),b
  5321   0019F0  5F82               	subwf	??___fldiv& (0+255),f,b
  5322   0019F2  0E00               	movlw	0
  5323   0019F4  5B83               	subwfb	(??___fldiv+1)& (0+255),f,b
  5324   0019F6  0E7F               	movlw	127
  5325   0019F8  2582               	addwf	??___fldiv& (0+255),w,b
  5326   0019FA  6F8B               	movwf	___fldiv@new_exp& (0+255),b
  5327   0019FC  0E00               	movlw	0
  5328   0019FE  2183               	addwfc	(??___fldiv+1)& (0+255),w,b
  5329   001A00  6F8C               	movwf	(___fldiv@new_exp+1)& (0+255),b
  5330   001A02                     
  5331                           ; BSR set to: 0
  5332   001A02  C07A  F086         	movff	___fldiv@b,___fldiv@rem
  5333   001A06  C07B  F087         	movff	___fldiv@b+1,___fldiv@rem+1
  5334   001A0A  C07C  F088         	movff	___fldiv@b+2,___fldiv@rem+2
  5335   001A0E  C07D  F089         	movff	___fldiv@b+3,___fldiv@rem+3
  5336   001A12                     
  5337                           ; BSR set to: 0
  5338   001A12  0E00               	movlw	0
  5339   001A14  6F7A               	movwf	___fldiv@b& (0+255),b
  5340   001A16  0E00               	movlw	0
  5341   001A18  6F7B               	movwf	(___fldiv@b+1)& (0+255),b
  5342   001A1A  0E00               	movlw	0
  5343   001A1C  6F7C               	movwf	(___fldiv@b+2)& (0+255),b
  5344   001A1E  0E00               	movlw	0
  5345   001A20  6F7D               	movwf	(___fldiv@b+3)& (0+255),b
  5346   001A22                     
  5347                           ; BSR set to: 0
  5348   001A22  0E00               	movlw	0
  5349   001A24  6F8D               	movwf	___fldiv@grs& (0+255),b
  5350   001A26  0E00               	movlw	0
  5351   001A28  6F8E               	movwf	(___fldiv@grs+1)& (0+255),b
  5352   001A2A  0E00               	movlw	0
  5353   001A2C  6F8F               	movwf	(___fldiv@grs+2)& (0+255),b
  5354   001A2E  0E00               	movlw	0
  5355   001A30  6F90               	movwf	(___fldiv@grs+3)& (0+255),b
  5356   001A32                     
  5357                           ; BSR set to: 0
  5358   001A32  0E00               	movlw	0
  5359   001A34  6F92               	movwf	___fldiv@aexp& (0+255),b
  5360   001A36  EF55  F00D         	goto	l1062
  5361   001A3A                     l4295:
  5362                           
  5363                           ; BSR set to: 0
  5364   001A3A  5192               	movf	___fldiv@aexp& (0+255),w,b
  5365   001A3C  B4D8               	btfsc	status,2,c
  5366   001A3E  EF23  F00D         	goto	u4111
  5367   001A42  EF25  F00D         	goto	u4110
  5368   001A46                     u4111:
  5369   001A46  EF3C  F00D         	goto	l4303
  5370   001A4A                     u4110:
  5371   001A4A                     
  5372                           ; BSR set to: 0
  5373   001A4A  90D8               	bcf	status,0,c
  5374   001A4C  3786               	rlcf	___fldiv@rem& (0+255),f,b
  5375   001A4E  3787               	rlcf	(___fldiv@rem+1)& (0+255),f,b
  5376   001A50  3788               	rlcf	(___fldiv@rem+2)& (0+255),f,b
  5377   001A52  3789               	rlcf	(___fldiv@rem+3)& (0+255),f,b
  5378   001A54  90D8               	bcf	status,0,c
  5379   001A56  377A               	rlcf	___fldiv@b& (0+255),f,b
  5380   001A58  377B               	rlcf	(___fldiv@b+1)& (0+255),f,b
  5381   001A5A  377C               	rlcf	(___fldiv@b+2)& (0+255),f,b
  5382   001A5C  377D               	rlcf	(___fldiv@b+3)& (0+255),f,b
  5383   001A5E                     
  5384                           ; BSR set to: 0
  5385   001A5E  AF90               	btfss	(___fldiv@grs+3)& (0+255),7,b
  5386   001A60  EF34  F00D         	goto	u4121
  5387   001A64  EF36  F00D         	goto	u4120
  5388   001A68                     u4121:
  5389   001A68  EF37  F00D         	goto	l1065
  5390   001A6C                     u4120:
  5391   001A6C                     
  5392                           ; BSR set to: 0
  5393   001A6C  817A               	bsf	___fldiv@b& (0+255),0,b
  5394   001A6E                     l1065:
  5395                           
  5396                           ; BSR set to: 0
  5397   001A6E  90D8               	bcf	status,0,c
  5398   001A70  378D               	rlcf	___fldiv@grs& (0+255),f,b
  5399   001A72  378E               	rlcf	(___fldiv@grs+1)& (0+255),f,b
  5400   001A74  378F               	rlcf	(___fldiv@grs+2)& (0+255),f,b
  5401   001A76  3790               	rlcf	(___fldiv@grs+3)& (0+255),f,b
  5402   001A78                     l4303:
  5403                           
  5404                           ; BSR set to: 0
  5405   001A78  517E               	movf	___fldiv@a& (0+255),w,b
  5406   001A7A  5D86               	subwf	___fldiv@rem& (0+255),w,b
  5407   001A7C  517F               	movf	(___fldiv@a+1)& (0+255),w,b
  5408   001A7E  5987               	subwfb	(___fldiv@rem+1)& (0+255),w,b
  5409   001A80  5180               	movf	(___fldiv@a+2)& (0+255),w,b
  5410   001A82  5988               	subwfb	(___fldiv@rem+2)& (0+255),w,b
  5411   001A84  5181               	movf	(___fldiv@a+3)& (0+255),w,b
  5412   001A86  5989               	subwfb	(___fldiv@rem+3)& (0+255),w,b
  5413   001A88  A0D8               	btfss	status,0,c
  5414   001A8A  EF49  F00D         	goto	u4131
  5415   001A8E  EF4B  F00D         	goto	u4130
  5416   001A92                     u4131:
  5417   001A92  EF54  F00D         	goto	l4309
  5418   001A96                     u4130:
  5419   001A96                     
  5420                           ; BSR set to: 0
  5421   001A96  8D90               	bsf	(___fldiv@grs+3)& (0+255),6,b
  5422   001A98                     
  5423                           ; BSR set to: 0
  5424   001A98  517E               	movf	___fldiv@a& (0+255),w,b
  5425   001A9A  5F86               	subwf	___fldiv@rem& (0+255),f,b
  5426   001A9C  517F               	movf	(___fldiv@a+1)& (0+255),w,b
  5427   001A9E  5B87               	subwfb	(___fldiv@rem+1)& (0+255),f,b
  5428   001AA0  5180               	movf	(___fldiv@a+2)& (0+255),w,b
  5429   001AA2  5B88               	subwfb	(___fldiv@rem+2)& (0+255),f,b
  5430   001AA4  5181               	movf	(___fldiv@a+3)& (0+255),w,b
  5431   001AA6  5B89               	subwfb	(___fldiv@rem+3)& (0+255),f,b
  5432   001AA8                     l4309:
  5433                           
  5434                           ; BSR set to: 0
  5435   001AA8  2B92               	incf	___fldiv@aexp& (0+255),f,b
  5436   001AAA                     l1062:
  5437                           
  5438                           ; BSR set to: 0
  5439   001AAA  0E19               	movlw	25
  5440   001AAC  6592               	cpfsgt	___fldiv@aexp& (0+255),b
  5441   001AAE  EF5B  F00D         	goto	u4141
  5442   001AB2  EF5D  F00D         	goto	u4140
  5443   001AB6                     u4141:
  5444   001AB6  EF1D  F00D         	goto	l4295
  5445   001ABA                     u4140:
  5446   001ABA                     
  5447                           ; BSR set to: 0
  5448   001ABA  5186               	movf	___fldiv@rem& (0+255),w,b
  5449   001ABC  1187               	iorwf	(___fldiv@rem+1)& (0+255),w,b
  5450   001ABE  1188               	iorwf	(___fldiv@rem+2)& (0+255),w,b
  5451   001AC0  1189               	iorwf	(___fldiv@rem+3)& (0+255),w,b
  5452   001AC2  B4D8               	btfsc	status,2,c
  5453   001AC4  EF66  F00D         	goto	u4151
  5454   001AC8  EF68  F00D         	goto	u4150
  5455   001ACC                     u4151:
  5456   001ACC  EF80  F00D         	goto	l4321
  5457   001AD0                     u4150:
  5458   001AD0                     
  5459                           ; BSR set to: 0
  5460   001AD0  818D               	bsf	___fldiv@grs& (0+255),0,b
  5461   001AD2  EF80  F00D         	goto	l4321
  5462   001AD6                     l4315:
  5463                           
  5464                           ; BSR set to: 0
  5465   001AD6  90D8               	bcf	status,0,c
  5466   001AD8  377A               	rlcf	___fldiv@b& (0+255),f,b
  5467   001ADA  377B               	rlcf	(___fldiv@b+1)& (0+255),f,b
  5468   001ADC  377C               	rlcf	(___fldiv@b+2)& (0+255),f,b
  5469   001ADE  377D               	rlcf	(___fldiv@b+3)& (0+255),f,b
  5470   001AE0                     
  5471                           ; BSR set to: 0
  5472   001AE0  AF90               	btfss	(___fldiv@grs+3)& (0+255),7,b
  5473   001AE2  EF75  F00D         	goto	u4161
  5474   001AE6  EF77  F00D         	goto	u4160
  5475   001AEA                     u4161:
  5476   001AEA  EF78  F00D         	goto	l1071
  5477   001AEE                     u4160:
  5478   001AEE                     
  5479                           ; BSR set to: 0
  5480   001AEE  817A               	bsf	___fldiv@b& (0+255),0,b
  5481   001AF0                     l1071:
  5482                           
  5483                           ; BSR set to: 0
  5484   001AF0  90D8               	bcf	status,0,c
  5485   001AF2  378D               	rlcf	___fldiv@grs& (0+255),f,b
  5486   001AF4  378E               	rlcf	(___fldiv@grs+1)& (0+255),f,b
  5487   001AF6  378F               	rlcf	(___fldiv@grs+2)& (0+255),f,b
  5488   001AF8  3790               	rlcf	(___fldiv@grs+3)& (0+255),f,b
  5489   001AFA  078B               	decf	___fldiv@new_exp& (0+255),f,b
  5490   001AFC  A0D8               	btfss	status,0,c
  5491   001AFE  078C               	decf	(___fldiv@new_exp+1)& (0+255),f,b
  5492   001B00                     l4321:
  5493                           
  5494                           ; BSR set to: 0
  5495   001B00  AF7C               	btfss	(___fldiv@b+2)& (0+255),7,b
  5496   001B02  EF85  F00D         	goto	u4171
  5497   001B06  EF87  F00D         	goto	u4170
  5498   001B0A                     u4171:
  5499   001B0A  EF6B  F00D         	goto	l4315
  5500   001B0E                     u4170:
  5501   001B0E                     
  5502                           ; BSR set to: 0
  5503   001B0E  0E00               	movlw	0
  5504   001B10  6F92               	movwf	___fldiv@aexp& (0+255),b
  5505   001B12                     
  5506                           ; BSR set to: 0
  5507   001B12  AF90               	btfss	(___fldiv@grs+3)& (0+255),7,b
  5508   001B14  EF8E  F00D         	goto	u4181
  5509   001B18  EF90  F00D         	goto	u4180
  5510   001B1C                     u4181:
  5511   001B1C  EFB4  F00D         	goto	l1073
  5512   001B20                     u4180:
  5513   001B20                     
  5514                           ; BSR set to: 0
  5515   001B20  0EFF               	movlw	255
  5516   001B22  158D               	andwf	___fldiv@grs& (0+255),w,b
  5517   001B24  6F82               	movwf	??___fldiv& (0+255),b
  5518   001B26  0EFF               	movlw	255
  5519   001B28  158E               	andwf	(___fldiv@grs+1)& (0+255),w,b
  5520   001B2A  6F83               	movwf	(??___fldiv+1)& (0+255),b
  5521   001B2C  0EFF               	movlw	255
  5522   001B2E  158F               	andwf	(___fldiv@grs+2)& (0+255),w,b
  5523   001B30  6F84               	movwf	(??___fldiv+2)& (0+255),b
  5524   001B32  0E7F               	movlw	127
  5525   001B34  1590               	andwf	(___fldiv@grs+3)& (0+255),w,b
  5526   001B36  6F85               	movwf	(??___fldiv+3)& (0+255),b
  5527   001B38  5182               	movf	??___fldiv& (0+255),w,b
  5528   001B3A  1183               	iorwf	(??___fldiv+1)& (0+255),w,b
  5529   001B3C  1184               	iorwf	(??___fldiv+2)& (0+255),w,b
  5530   001B3E  1185               	iorwf	(??___fldiv+3)& (0+255),w,b
  5531   001B40  B4D8               	btfsc	status,2,c
  5532   001B42  EFA5  F00D         	goto	u4191
  5533   001B46  EFA7  F00D         	goto	u4190
  5534   001B4A                     u4191:
  5535   001B4A  EFAB  F00D         	goto	l1074
  5536   001B4E                     u4190:
  5537   001B4E                     l4329:
  5538                           
  5539                           ; BSR set to: 0
  5540   001B4E  0E01               	movlw	1
  5541   001B50  6F92               	movwf	___fldiv@aexp& (0+255),b
  5542   001B52  EFB4  F00D         	goto	l1073
  5543   001B56                     l1074:
  5544                           
  5545                           ; BSR set to: 0
  5546   001B56  A17A               	btfss	___fldiv@b& (0+255),0,b
  5547   001B58  EFB0  F00D         	goto	u4201
  5548   001B5C  EFB2  F00D         	goto	u4200
  5549   001B60                     u4201:
  5550   001B60  EFB4  F00D         	goto	l1073
  5551   001B64                     u4200:
  5552   001B64  EFA7  F00D         	goto	l4329
  5553   001B68                     l1073:
  5554                           
  5555                           ; BSR set to: 0
  5556   001B68  5192               	movf	___fldiv@aexp& (0+255),w,b
  5557   001B6A  B4D8               	btfsc	status,2,c
  5558   001B6C  EFBA  F00D         	goto	u4211
  5559   001B70  EFBC  F00D         	goto	u4210
  5560   001B74                     u4211:
  5561   001B74  EFE0  F00D         	goto	l4341
  5562   001B78                     u4210:
  5563   001B78                     
  5564                           ; BSR set to: 0
  5565   001B78  0E01               	movlw	1
  5566   001B7A  277A               	addwf	___fldiv@b& (0+255),f,b
  5567   001B7C  0E00               	movlw	0
  5568   001B7E  237B               	addwfc	(___fldiv@b+1)& (0+255),f,b
  5569   001B80  237C               	addwfc	(___fldiv@b+2)& (0+255),f,b
  5570   001B82  237D               	addwfc	(___fldiv@b+3)& (0+255),f,b
  5571   001B84                     
  5572                           ; BSR set to: 0
  5573   001B84  A17D               	btfss	(___fldiv@b+3)& (0+255),0,b
  5574   001B86  EFC7  F00D         	goto	u4221
  5575   001B8A  EFC9  F00D         	goto	u4220
  5576   001B8E                     u4221:
  5577   001B8E  EFE0  F00D         	goto	l4341
  5578   001B92                     u4220:
  5579   001B92                     
  5580                           ; BSR set to: 0
  5581   001B92  C07A  F082         	movff	___fldiv@b,??___fldiv
  5582   001B96  C07B  F083         	movff	___fldiv@b+1,??___fldiv+1
  5583   001B9A  C07C  F084         	movff	___fldiv@b+2,??___fldiv+2
  5584   001B9E  C07D  F085         	movff	___fldiv@b+3,??___fldiv+3
  5585   001BA2  3585               	rlcf	(??___fldiv+3)& (0+255),w,b
  5586   001BA4  3385               	rrcf	(??___fldiv+3)& (0+255),f,b
  5587   001BA6  3384               	rrcf	(??___fldiv+2)& (0+255),f,b
  5588   001BA8  3383               	rrcf	(??___fldiv+1)& (0+255),f,b
  5589   001BAA  3382               	rrcf	??___fldiv& (0+255),f,b
  5590   001BAC  C082  F07A         	movff	??___fldiv,___fldiv@b
  5591   001BB0  C083  F07B         	movff	??___fldiv+1,___fldiv@b+1
  5592   001BB4  C084  F07C         	movff	??___fldiv+2,___fldiv@b+2
  5593   001BB8  C085  F07D         	movff	??___fldiv+3,___fldiv@b+3
  5594   001BBC                     
  5595                           ; BSR set to: 0
  5596   001BBC  4B8B               	infsnz	___fldiv@new_exp& (0+255),f,b
  5597   001BBE  2B8C               	incf	(___fldiv@new_exp+1)& (0+255),f,b
  5598   001BC0                     l4341:
  5599                           
  5600                           ; BSR set to: 0
  5601   001BC0  BF8C               	btfsc	(___fldiv@new_exp+1)& (0+255),7,b
  5602   001BC2  EFEB  F00D         	goto	u4231
  5603   001BC6  518C               	movf	(___fldiv@new_exp+1)& (0+255),w,b
  5604   001BC8  E108               	bnz	u4230
  5605   001BCA  298B               	incf	___fldiv@new_exp& (0+255),w,b
  5606   001BCC  A0D8               	btfss	status,0,c
  5607   001BCE  EFEB  F00D         	goto	u4231
  5608   001BD2  EFED  F00D         	goto	u4230
  5609   001BD6                     u4231:
  5610   001BD6  EFF8  F00D         	goto	l4345
  5611   001BDA                     u4230:
  5612   001BDA                     
  5613                           ; BSR set to: 0
  5614   001BDA  0E00               	movlw	0
  5615   001BDC  6F8C               	movwf	(___fldiv@new_exp+1)& (0+255),b
  5616   001BDE  698B               	setf	___fldiv@new_exp& (0+255),b
  5617   001BE0  0E00               	movlw	0
  5618   001BE2  6F7A               	movwf	___fldiv@b& (0+255),b
  5619   001BE4  0E00               	movlw	0
  5620   001BE6  6F7B               	movwf	(___fldiv@b+1)& (0+255),b
  5621   001BE8  0E00               	movlw	0
  5622   001BEA  6F7C               	movwf	(___fldiv@b+2)& (0+255),b
  5623   001BEC  0E00               	movlw	0
  5624   001BEE  6F7D               	movwf	(___fldiv@b+3)& (0+255),b
  5625   001BF0                     l4345:
  5626                           
  5627                           ; BSR set to: 0
  5628   001BF0  BF8C               	btfsc	(___fldiv@new_exp+1)& (0+255),7,b
  5629   001BF2  EF05  F00E         	goto	u4240
  5630   001BF6  518C               	movf	(___fldiv@new_exp+1)& (0+255),w,b
  5631   001BF8  E106               	bnz	u4241
  5632   001BFA  058B               	decf	___fldiv@new_exp& (0+255),w,b
  5633   001BFC  B0D8               	btfsc	status,0,c
  5634   001BFE  EF03  F00E         	goto	u4241
  5635   001C02  EF05  F00E         	goto	u4240
  5636   001C06                     u4241:
  5637   001C06  EF13  F00E         	goto	l4349
  5638   001C0A                     u4240:
  5639   001C0A                     
  5640                           ; BSR set to: 0
  5641   001C0A  0E00               	movlw	0
  5642   001C0C  6F8C               	movwf	(___fldiv@new_exp+1)& (0+255),b
  5643   001C0E  0E00               	movlw	0
  5644   001C10  6F8B               	movwf	___fldiv@new_exp& (0+255),b
  5645   001C12  0E00               	movlw	0
  5646   001C14  6F7A               	movwf	___fldiv@b& (0+255),b
  5647   001C16  0E00               	movlw	0
  5648   001C18  6F7B               	movwf	(___fldiv@b+1)& (0+255),b
  5649   001C1A  0E00               	movlw	0
  5650   001C1C  6F7C               	movwf	(___fldiv@b+2)& (0+255),b
  5651   001C1E  0E00               	movlw	0
  5652   001C20  6F7D               	movwf	(___fldiv@b+3)& (0+255),b
  5653   001C22  0E00               	movlw	0
  5654   001C24  6F8A               	movwf	___fldiv@sign& (0+255),b
  5655   001C26                     l4349:
  5656                           
  5657                           ; BSR set to: 0
  5658   001C26  C08B  F091         	movff	___fldiv@new_exp,___fldiv@bexp
  5659   001C2A                     
  5660                           ; BSR set to: 0
  5661   001C2A  A191               	btfss	___fldiv@bexp& (0+255),0,b
  5662   001C2C  EF1A  F00E         	goto	u4251
  5663   001C30  EF1C  F00E         	goto	u4250
  5664   001C34                     u4251:
  5665   001C34  EF1F  F00E         	goto	l4355
  5666   001C38                     u4250:
  5667   001C38                     
  5668                           ; BSR set to: 0
  5669   001C38  8F7C               	bsf	(___fldiv@b+2)& (0+255),7,b
  5670   001C3A  EF20  F00E         	goto	l4357
  5671   001C3E                     l4355:
  5672                           
  5673                           ; BSR set to: 0
  5674   001C3E  9F7C               	bcf	(___fldiv@b+2)& (0+255),7,b
  5675   001C40                     l4357:
  5676                           
  5677                           ; BSR set to: 0
  5678   001C40  90D8               	bcf	status,0,c
  5679   001C42  3191               	rrcf	___fldiv@bexp& (0+255),w,b
  5680   001C44  6F7D               	movwf	(___fldiv@b+3)& (0+255),b
  5681   001C46  EFD6  F00C         	goto	l4271
  5682   001C4A                     l1060:
  5683                           
  5684                           ; BSR set to: 0
  5685   001C4A  0012               	return		;funcret
  5686   001C4C                     __end_of___fldiv:
  5687                           	callstack 0
  5688                           
  5689 ;; *************** function _ADC_GetConversion *****************
  5690 ;; Defined at:
  5691 ;;		line 92 in file "mcc_generated_files/adc/src/adc.c"
  5692 ;; Parameters:    Size  Location     Type
  5693 ;;  channel         1    wreg     enum E2740
  5694 ;; Auto vars:     Size  Location     Type
  5695 ;;  channel         1   16[BANK0 ] enum E2740
  5696 ;; Return value:  Size  Location     Type
  5697 ;;                  2   12[BANK0 ] unsigned short 
  5698 ;; Registers used:
  5699 ;;		wreg, status,2, status,0
  5700 ;; Tracked objects:
  5701 ;;		On entry : 0/0
  5702 ;;		On exit  : 0/0
  5703 ;;		Unchanged: 0/0
  5704 ;; Data sizes:     COMRAM   BANK0   BANK1   BANK2   BANK3   BANK4   BANK5   BANK6   BANK7   BANK8   BANK9  BANK10  BANK1
      +1  BANK12  BANK13  BANK14  BANK15
  5705 ;;      Params:         0       2       0       0       0       0       0       0       0       0       0       0       
      +0       0       0       0       0
  5706 ;;      Locals:         0       1       0       0       0       0       0       0       0       0       0       0       
      +0       0       0       0       0
  5707 ;;      Temps:          0       2       0       0       0       0       0       0       0       0       0       0       
      +0       0       0       0       0
  5708 ;;      Totals:         0       5       0       0       0       0       0       0       0       0       0       0       
      +0       0       0       0       0
  5709 ;;Total ram usage:        5 bytes
  5710 ;; Hardware stack levels used: 1
  5711 ;; Hardware stack levels required when called: 8
  5712 ;; This function calls:
  5713 ;;		Nothing
  5714 ;; This function is called by:
  5715 ;;		_main
  5716 ;;		_Calculate_bpm
  5717 ;; This function uses a non-reentrant model
  5718 ;;
  5719                           
  5720                           	psect	text35
  5721   003182                     __ptext35:
  5722                           	callstack 0
  5723   003182                     _ADC_GetConversion:
  5724                           	callstack 21
  5725                           
  5726                           ; BSR set to: 0
  5727                           ;incstack = 0
  5728                           ;ADC_GetConversion@channel stored from wreg
  5729   003182  0100               	movlb	0	; () banked
  5730   003184  6F70               	movwf	ADC_GetConversion@channel& (0+255),b
  5731   003186                     
  5732                           ;mcc_generated_files/adc/src/adc.c: 94:     ADCON0bits.CHS = channel;
  5733   003186  C070  F06E         	movff	ADC_GetConversion@channel,??_ADC_GetConversion
  5734   00318A  0100               	movlb	0	; () banked
  5735   00318C  476E               	rlncf	??_ADC_GetConversion& (0+255),f,b
  5736   00318E  476E               	rlncf	??_ADC_GetConversion& (0+255),f,b
  5737   003190  50C2               	movf	194,w,c	;volatile
  5738   003192  196E               	xorwf	??_ADC_GetConversion& (0+255),w,b
  5739   003194  0BC3               	andlw	-61
  5740   003196  196E               	xorwf	??_ADC_GetConversion& (0+255),w,b
  5741   003198  6EC2               	movwf	194,c	;volatile
  5742   00319A                     
  5743                           ; BSR set to: 0
  5744                           ;mcc_generated_files/adc/src/adc.c: 96:     ADCON0bits.ADON = 1;
  5745   00319A  80C2               	bsf	194,0,c	;volatile
  5746   00319C                     
  5747                           ; BSR set to: 0
  5748                           ;mcc_generated_files/adc/src/adc.c: 99:     _delay((unsigned long)((8)*(16000000/4000000
      +                          .0)));
  5749   00319C  0E0A               	movlw	10
  5750   00319E                     u4897:
  5751   00319E  2EE8               	decfsz	wreg,f,c
  5752   0031A0  D7FE               	bra	u4897
  5753   0031A2  F000 F000          	nop2	
  5754   0031A6                     
  5755                           ;mcc_generated_files/adc/src/adc.c: 102:     ADCON0bits.GO_nDONE = 1;
  5756   0031A6  82C2               	bsf	194,1,c	;volatile
  5757   0031A8                     l34:
  5758   0031A8  B2C2               	btfsc	194,1,c	;volatile
  5759   0031AA  EFD9  F018         	goto	u4001
  5760   0031AE  EFDB  F018         	goto	u4000
  5761   0031B2                     u4001:
  5762   0031B2  EFD4  F018         	goto	l34
  5763   0031B6                     u4000:
  5764   0031B6                     
  5765                           ;mcc_generated_files/adc/src/adc.c: 108:     return ((adc_result_t)((ADRESH << 8) + ADRE
      +                          SL));
  5766   0031B6  50C4               	movf	196,w,c	;volatile
  5767   0031B8  0100               	movlb	0	; () banked
  5768   0031BA  6F6F               	movwf	(??_ADC_GetConversion+1)& (0+255),b
  5769   0031BC  6B6E               	clrf	??_ADC_GetConversion& (0+255),b
  5770   0031BE  50C3               	movf	195,w,c	;volatile
  5771   0031C0  256E               	addwf	??_ADC_GetConversion& (0+255),w,b
  5772   0031C2  6F6C               	movwf	?_ADC_GetConversion& (0+255),b
  5773   0031C4  0E00               	movlw	0
  5774   0031C6  216F               	addwfc	(??_ADC_GetConversion+1)& (0+255),w,b
  5775   0031C8  6F6D               	movwf	(?_ADC_GetConversion+1)& (0+255),b
  5776   0031CA                     
  5777                           ; BSR set to: 0
  5778   0031CA  0012               	return		;funcret
  5779   0031CC                     __end_of_ADC_GetConversion:
  5780                           	callstack 0
  5781                           
  5782 ;; *************** function _ISR *****************
  5783 ;; Defined at:
  5784 ;;		line 73 in file "main.c"
  5785 ;; Parameters:    Size  Location     Type
  5786 ;;		None
  5787 ;; Auto vars:     Size  Location     Type
  5788 ;;		None
  5789 ;; Return value:  Size  Location     Type
  5790 ;;                  1    wreg      void 
  5791 ;; Registers used:
  5792 ;;		wreg, fsr1l, fsr1h, fsr2l, fsr2h, status,2, status,0, pcl, pclath, pclatu, tosl, tblptrl, tblptrh, tblptru, prodl, p
      +rodh, cstack
  5793 ;; Tracked objects:
  5794 ;;		On entry : 0/0
  5795 ;;		On exit  : 0/0
  5796 ;;		Unchanged: 0/0
  5797 ;; Data sizes:     COMRAM   BANK0   BANK1   BANK2   BANK3   BANK4   BANK5   BANK6   BANK7   BANK8   BANK9  BANK10  BANK1
      +1  BANK12  BANK13  BANK14  BANK15
  5798 ;;      Params:         0       0       0       0       0       0       0       0       0       0       0       0       
      +0       0       0       0       0
  5799 ;;      Locals:         0       0       0       0       0       0       0       0       0       0       0       0       
      +0       0       0       0       0
  5800 ;;      Temps:          0      12       0       0       0       0       0       0       0       0       0       0       
      +0       0       0       0       0
  5801 ;;      Totals:         0      12       0       0       0       0       0       0       0       0       0       0       
      +0       0       0       0       0
  5802 ;;Total ram usage:       12 bytes
  5803 ;; Hardware stack levels used: 1
  5804 ;; Hardware stack levels required when called: 7
  5805 ;; This function calls:
  5806 ;;		_Timer0_ISR
  5807 ;; This function is called by:
  5808 ;;		Interrupt level 2
  5809 ;; This function uses a non-reentrant model
  5810 ;;
  5811                           
  5812                           	psect	intcode
  5813   000008                     __pintcode:
  5814                           	callstack 0
  5815   000008                     _ISR:
  5816                           	callstack 18
  5817                           
  5818                           ; BSR set to: 0
  5819                           ;incstack = 0
  5820   000008  825E               	bsf	int$flags,1,c	;set compiler interrupt flag (level 2)
  5821   00000A  CFFA F060          	movff	pclath,??_ISR
  5822   00000E  CFFB F061          	movff	pclatu,??_ISR+1
  5823   000012  CFE1 F062          	movff	fsr1l,??_ISR+2
  5824   000016  CFE2 F063          	movff	fsr1h,??_ISR+3
  5825   00001A  CFD9 F064          	movff	fsr2l,??_ISR+4
  5826   00001E  CFDA F065          	movff	fsr2h,??_ISR+5
  5827   000022  CFF3 F066          	movff	prodl,??_ISR+6
  5828   000026  CFF4 F067          	movff	prodh,??_ISR+7
  5829   00002A  CFF6 F068          	movff	tblptrl,??_ISR+8
  5830   00002E  CFF7 F069          	movff	tblptrh,??_ISR+9
  5831   000032  CFF8 F06A          	movff	tblptru,??_ISR+10
  5832   000036  CFF5 F06B          	movff	tablat,??_ISR+11
  5833   00003A                     
  5834                           ;main.c: 75:     Timer0_ISR();
  5835   00003A  ECE6  F018         	call	_Timer0_ISR	;wreg free
  5836   00003E  C06B  FFF5         	movff	??_ISR+11,tablat
  5837   000042  C06A  FFF8         	movff	??_ISR+10,tblptru
  5838   000046  C069  FFF7         	movff	??_ISR+9,tblptrh
  5839   00004A  C068  FFF6         	movff	??_ISR+8,tblptrl
  5840   00004E  C067  FFF4         	movff	??_ISR+7,prodh
  5841   000052  C066  FFF3         	movff	??_ISR+6,prodl
  5842   000056  C065  FFDA         	movff	??_ISR+5,fsr2h
  5843   00005A  C064  FFD9         	movff	??_ISR+4,fsr2l
  5844   00005E  C063  FFE2         	movff	??_ISR+3,fsr1h
  5845   000062  C062  FFE1         	movff	??_ISR+2,fsr1l
  5846   000066  C061  FFFB         	movff	??_ISR+1,pclatu
  5847   00006A  C060  FFFA         	movff	??_ISR,pclath
  5848   00006E  925E               	bcf	int$flags,1,c	;clear compiler interrupt flag (level 2)
  5849   000070  0011               	retfie		f
  5850   000072                     __end_of_ISR:
  5851                           	callstack 0
  5852                           
  5853 ;; *************** function _Timer0_ISR *****************
  5854 ;; Defined at:
  5855 ;;		line 21 in file "Timer0.c"
  5856 ;; Parameters:    Size  Location     Type
  5857 ;;		None
  5858 ;; Auto vars:     Size  Location     Type
  5859 ;;		None
  5860 ;; Return value:  Size  Location     Type
  5861 ;;                  1    wreg      void 
  5862 ;; Registers used:
  5863 ;;		wreg, fsr1l, fsr1h, fsr2l, fsr2h, status,2, status,0, pcl, pclath, pclatu, tosl, tblptrl, tblptrh, tblptru, prodl, p
      +rodh, cstack
  5864 ;; Tracked objects:
  5865 ;;		On entry : 0/0
  5866 ;;		On exit  : 0/0
  5867 ;;		Unchanged: 0/0
  5868 ;; Data sizes:     COMRAM   BANK0   BANK1   BANK2   BANK3   BANK4   BANK5   BANK6   BANK7   BANK8   BANK9  BANK10  BANK1
      +1  BANK12  BANK13  BANK14  BANK15
  5869 ;;      Params:         0       0       0       0       0       0       0       0       0       0       0       0       
      +0       0       0       0       0
  5870 ;;      Locals:         0       0       0       0       0       0       0       0       0       0       0       0       
      +0       0       0       0       0
  5871 ;;      Temps:          0       0       0       0       0       0       0       0       0       0       0       0       
      +0       0       0       0       0
  5872 ;;      Totals:         0       0       0       0       0       0       0       0       0       0       0       0       
      +0       0       0       0       0
  5873 ;;Total ram usage:        0 bytes
  5874 ;; Hardware stack levels used: 1
  5875 ;; Hardware stack levels required when called: 6
  5876 ;; This function calls:
  5877 ;;		NULL
  5878 ;;		_Timer0_UserCallback
  5879 ;; This function is called by:
  5880 ;;		_ISR
  5881 ;; This function uses a non-reentrant model
  5882 ;;
  5883                           
  5884                           	psect	text37
  5885   0031CC                     __ptext37:
  5886                           	callstack 0
  5887   0031CC                     _Timer0_ISR:
  5888                           	callstack 18
  5889   0031CC                     
  5890                           ;Timer0.c: 22:     if (INTCONbits.TMR0IF) {
  5891   0031CC  A4F2               	btfss	242,2,c	;volatile
  5892   0031CE  EFEB  F018         	goto	i2u463_41
  5893   0031D2  EFED  F018         	goto	i2u463_40
  5894   0031D6                     i2u463_41:
  5895   0031D6  EF08  F019         	goto	i2l448
  5896   0031DA                     i2u463_40:
  5897   0031DA                     
  5898                           ;Timer0.c: 23:         INTCONbits.TMR0IF = 0;
  5899   0031DA  94F2               	bcf	242,2,c	;volatile
  5900   0031DC                     
  5901                           ;Timer0.c: 24:         TMR0H = (0xE1);
  5902   0031DC  0EE1               	movlw	225
  5903   0031DE  6ED7               	movwf	215,c	;volatile
  5904                           
  5905                           ;Timer0.c: 25:         TMR0L = (0x6B);
  5906   0031E0  0E6B               	movlw	107
  5907   0031E2  6ED6               	movwf	214,c	;volatile
  5908   0031E4                     
  5909                           ;Timer0.c: 26:         if (Timer0_Callback) {
  5910   0031E4  0100               	movlb	0	; () banked
  5911   0031E6  51CE               	movf	_Timer0_Callback& (0+255),w,b
  5912   0031E8  11CF               	iorwf	(_Timer0_Callback+1)& (0+255),w,b
  5913   0031EA  B4D8               	btfsc	status,2,c
  5914   0031EC  EFFA  F018         	goto	i2u464_41
  5915   0031F0  EFFC  F018         	goto	i2u464_40
  5916   0031F4                     i2u464_41:
  5917   0031F4  EF08  F019         	goto	i2l448
  5918   0031F8                     i2u464_40:
  5919   0031F8                     
  5920                           ; BSR set to: 0
  5921                           ;Timer0.c: 27:             Timer0_Callback();
  5922   0031F8  D802               	call	i2u465_48
  5923   0031FA  EF08  F019         	goto	i2u465_49
  5924   0031FE                     i2u465_48:
  5925   0031FE  0005               	push	
  5926   003200  6EFA               	movwf	pclath,c
  5927   003202  51CE               	movf	_Timer0_Callback& (0+255),w,b
  5928   003204  6EFD               	movwf	tosl,c
  5929   003206  51CF               	movf	(_Timer0_Callback+1)& (0+255),w,b
  5930   003208  6EFE               	movwf	tosh,c
  5931   00320A  6AFF               	clrf	tosu,c
  5932   00320C  50FA               	movf	pclath,w,c
  5933   00320E  0012               	return		;indir
  5934   003210                     i2u465_49:
  5935   003210                     i2l448:
  5936   003210  0012               	return		;funcret
  5937   003212                     __end_of_Timer0_ISR:
  5938                           	callstack 0
  5939                           
  5940 ;; *************** function _Timer0_UserCallback *****************
  5941 ;; Defined at:
  5942 ;;		line 49 in file "main.c"
  5943 ;; Parameters:    Size  Location     Type
  5944 ;;		None
  5945 ;; Auto vars:     Size  Location     Type
  5946 ;;  str             6   77[COMRAM] unsigned char [6]
  5947 ;;  temp            2   87[COMRAM] int 
  5948 ;;  res             2   85[COMRAM] unsigned short 
  5949 ;;  adcValue        2   83[COMRAM] unsigned short 
  5950 ;;  temp_uint8      1   89[COMRAM] unsigned char 
  5951 ;; Return value:  Size  Location     Type
  5952 ;;                  1    wreg      void 
  5953 ;; Registers used:
  5954 ;;		wreg, fsr1l, fsr1h, fsr2l, fsr2h, status,2, status,0, tblptrl, tblptrh, tblptru, prodl, prodh, cstack
  5955 ;; Tracked objects:
  5956 ;;		On entry : 0/0
  5957 ;;		On exit  : 0/0
  5958 ;;		Unchanged: 0/0
  5959 ;; Data sizes:     COMRAM   BANK0   BANK1   BANK2   BANK3   BANK4   BANK5   BANK6   BANK7   BANK8   BANK9  BANK10  BANK1
      +1  BANK12  BANK13  BANK14  BANK15
  5960 ;;      Params:         0       0       0       0       0       0       0       0       0       0       0       0       
      +0       0       0       0       0
  5961 ;;      Locals:        13       0       0       0       0       0       0       0       0       0       0       0       
      +0       0       0       0       0
  5962 ;;      Temps:          3       0       0       0       0       0       0       0       0       0       0       0       
      +0       0       0       0       0
  5963 ;;      Totals:        16       0       0       0       0       0       0       0       0       0       0       0       
      +0       0       0       0       0
  5964 ;;Total ram usage:       16 bytes
  5965 ;; Hardware stack levels used: 1
  5966 ;; Hardware stack levels required when called: 5
  5967 ;; This function calls:
  5968 ;;		_EUSART_WriteString
  5969 ;;		i2_ADC_GetConversion
  5970 ;;		i2___fldiv
  5971 ;;		i2___flmul
  5972 ;;		i2___fltol
  5973 ;;		i2___xxtofl
  5974 ;;		i2_sprintf
  5975 ;; This function is called by:
  5976 ;;		_main
  5977 ;;		_Timer0_ISR
  5978 ;; This function uses a non-reentrant model
  5979 ;;
  5980                           
  5981                           	psect	text38
  5982   002B5E                     __ptext38:
  5983                           	callstack 0
  5984   002B5E                     _Timer0_UserCallback:
  5985                           	callstack 18
  5986   002B5E                     
  5987                           ;main.c: 50:     overflow_count++;
  5988   002B5E  4A5B               	infsnz	_overflow_count^0,f,c	;volatile
  5989   002B60  2A5C               	incf	(_overflow_count+1)^0,f,c	;volatile
  5990   002B62                     
  5991                           ;main.c: 51:     if (overflow_count == 10) {
  5992   002B62  0E0A               	movlw	10
  5993   002B64  185B               	xorwf	_overflow_count^0,w,c	;volatile
  5994   002B66  105C               	iorwf	(_overflow_count+1)^0,w,c	;volatile
  5995   002B68  A4D8               	btfss	status,2,c
  5996   002B6A  EFB9  F015         	goto	i2u401_41
  5997   002B6E  EFBB  F015         	goto	i2u401_40
  5998   002B72                     i2u401_41:
  5999   002B72  EF2D  F016         	goto	i2l361
  6000   002B76                     i2u401_40:
  6001   002B76                     
  6002                           ;main.c: 52:         overflow_count = 0;
  6003   002B76  0E00               	movlw	0
  6004   002B78  6E5C               	movwf	(_overflow_count+1)^0,c	;volatile
  6005   002B7A  0E00               	movlw	0
  6006   002B7C  6E5B               	movwf	_overflow_count^0,c	;volatile
  6007   002B7E                     
  6008                           ;main.c: 53:          char str[6];;main.c: 54:          adc_result_t adcValue = ADC_GetC
      +                          onversion(0);
  6009   002B7E  0E00               	movlw	0
  6010   002B80  EC2B  F019         	call	i2_ADC_GetConversion
  6011   002B84  C001  F054         	movff	?i2_ADC_GetConversion,Timer0_UserCallback@adcValue
  6012   002B88  C002  F055         	movff	?i2_ADC_GetConversion+1,Timer0_UserCallback@adcValue+1
  6013   002B8C                     
  6014                           ;main.c: 55:        uint16_t res =adcValue>>6;
  6015   002B8C  C054  F04B         	movff	Timer0_UserCallback@adcValue,??_Timer0_UserCallback
  6016   002B90  C055  F04C         	movff	Timer0_UserCallback@adcValue+1,??_Timer0_UserCallback+1
  6017   002B94  0E06               	movlw	6
  6018   002B96  6E4D               	movwf	(??_Timer0_UserCallback+2)^0,c
  6019   002B98                     i2u402_45:
  6020   002B98  90D8               	bcf	status,0,c
  6021   002B9A  324C               	rrcf	(??_Timer0_UserCallback+1)^0,f,c
  6022   002B9C  324B               	rrcf	??_Timer0_UserCallback^0,f,c
  6023   002B9E  2E4D               	decfsz	(??_Timer0_UserCallback+2)^0,f,c
  6024   002BA0  EFCC  F015         	goto	i2u402_45
  6025   002BA4  C04B  F056         	movff	??_Timer0_UserCallback,Timer0_UserCallback@res
  6026   002BA8  C04C  F057         	movff	??_Timer0_UserCallback+1,Timer0_UserCallback@res+1
  6027   002BAC                     
  6028                           ;main.c: 56:        int temp = (int)((float)res / 1023.0 * 500);
  6029   002BAC  0E00               	movlw	0
  6030   002BAE  6E2C               	movwf	i2___flmul@a^0,c
  6031   002BB0  0E00               	movlw	0
  6032   002BB2  6E2D               	movwf	(i2___flmul@a+1)^0,c
  6033   002BB4  0EFA               	movlw	250
  6034   002BB6  6E2E               	movwf	(i2___flmul@a+2)^0,c
  6035   002BB8  0E43               	movlw	67
  6036   002BBA  6E2F               	movwf	(i2___flmul@a+3)^0,c
  6037   002BBC  0E00               	movlw	0
  6038   002BBE  6E13               	movwf	i2___fldiv@a^0,c
  6039   002BC0  0EC0               	movlw	192
  6040   002BC2  6E14               	movwf	(i2___fldiv@a+1)^0,c
  6041   002BC4  0E7F               	movlw	127
  6042   002BC6  6E15               	movwf	(i2___fldiv@a+2)^0,c
  6043   002BC8  0E44               	movlw	68
  6044   002BCA  6E16               	movwf	(i2___fldiv@a+3)^0,c
  6045   002BCC  C056  F001         	movff	Timer0_UserCallback@res,i2___xxtofl@val
  6046   002BD0  C057  F002         	movff	Timer0_UserCallback@res+1,i2___xxtofl@val+1
  6047   002BD4  6A03               	clrf	(i2___xxtofl@val+2)^0,c
  6048   002BD6  6A04               	clrf	(i2___xxtofl@val+3)^0,c
  6049   002BD8  0E00               	movlw	0
  6050   002BDA  ECBC  F011         	call	i2___xxtofl
  6051   002BDE  C001  F00F         	movff	?i2___xxtofl,i2___fldiv@b
  6052   002BE2  C002  F010         	movff	?i2___xxtofl+1,i2___fldiv@b+1
  6053   002BE6  C003  F011         	movff	?i2___xxtofl+2,i2___fldiv@b+2
  6054   002BEA  C004  F012         	movff	?i2___xxtofl+3,i2___fldiv@b+3
  6055   002BEE  EC26  F00E         	call	i2___fldiv	;wreg free
  6056   002BF2  C00F  F028         	movff	?i2___fldiv,i2___flmul@b
  6057   002BF6  C010  F029         	movff	?i2___fldiv+1,i2___flmul@b+1
  6058   002BFA  C011  F02A         	movff	?i2___fldiv+2,i2___flmul@b+2
  6059   002BFE  C012  F02B         	movff	?i2___fldiv+3,i2___flmul@b+3
  6060   002C02  EC43  F00A         	call	i2___flmul	;wreg free
  6061   002C06  C028  F041         	movff	?i2___flmul,i2___fltol@f1
  6062   002C0A  C029  F042         	movff	?i2___flmul+1,i2___fltol@f1+1
  6063   002C0E  C02A  F043         	movff	?i2___flmul+2,i2___fltol@f1+2
  6064   002C12  C02B  F044         	movff	?i2___flmul+3,i2___fltol@f1+3
  6065   002C16  EC2C  F015         	call	i2___fltol	;wreg free
  6066   002C1A  C041  F058         	movff	?i2___fltol,Timer0_UserCallback@temp
  6067   002C1E  C042  F059         	movff	?i2___fltol+1,Timer0_UserCallback@temp+1
  6068   002C22                     
  6069                           ;main.c: 57:         uint8_t temp_uint8 = (uint8_t)temp;
  6070   002C22  C058  F05A         	movff	Timer0_UserCallback@temp,Timer0_UserCallback@temp_uint8
  6071   002C26                     
  6072                           ;main.c: 60:         sprintf(str, "Temp: %u\r\n", temp_uint8);
  6073   002C26  0E4E               	movlw	low Timer0_UserCallback@str
  6074   002C28  6E17               	movwf	i2sprintf@s^0,c
  6075   002C2A  6A18               	clrf	(i2sprintf@s+1)^0,c
  6076   002C2C  0E3F               	movlw	low STR_1
  6077   002C2E  6E19               	movwf	i2sprintf@fmt^0,c
  6078   002C30  C05A  F01A         	movff	Timer0_UserCallback@temp_uint8,?i2_sprintf+3
  6079   002C34  6A1B               	clrf	(?i2_sprintf+4)^0,c
  6080   002C36  ECAB  F019         	call	i2_sprintf	;wreg free
  6081   002C3A                     
  6082                           ;main.c: 66:         EUSART_WriteString(str);
  6083   002C3A  0E4E               	movlw	low Timer0_UserCallback@str
  6084   002C3C  6E02               	movwf	EUSART_WriteString@str^0,c
  6085   002C3E  ECE6  F019         	call	_EUSART_WriteString	;wreg free
  6086   002C42                     
  6087                           ;main.c: 67:         _delay((unsigned long)((100)*(16000000/4000.0)));
  6088   002C42  0E03               	movlw	3
  6089   002C44  6E4C               	movwf	(??_Timer0_UserCallback+1)^0,c
  6090   002C46  0E08               	movlw	8
  6091   002C48  6E4B               	movwf	??_Timer0_UserCallback^0,c
  6092   002C4A  0E77               	movlw	119
  6093   002C4C                     i2u490_47:
  6094   002C4C  2EE8               	decfsz	wreg,f,c
  6095   002C4E  D7FE               	bra	i2u490_47
  6096   002C50  2E4B               	decfsz	??_Timer0_UserCallback^0,f,c
  6097   002C52  D7FC               	bra	i2u490_47
  6098   002C54  2E4C               	decfsz	(??_Timer0_UserCallback+1)^0,f,c
  6099   002C56  D7FA               	bra	i2u490_47
  6100   002C58  0000               	nop	
  6101   002C5A                     i2l361:
  6102   002C5A  0012               	return		;funcret
  6103   002C5C                     __end_of_Timer0_UserCallback:
  6104                           	callstack 0
  6105                           
  6106 ;; *************** function i2_sprintf *****************
  6107 ;; Defined at:
  6108 ;;		line 9 in file "C:\Program Files\Microchip\xc8\v2.46\pic\sources\c99\common\nf_sprintf.c"
  6109 ;; Parameters:    Size  Location     Type
  6110 ;;  s               2   22[COMRAM] PTR unsigned char 
  6111 ;;		 -> main@bpmstr(6), main@str(6), Timer0_UserCallback@str(6), 
  6112 ;;  fmt             1   24[COMRAM] PTR const unsigned char 
  6113 ;;		 -> STR_4(3), STR_3(3), STR_1(11), 
  6114 ;; Auto vars:     Size  Location     Type
  6115 ;;  f              12   28[COMRAM] struct _IO_FILE
  6116 ;;  ret             2    0        int 
  6117 ;;  ap              1   27[COMRAM] PTR void [1]
  6118 ;;		 -> ?i2_sprintf(2), ?_sprintf(2), 
  6119 ;; Return value:  Size  Location     Type
  6120 ;;                  2   22[COMRAM] int 
  6121 ;; Registers used:
  6122 ;;		wreg, fsr1l, fsr1h, fsr2l, fsr2h, status,2, status,0, tblptrl, tblptrh, tblptru, cstack
  6123 ;; Tracked objects:
  6124 ;;		On entry : 0/0
  6125 ;;		On exit  : 0/0
  6126 ;;		Unchanged: 0/0
  6127 ;; Data sizes:     COMRAM   BANK0   BANK1   BANK2   BANK3   BANK4   BANK5   BANK6   BANK7   BANK8   BANK9  BANK10  BANK1
      +1  BANK12  BANK13  BANK14  BANK15
  6128 ;;      Params:         5       0       0       0       0       0       0       0       0       0       0       0       
      +0       0       0       0       0
  6129 ;;      Locals:        13       0       0       0       0       0       0       0       0       0       0       0       
      +0       0       0       0       0
  6130 ;;      Temps:          0       0       0       0       0       0       0       0       0       0       0       0       
      +0       0       0       0       0
  6131 ;;      Totals:        18       0       0       0       0       0       0       0       0       0       0       0       
      +0       0       0       0       0
  6132 ;;Total ram usage:       18 bytes
  6133 ;; Hardware stack levels used: 1
  6134 ;; Hardware stack levels required when called: 4
  6135 ;; This function calls:
  6136 ;;		i2_vfprintf
  6137 ;; This function is called by:
  6138 ;;		_Timer0_UserCallback
  6139 ;; This function uses a non-reentrant model
  6140 ;;
  6141                           
  6142                           	psect	text39
  6143   003356                     __ptext39:
  6144                           	callstack 0
  6145   003356                     i2_sprintf:
  6146                           	callstack 18
  6147   003356  0E1A               	movlw	low (?i2_sprintf+3)
  6148   003358  6E1C               	movwf	i2sprintf@ap^0,c
  6149   00335A  C017  F01D         	movff	i2sprintf@s,i2sprintf@f
  6150   00335E  C018  F01E         	movff	i2sprintf@s+1,i2sprintf@f+1
  6151   003362  0E00               	movlw	0
  6152   003364  6E21               	movwf	(i2sprintf@f+4)^0,c
  6153   003366  0E00               	movlw	0
  6154   003368  6E20               	movwf	(i2sprintf@f+3)^0,c
  6155   00336A  0E00               	movlw	0
  6156   00336C  6E28               	movwf	(i2sprintf@f+11)^0,c
  6157   00336E  0E00               	movlw	0
  6158   003370  6E27               	movwf	(i2sprintf@f+10)^0,c
  6159   003372  0E1D               	movlw	low i2sprintf@f
  6160   003374  6E13               	movwf	i2vfprintf@fp^0,c
  6161   003376  C019  F014         	movff	i2sprintf@fmt,i2vfprintf@fmt
  6162   00337A  0E1C               	movlw	low i2sprintf@ap
  6163   00337C  6E15               	movwf	i2vfprintf@ap^0,c
  6164   00337E  EC6D  F019         	call	i2_vfprintf	;wreg free
  6165   003382  5020               	movf	(i2sprintf@f+3)^0,w,c
  6166   003384  2417               	addwf	i2sprintf@s^0,w,c
  6167   003386  6ED9               	movwf	fsr2l,c
  6168   003388  5021               	movf	(i2sprintf@f+4)^0,w,c
  6169   00338A  2018               	addwfc	(i2sprintf@s+1)^0,w,c
  6170   00338C  6EDA               	movwf	fsr2h,c
  6171   00338E  6ADF               	clrf	indf2,c
  6172   003390  0012               	return		;funcret
  6173   003392                     __end_ofi2_sprintf:
  6174                           	callstack 0
  6175                           
  6176 ;; *************** function i2_vfprintf *****************
  6177 ;; Defined at:
  6178 ;;		line 1817 in file "C:\Program Files\Microchip\xc8\v2.46\pic\sources\c99\common\doprnt.c"
  6179 ;; Parameters:    Size  Location     Type
  6180 ;;  fp              1   18[COMRAM] PTR struct _IO_FILE
  6181 ;;		 -> i2sprintf@f(12), sprintf@f(12), 
  6182 ;;  fmt             1   19[COMRAM] PTR const unsigned char 
  6183 ;;		 -> STR_4(3), STR_3(3), STR_1(11), 
  6184 ;;  ap              1   20[COMRAM] PTR PTR void 
  6185 ;;		 -> i2sprintf@ap(1), sprintf@ap(1), 
  6186 ;; Auto vars:     Size  Location     Type
  6187 ;;  cfmt            1   21[COMRAM] PTR unsigned char 
  6188 ;;		 -> STR_4(3), STR_3(3), STR_1(11), 
  6189 ;; Return value:  Size  Location     Type
  6190 ;;                  2   18[COMRAM] int 
  6191 ;; Registers used:
  6192 ;;		wreg, fsr1l, fsr1h, fsr2l, fsr2h, status,2, status,0, tblptrl, tblptrh, tblptru, cstack
  6193 ;; Tracked objects:
  6194 ;;		On entry : 0/0
  6195 ;;		On exit  : 0/0
  6196 ;;		Unchanged: 0/0
  6197 ;; Data sizes:     COMRAM   BANK0   BANK1   BANK2   BANK3   BANK4   BANK5   BANK6   BANK7   BANK8   BANK9  BANK10  BANK1
      +1  BANK12  BANK13  BANK14  BANK15
  6198 ;;      Params:         3       0       0       0       0       0       0       0       0       0       0       0       
      +0       0       0       0       0
  6199 ;;      Locals:         1       0       0       0       0       0       0       0       0       0       0       0       
      +0       0       0       0       0
  6200 ;;      Temps:          0       0       0       0       0       0       0       0       0       0       0       0       
      +0       0       0       0       0
  6201 ;;      Totals:         4       0       0       0       0       0       0       0       0       0       0       0       
      +0       0       0       0       0
  6202 ;;Total ram usage:        4 bytes
  6203 ;; Hardware stack levels used: 1
  6204 ;; Hardware stack levels required when called: 3
  6205 ;; This function calls:
  6206 ;;		i2_vfpfcnvrt
  6207 ;; This function is called by:
  6208 ;;		i2_sprintf
  6209 ;; This function uses a non-reentrant model
  6210 ;;
  6211                           
  6212                           	psect	text40
  6213   0032DA                     __ptext40:
  6214                           	callstack 0
  6215   0032DA                     i2_vfprintf:
  6216                           	callstack 18
  6217   0032DA                     
  6218                           ;C:\Program Files\Microchip\xc8\v2.46\pic\sources\c99\common\doprnt.c: 1817: int vfprint
      +                          f(FILE *fp, const char *fmt, va_list ap);C:\Program Files\Microchip\xc8\v2.46\pic\source
      +                          s\c99\common\doprnt.c: 1818: {;C:\Program Files\Microchip\xc8\v2.46\pic\sources\c99\comm
      +                          on\doprnt.c: 1820:     char *cfmt;;C:\Program Files\Microchip\xc8\v2.46\pic\sources\c99\
      +                          common\doprnt.c: 1822:     cfmt = (char *)fmt;
  6219   0032DA  C014  F016         	movff	i2vfprintf@fmt,i2vfprintf@cfmt
  6220                           
  6221                           ;C:\Program Files\Microchip\xc8\v2.46\pic\sources\c99\common\doprnt.c: 1826:     while (
      +                          *cfmt) {
  6222   0032DE  EF79  F019         	goto	i2l4035
  6223   0032E2                     i2l4033:
  6224                           
  6225                           ;C:\Program Files\Microchip\xc8\v2.46\pic\sources\c99\common\doprnt.c: 1830:    vfpfcnvr
      +                          t(fp, &cfmt, ap);
  6226   0032E2  C013  F009         	movff	i2vfprintf@fp,i2vfpfcnvrt@fp
  6227   0032E6  0E16               	movlw	low i2vfprintf@cfmt
  6228   0032E8  6E0A               	movwf	i2vfpfcnvrt@fmt^0,c
  6229   0032EA  C015  F00B         	movff	i2vfprintf@ap,i2vfpfcnvrt@ap
  6230   0032EE  EC58  F013         	call	i2_vfpfcnvrt	;wreg free
  6231   0032F2                     i2l4035:
  6232                           
  6233                           ;C:\Program Files\Microchip\xc8\v2.46\pic\sources\c99\common\doprnt.c: 1826:     while (
      +                          *cfmt) {
  6234   0032F2  C016  FFF6         	movff	i2vfprintf@cfmt,tblptrl
  6235   0032F6                     	if	1	;There is more than 1 active tblptr byte
  6236   0032F6  0E10               	movlw	high __smallconst
  6237   0032F8  6EF7               	movwf	tblptrh,c
  6238   0032FA                     	endif
  6239   0032FA                     	if	1	;Program memory is < 0x10000, tblptru is always zero
  6240   0032FA  6AF8               	clrf	tblptru,c
  6241   0032FC                     	endif
  6242   0032FC                     	if	0	;tblptru may be non-zero
  6243   0032FC                     	endif
  6244   0032FC  0008               	tblrd		*
  6245   0032FE  50F5               	movf	tablat,w,c
  6246   003300  0900               	iorlw	0
  6247   003302  A4D8               	btfss	status,2,c
  6248   003304  EF86  F019         	goto	i2u392_41
  6249   003308  EF88  F019         	goto	i2u392_40
  6250   00330C                     i2u392_41:
  6251   00330C  EF71  F019         	goto	i2l4033
  6252   003310                     i2u392_40:
  6253   003310                     
  6254                           ;C:\Program Files\Microchip\xc8\v2.46\pic\sources\c99\common\doprnt.c: 1835:  return 0;
  6255   003310  0E00               	movlw	0
  6256   003312  6E14               	movwf	(?i2_vfprintf+1)^0,c
  6257   003314  0E00               	movlw	0
  6258   003316  6E13               	movwf	?i2_vfprintf^0,c
  6259   003318  0012               	return		;funcret
  6260   00331A                     __end_ofi2_vfprintf:
  6261                           	callstack 0
  6262                           
  6263 ;; *************** function i2_vfpfcnvrt *****************
  6264 ;; Defined at:
  6265 ;;		line 1177 in file "C:\Program Files\Microchip\xc8\v2.46\pic\sources\c99\common\doprnt.c"
  6266 ;; Parameters:    Size  Location     Type
  6267 ;;  fp              1    8[COMRAM] PTR struct _IO_FILE
  6268 ;;		 -> i2sprintf@f(12), sprintf@f(12), 
  6269 ;;  fmt             1    9[COMRAM] PTR PTR unsigned char 
  6270 ;;		 -> i2vfprintf@cfmt(1), vfprintf@cfmt(1), 
  6271 ;;  ap              1   10[COMRAM] PTR PTR void 
  6272 ;;		 -> i2sprintf@ap(1), sprintf@ap(1), 
  6273 ;; Auto vars:     Size  Location     Type
  6274 ;;  convarg         4   12[COMRAM] struct .
  6275 ;;  c               1   17[COMRAM] unsigned char 
  6276 ;;  cp              1   16[COMRAM] PTR unsigned char 
  6277 ;;		 -> STR_4(3), STR_3(3), STR_1(11), 
  6278 ;;  done            1    0        _Bool 
  6279 ;; Return value:  Size  Location     Type
  6280 ;;                  1    wreg      void 
  6281 ;; Registers used:
  6282 ;;		wreg, fsr1l, fsr1h, fsr2l, fsr2h, status,2, status,0, tblptrl, tblptrh, tblptru, cstack
  6283 ;; Tracked objects:
  6284 ;;		On entry : 0/0
  6285 ;;		On exit  : 0/0
  6286 ;;		Unchanged: 0/0
  6287 ;; Data sizes:     COMRAM   BANK0   BANK1   BANK2   BANK3   BANK4   BANK5   BANK6   BANK7   BANK8   BANK9  BANK10  BANK1
      +1  BANK12  BANK13  BANK14  BANK15
  6288 ;;      Params:         3       0       0       0       0       0       0       0       0       0       0       0       
      +0       0       0       0       0
  6289 ;;      Locals:         6       0       0       0       0       0       0       0       0       0       0       0       
      +0       0       0       0       0
  6290 ;;      Temps:          1       0       0       0       0       0       0       0       0       0       0       0       
      +0       0       0       0       0
  6291 ;;      Totals:        10       0       0       0       0       0       0       0       0       0       0       0       
      +0       0       0       0       0
  6292 ;;Total ram usage:       10 bytes
  6293 ;; Hardware stack levels used: 1
  6294 ;; Hardware stack levels required when called: 2
  6295 ;; This function calls:
  6296 ;;		i2___lwdiv
  6297 ;;		i2___lwmod
  6298 ;;		i2_fputc
  6299 ;; This function is called by:
  6300 ;;		i2_vfprintf
  6301 ;; This function uses a non-reentrant model
  6302 ;;
  6303                           
  6304                           	psect	text41
  6305   0026B0                     __ptext41:
  6306                           	callstack 0
  6307   0026B0                     i2_vfpfcnvrt:
  6308                           	callstack 18
  6309   0026B0                     
  6310                           ;C:\Program Files\Microchip\xc8\v2.46\pic\sources\c99\common\doprnt.c: 1177: vfpfcnvrt(F
      +                          ILE *fp, char *fmt[], va_list ap);C:\Program Files\Microchip\xc8\v2.46\pic\sources\c99\c
      +                          ommon\doprnt.c: 1178: {;C:\Program Files\Microchip\xc8\v2.46\pic\sources\c99\common\dopr
      +                          nt.c: 1179:     char c, *cp;;C:\Program Files\Microchip\xc8\v2.46\pic\sources\c99\common
      +                          \doprnt.c: 1180:     _Bool done;;C:\Program Files\Microchip\xc8\v2.46\pic\sources\c99\co
      +                          mmon\doprnt.c: 1188:  } convarg;;C:\Program Files\Microchip\xc8\v2.46\pic\sources\c99\co
      +                          mmon\doprnt.c: 1201:     if ((*fmt)[0] == '%') {
  6311   0026B0  500A               	movf	i2vfpfcnvrt@fmt^0,w,c
  6312   0026B2  6ED9               	movwf	fsr2l,c
  6313   0026B4  6ADA               	clrf	fsr2h,c
  6314   0026B6  CFDF FFF6          	movff	indf2,tblptrl
  6315   0026BA                     	if	1	;There is more than 1 active tblptr byte
  6316   0026BA  0E10               	movlw	high __smallconst
  6317   0026BC  6EF7               	movwf	tblptrh,c
  6318   0026BE                     	endif
  6319   0026BE                     	if	1	;Program memory is < 0x10000, tblptru is always zero
  6320   0026BE  6AF8               	clrf	tblptru,c
  6321   0026C0                     	endif
  6322   0026C0                     	if	0	;tblptru may be non-zero
  6323   0026C0                     	endif
  6324   0026C0  0008               	tblrd		*
  6325   0026C2  50F5               	movf	tablat,w,c
  6326   0026C4  0A25               	xorlw	37
  6327   0026C6  A4D8               	btfss	status,2,c
  6328   0026C8  EF68  F013         	goto	i2u376_41
  6329   0026CC  EF6A  F013         	goto	i2u376_40
  6330   0026D0                     i2u376_41:
  6331   0026D0  EF03  F014         	goto	i2l3971
  6332   0026D4                     i2u376_40:
  6333   0026D4                     
  6334                           ;C:\Program Files\Microchip\xc8\v2.46\pic\sources\c99\common\doprnt.c: 1202:         ++*
      +                          fmt;
  6335   0026D4  500A               	movf	i2vfpfcnvrt@fmt^0,w,c
  6336   0026D6  6ED9               	movwf	fsr2l,c
  6337   0026D8  6ADA               	clrf	fsr2h,c
  6338   0026DA  2ADF               	incf	indf2,f,c
  6339   0026DC                     
  6340                           ;C:\Program Files\Microchip\xc8\v2.46\pic\sources\c99\common\doprnt.c: 1204:         fla
      +                          gs = width = 0;
  6341   0026DC  0E00               	movlw	0
  6342   0026DE  0100               	movlb	0	; () banked
  6343   0026E0  6FC5               	movwf	(_width+1)& (0+255),b
  6344   0026E2  0E00               	movlw	0
  6345   0026E4  6FC4               	movwf	_width& (0+255),b
  6346   0026E6  C0C4  F05D         	movff	_width,_flags
  6347   0026EA                     
  6348                           ; BSR set to: 0
  6349                           ;C:\Program Files\Microchip\xc8\v2.46\pic\sources\c99\common\doprnt.c: 1205:         pre
      +                          c = -1;
  6350   0026EA  69C6               	setf	_prec& (0+255),b
  6351   0026EC  69C7               	setf	(_prec+1)& (0+255),b
  6352   0026EE                     
  6353                           ; BSR set to: 0
  6354                           ;C:\Program Files\Microchip\xc8\v2.46\pic\sources\c99\common\doprnt.c: 1439:   if (0
  6355   0026EE  500A               	movf	i2vfpfcnvrt@fmt^0,w,c
  6356   0026F0  6ED9               	movwf	fsr2l,c
  6357   0026F2  6ADA               	clrf	fsr2h,c
  6358   0026F4  50DF               	movf	indf2,w,c
  6359   0026F6  6E11               	movwf	i2vfpfcnvrt@cp^0,c
  6360   0026F8                     
  6361                           ; BSR set to: 0
  6362   0026F8  C011  FFF6         	movff	i2vfpfcnvrt@cp,tblptrl
  6363   0026FC                     	if	1	;There is more than 1 active tblptr byte
  6364   0026FC  0E10               	movlw	high __smallconst
  6365   0026FE  6EF7               	movwf	tblptrh,c
  6366   002700                     	endif
  6367   002700                     	if	1	;Program memory is < 0x10000, tblptru is always zero
  6368   002700  6AF8               	clrf	tblptru,c
  6369   002702                     	endif
  6370   002702                     	if	0	;tblptru may be non-zero
  6371   002702                     	endif
  6372   002702  0008               	tblrd		*
  6373   002704  50F5               	movf	tablat,w,c
  6374   002706  0A75               	xorlw	117
  6375   002708  A4D8               	btfss	status,2,c
  6376   00270A  EF89  F013         	goto	i2u377_41
  6377   00270E  EF8B  F013         	goto	i2u377_40
  6378   002712                     i2u377_41:
  6379   002712  EFFD  F013         	goto	i2l3967
  6380   002716                     i2u377_40:
  6381   002716                     
  6382                           ; BSR set to: 0
  6383                           ;C:\Program Files\Microchip\xc8\v2.46\pic\sources\c99\common\doprnt.c: 1452:     ) {;C:\
      +                          Program Files\Microchip\xc8\v2.46\pic\sources\c99\common\doprnt.c: 1495:    convarg.uint
      +                           = (vfpf_uint_t)(unsigned int)(*(unsigned int *)__va_arg(*(unsigned int **)ap, (unsigned
      +                           int)0));
  6384   002716  500B               	movf	i2vfpfcnvrt@ap^0,w,c
  6385   002718  6ED9               	movwf	fsr2l,c
  6386   00271A  6ADA               	clrf	fsr2h,c
  6387   00271C  0E02               	movlw	2
  6388   00271E  26DF               	addwf	indf2,f,c
  6389   002720  5CDF               	subwf	indf2,w,c
  6390   002722  6ED9               	movwf	fsr2l,c
  6391   002724  6ADA               	clrf	fsr2h,c
  6392   002726  CFDE F00D          	movff	postinc2,i2vfpfcnvrt@convarg
  6393   00272A  CFDE F00E          	movff	postinc2,i2vfpfcnvrt@convarg+1
  6394   00272E                     
  6395                           ; BSR set to: 0
  6396                           ;C:\Program Files\Microchip\xc8\v2.46\pic\sources\c99\common\doprnt.c: 1497:    *fmt = c
      +                          p+1;
  6397   00272E  500A               	movf	i2vfpfcnvrt@fmt^0,w,c
  6398   002730  6ED9               	movwf	fsr2l,c
  6399   002732  6ADA               	clrf	fsr2h,c
  6400   002734  2811               	incf	i2vfpfcnvrt@cp^0,w,c
  6401   002736  6EDF               	movwf	indf2,c
  6402                           
  6403                           ;C:\Program Files\Microchip\xc8\v2.46\pic\sources\c99\common\doprnt.c: 1498:    switch (
      +                          *cp) {
  6404   002738  EFF0  F013         	goto	i2l3965
  6405   00273C                     i2l3947:
  6406                           
  6407                           ; BSR set to: 0
  6408                           ;C:\Program Files\Microchip\xc8\v2.46\pic\sources\c99\common\doprnt.c: 1525:      c = si
      +                          zeof(dbuf);
  6409   00273C  0E20               	movlw	32
  6410   00273E  6E12               	movwf	i2vfpfcnvrt@c^0,c
  6411   002740                     i2l3949:
  6412                           
  6413                           ;C:\Program Files\Microchip\xc8\v2.46\pic\sources\c99\common\doprnt.c: 1527:       dbuf[
      +                          --c] = (convarg.uint % 10) + '0';
  6414   002740  0612               	decf	i2vfpfcnvrt@c^0,f,c
  6415   002742  0E00               	movlw	low _dbuf
  6416   002744  2412               	addwf	i2vfpfcnvrt@c^0,w,c
  6417   002746  6ED9               	movwf	fsr2l,c
  6418   002748  6ADA               	clrf	fsr2h,c
  6419   00274A  0E01               	movlw	high _dbuf
  6420   00274C  22DA               	addwfc	fsr2h,f,c
  6421   00274E  C00D  F001         	movff	i2vfpfcnvrt@convarg,i2___lwmod@dividend
  6422   002752  C00E  F002         	movff	i2vfpfcnvrt@convarg+1,i2___lwmod@dividend+1
  6423   002756  0E00               	movlw	0
  6424   002758  6E04               	movwf	(i2___lwmod@divisor+1)^0,c
  6425   00275A  0E0A               	movlw	10
  6426   00275C  6E03               	movwf	i2___lwmod@divisor^0,c
  6427   00275E  EC8F  F018         	call	i2___lwmod	;wreg free
  6428   002762  5001               	movf	?i2___lwmod^0,w,c
  6429   002764  0F30               	addlw	48
  6430   002766  6EDF               	movwf	indf2,c
  6431   002768                     
  6432                           ;C:\Program Files\Microchip\xc8\v2.46\pic\sources\c99\common\doprnt.c: 1528:       conva
      +                          rg.uint /= 10;
  6433   002768  C00D  F001         	movff	i2vfpfcnvrt@convarg,i2___lwdiv@dividend
  6434   00276C  C00E  F002         	movff	i2vfpfcnvrt@convarg+1,i2___lwdiv@dividend+1
  6435   002770  0E00               	movlw	0
  6436   002772  6E04               	movwf	(i2___lwdiv@divisor+1)^0,c
  6437   002774  0E0A               	movlw	10
  6438   002776  6E03               	movwf	i2___lwdiv@divisor^0,c
  6439   002778  ECF0  F017         	call	i2___lwdiv	;wreg free
  6440   00277C  C001  F00D         	movff	?i2___lwdiv,i2vfpfcnvrt@convarg
  6441   002780  C002  F00E         	movff	?i2___lwdiv+1,i2vfpfcnvrt@convarg+1
  6442   002784                     
  6443                           ;C:\Program Files\Microchip\xc8\v2.46\pic\sources\c99\common\doprnt.c: 1532:      } whil
      +                          e (convarg.uint != 0 && c != 0);
  6444   002784  500D               	movf	i2vfpfcnvrt@convarg^0,w,c
  6445   002786  100E               	iorwf	(i2vfpfcnvrt@convarg+1)^0,w,c
  6446   002788  B4D8               	btfsc	status,2,c
  6447   00278A  EFC9  F013         	goto	i2u378_41
  6448   00278E  EFCB  F013         	goto	i2u378_40
  6449   002792                     i2u378_41:
  6450   002792  EFE5  F013         	goto	i2l3961
  6451   002796                     i2u378_40:
  6452   002796  5012               	movf	i2vfpfcnvrt@c^0,w,c
  6453   002798  A4D8               	btfss	status,2,c
  6454   00279A  EFD1  F013         	goto	i2u379_41
  6455   00279E  EFD3  F013         	goto	i2u379_40
  6456   0027A2                     i2u379_41:
  6457   0027A2  EFA0  F013         	goto	i2l3949
  6458   0027A6                     i2u379_40:
  6459   0027A6  EFE5  F013         	goto	i2l3961
  6460   0027AA                     i2l3957:
  6461                           
  6462                           ;C:\Program Files\Microchip\xc8\v2.46\pic\sources\c99\common\doprnt.c: 1534:       fputc
      +                          (dbuf[c++], fp);
  6463   0027AA  0E00               	movlw	low _dbuf
  6464   0027AC  2412               	addwf	i2vfpfcnvrt@c^0,w,c
  6465   0027AE  6ED9               	movwf	fsr2l,c
  6466   0027B0  6ADA               	clrf	fsr2h,c
  6467   0027B2  0E01               	movlw	high _dbuf
  6468   0027B4  22DA               	addwfc	fsr2h,f,c
  6469   0027B6  50DF               	movf	indf2,w,c
  6470   0027B8  6E0C               	movwf	??i2_vfpfcnvrt^0,c
  6471   0027BA  500C               	movf	??i2_vfpfcnvrt^0,w,c
  6472   0027BC  6E01               	movwf	i2fputc@c^0,c
  6473   0027BE  6A02               	clrf	(i2fputc@c+1)^0,c
  6474   0027C0  C009  F003         	movff	i2vfpfcnvrt@fp,i2fputc@fp
  6475   0027C4  EC8C  F016         	call	i2_fputc	;wreg free
  6476   0027C8  2A12               	incf	i2vfpfcnvrt@c^0,f,c
  6477   0027CA                     i2l3961:
  6478                           
  6479                           ;C:\Program Files\Microchip\xc8\v2.46\pic\sources\c99\common\doprnt.c: 1533:      while 
      +                          (c != sizeof(dbuf)) {
  6480   0027CA  0E20               	movlw	32
  6481   0027CC  1812               	xorwf	i2vfpfcnvrt@c^0,w,c
  6482   0027CE  A4D8               	btfss	status,2,c
  6483   0027D0  EFEC  F013         	goto	i2u380_41
  6484   0027D4  EFEE  F013         	goto	i2u380_40
  6485   0027D8                     i2u380_41:
  6486   0027D8  EFD5  F013         	goto	i2l3957
  6487   0027DC                     i2u380_40:
  6488   0027DC  EF15  F014         	goto	i2l1193
  6489   0027E0                     i2l3965:
  6490                           
  6491                           ; BSR set to: 0
  6492   0027E0  C011  FFF6         	movff	i2vfpfcnvrt@cp,tblptrl
  6493   0027E4                     	if	1	;There is more than 1 active tblptr byte
  6494   0027E4  0E10               	movlw	high __smallconst
  6495   0027E6  6EF7               	movwf	tblptrh,c
  6496   0027E8                     	endif
  6497   0027E8                     	if	1	;Program memory is < 0x10000, tblptru is always zero
  6498   0027E8  6AF8               	clrf	tblptru,c
  6499   0027EA                     	endif
  6500   0027EA                     	if	0	;tblptru may be non-zero
  6501   0027EA                     	endif
  6502   0027EA  0008               	tblrd		*
  6503   0027EC  50F5               	movf	tablat,w,c
  6504                           
  6505                           ; Switch size 1, requested type "simple"
  6506                           ; Number of cases is 1, Range of values is 117 to 117
  6507                           ; switch strategies available:
  6508                           ; Name         Instructions Cycles
  6509                           ; simple_byte            4     3 (average)
  6510                           ;	Chosen strategy is simple_byte
  6511   0027EE  0A75               	xorlw	117	; case 117
  6512   0027F0  B4D8               	btfsc	status,2,c
  6513   0027F2  EF9E  F013         	goto	i2l3947
  6514   0027F6  EFFD  F013         	goto	i2l3967
  6515   0027FA                     i2l3967:
  6516                           
  6517                           ;C:\Program Files\Microchip\xc8\v2.46\pic\sources\c99\common\doprnt.c: 1806:         ++*
      +                          fmt;
  6518   0027FA  500A               	movf	i2vfpfcnvrt@fmt^0,w,c
  6519   0027FC  6ED9               	movwf	fsr2l,c
  6520   0027FE  6ADA               	clrf	fsr2h,c
  6521   002800  2ADF               	incf	indf2,f,c
  6522   002802  EF15  F014         	goto	i2l1193
  6523   002806                     i2l3971:
  6524                           
  6525                           ;C:\Program Files\Microchip\xc8\v2.46\pic\sources\c99\common\doprnt.c: 1811:     fputc((
      +                          int)(*fmt)[0], fp);
  6526   002806  500A               	movf	i2vfpfcnvrt@fmt^0,w,c
  6527   002808  6ED9               	movwf	fsr2l,c
  6528   00280A  6ADA               	clrf	fsr2h,c
  6529   00280C  CFDF FFF6          	movff	indf2,tblptrl
  6530   002810                     	if	1	;There is more than 1 active tblptr byte
  6531   002810  0E10               	movlw	high __smallconst
  6532   002812  6EF7               	movwf	tblptrh,c
  6533   002814                     	endif
  6534   002814                     	if	1	;Program memory is < 0x10000, tblptru is always zero
  6535   002814  6AF8               	clrf	tblptru,c
  6536   002816                     	endif
  6537   002816                     	if	0	;tblptru may be non-zero
  6538   002816                     	endif
  6539   002816  0008               	tblrd		*
  6540   002818  50F5               	movf	tablat,w,c
  6541   00281A  6E01               	movwf	i2fputc@c^0,c
  6542   00281C  6A02               	clrf	(i2fputc@c+1)^0,c
  6543   00281E  C009  F003         	movff	i2vfpfcnvrt@fp,i2fputc@fp
  6544   002822  EC8C  F016         	call	i2_fputc	;wreg free
  6545   002826  EFFD  F013         	goto	i2l3967
  6546   00282A                     i2l1193:
  6547   00282A  0012               	return		;funcret
  6548   00282C                     __end_ofi2_vfpfcnvrt:
  6549                           	callstack 0
  6550                           
  6551 ;; *************** function i2_fputc *****************
  6552 ;; Defined at:
  6553 ;;		line 8 in file "C:\Program Files\Microchip\xc8\v2.46\pic\sources\c99\common\nf_fputc.c"
  6554 ;; Parameters:    Size  Location     Type
  6555 ;;  c               2    0[COMRAM] int 
  6556 ;;  fp              1    2[COMRAM] PTR struct _IO_FILE
  6557 ;;		 -> i2sprintf@f(12), sprintf@f(12), 
  6558 ;; Auto vars:     Size  Location     Type
  6559 ;;		None
  6560 ;; Return value:  Size  Location     Type
  6561 ;;                  2    0[COMRAM] int 
  6562 ;; Registers used:
  6563 ;;		wreg, fsr1l, fsr1h, fsr2l, fsr2h, status,2, status,0, cstack
  6564 ;; Tracked objects:
  6565 ;;		On entry : 0/0
  6566 ;;		On exit  : 0/0
  6567 ;;		Unchanged: 0/0
  6568 ;; Data sizes:     COMRAM   BANK0   BANK1   BANK2   BANK3   BANK4   BANK5   BANK6   BANK7   BANK8   BANK9  BANK10  BANK1
      +1  BANK12  BANK13  BANK14  BANK15
  6569 ;;      Params:         3       0       0       0       0       0       0       0       0       0       0       0       
      +0       0       0       0       0
  6570 ;;      Locals:         0       0       0       0       0       0       0       0       0       0       0       0       
      +0       0       0       0       0
  6571 ;;      Temps:          5       0       0       0       0       0       0       0       0       0       0       0       
      +0       0       0       0       0
  6572 ;;      Totals:         8       0       0       0       0       0       0       0       0       0       0       0       
      +0       0       0       0       0
  6573 ;;Total ram usage:        8 bytes
  6574 ;; Hardware stack levels used: 1
  6575 ;; Hardware stack levels required when called: 1
  6576 ;; This function calls:
  6577 ;;		i2_putch
  6578 ;; This function is called by:
  6579 ;;		i2_vfpfcnvrt
  6580 ;; This function uses a non-reentrant model
  6581 ;;
  6582                           
  6583                           	psect	text42
  6584   002D18                     __ptext42:
  6585                           	callstack 0
  6586   002D18                     i2_fputc:
  6587                           	callstack 18
  6588   002D18  5003               	movf	i2fputc@fp^0,w,c
  6589   002D1A  B4D8               	btfsc	status,2,c
  6590   002D1C  EF92  F016         	goto	i2u372_41
  6591   002D20  EF94  F016         	goto	i2u372_40
  6592   002D24                     i2u372_41:
  6593   002D24  EF9C  F016         	goto	i2l3921
  6594   002D28                     i2u372_40:
  6595   002D28  5003               	movf	i2fputc@fp^0,w,c
  6596   002D2A  A4D8               	btfss	status,2,c
  6597   002D2C  EF9A  F016         	goto	i2u373_41
  6598   002D30  EF9C  F016         	goto	i2u373_40
  6599   002D34                     i2u373_41:
  6600   002D34  EFA1  F016         	goto	i2l3923
  6601   002D38                     i2u373_40:
  6602   002D38                     i2l3921:
  6603   002D38  5001               	movf	i2fputc@c^0,w,c
  6604   002D3A  ECD0  F01A         	call	i2_putch
  6605   002D3E  EFE8  F016         	goto	i2l1212
  6606   002D42                     i2l3923:
  6607   002D42  5003               	movf	i2fputc@fp^0,w,c
  6608   002D44  6ED9               	movwf	fsr2l,c
  6609   002D46  6ADA               	clrf	fsr2h,c
  6610   002D48  0E0A               	movlw	10
  6611   002D4A  26D9               	addwf	fsr2l,f,c
  6612   002D4C  50DE               	movf	postinc2,w,c
  6613   002D4E  10DE               	iorwf	postinc2,w,c
  6614   002D50  B4D8               	btfsc	status,2,c
  6615   002D52  EFAD  F016         	goto	i2u374_41
  6616   002D56  EFAF  F016         	goto	i2u374_40
  6617   002D5A                     i2u374_41:
  6618   002D5A  EFC8  F016         	goto	i2l3927
  6619   002D5E                     i2u374_40:
  6620   002D5E  5003               	movf	i2fputc@fp^0,w,c
  6621   002D60  6ED9               	movwf	fsr2l,c
  6622   002D62  6ADA               	clrf	fsr2h,c
  6623   002D64  0E0A               	movlw	10
  6624   002D66  26D9               	addwf	fsr2l,f,c
  6625   002D68  5003               	movf	i2fputc@fp^0,w,c
  6626   002D6A  6EE1               	movwf	fsr1l,c
  6627   002D6C  6AE2               	clrf	fsr1h,c
  6628   002D6E  0E03               	movlw	3
  6629   002D70  26E1               	addwf	fsr1l,f,c
  6630   002D72  50DE               	movf	postinc2,w,c
  6631   002D74  5CE6               	subwf	postinc1,w,c
  6632   002D76  50E6               	movf	postinc1,w,c
  6633   002D78  0A80               	xorlw	128
  6634   002D7A  6E08               	movwf	(??i2_fputc+4)^0,c
  6635   002D7C  50DE               	movf	postinc2,w,c
  6636   002D7E  0A80               	xorlw	128
  6637   002D80  5808               	subwfb	(??i2_fputc+4)^0,w,c
  6638   002D82  B0D8               	btfsc	status,0,c
  6639   002D84  EFC6  F016         	goto	i2u375_41
  6640   002D88  EFC8  F016         	goto	i2u375_40
  6641   002D8C                     i2u375_41:
  6642   002D8C  EFE8  F016         	goto	i2l1212
  6643   002D90                     i2u375_40:
  6644   002D90                     i2l3927:
  6645   002D90  5003               	movf	i2fputc@fp^0,w,c
  6646   002D92  6ED9               	movwf	fsr2l,c
  6647   002D94  6ADA               	clrf	fsr2h,c
  6648   002D96  0E03               	movlw	3
  6649   002D98  26D9               	addwf	fsr2l,f,c
  6650   002D9A  CFDE F004          	movff	postinc2,??i2_fputc
  6651   002D9E  CFDD F005          	movff	postdec2,??i2_fputc+1
  6652   002DA2  5003               	movf	i2fputc@fp^0,w,c
  6653   002DA4  6ED9               	movwf	fsr2l,c
  6654   002DA6  6ADA               	clrf	fsr2h,c
  6655   002DA8  CFDE F006          	movff	postinc2,??i2_fputc+2
  6656   002DAC  CFDD F007          	movff	postdec2,??i2_fputc+3
  6657   002DB0  5004               	movf	??i2_fputc^0,w,c
  6658   002DB2  2406               	addwf	(??i2_fputc+2)^0,w,c
  6659   002DB4  6ED9               	movwf	fsr2l,c
  6660   002DB6  5005               	movf	(??i2_fputc+1)^0,w,c
  6661   002DB8  2007               	addwfc	(??i2_fputc+3)^0,w,c
  6662   002DBA  6EDA               	movwf	fsr2h,c
  6663   002DBC  C001  FFDF         	movff	i2fputc@c,indf2
  6664   002DC0  5003               	movf	i2fputc@fp^0,w,c
  6665   002DC2  6ED9               	movwf	fsr2l,c
  6666   002DC4  6ADA               	clrf	fsr2h,c
  6667   002DC6  0E03               	movlw	3
  6668   002DC8  26D9               	addwf	fsr2l,f,c
  6669   002DCA  2ADE               	incf	postinc2,f,c
  6670   002DCC  0E00               	movlw	0
  6671   002DCE  22DD               	addwfc	postdec2,f,c
  6672   002DD0                     i2l1212:
  6673   002DD0  0012               	return		;funcret
  6674   002DD2                     __end_ofi2_fputc:
  6675                           	callstack 0
  6676                           
  6677 ;; *************** function i2_putch *****************
  6678 ;; Defined at:
  6679 ;;		line 7 in file "C:\Program Files\Microchip\xc8\v2.46\pic\sources\c99\common\putch.c"
  6680 ;; Parameters:    Size  Location     Type
  6681 ;;  c               1    wreg     unsigned char 
  6682 ;; Auto vars:     Size  Location     Type
  6683 ;;  c               1  (no storage) unsigned char 
  6684 ;; Return value:  Size  Location     Type
  6685 ;;                  1    wreg      void 
  6686 ;; Registers used:
  6687 ;;		wreg
  6688 ;; Tracked objects:
  6689 ;;		On entry : 0/0
  6690 ;;		On exit  : 0/0
  6691 ;;		Unchanged: 0/0
  6692 ;; Data sizes:     COMRAM   BANK0   BANK1   BANK2   BANK3   BANK4   BANK5   BANK6   BANK7   BANK8   BANK9  BANK10  BANK1
      +1  BANK12  BANK13  BANK14  BANK15
  6693 ;;      Params:         0       0       0       0       0       0       0       0       0       0       0       0       
      +0       0       0       0       0
  6694 ;;      Locals:         0       0       0       0       0       0       0       0       0       0       0       0       
      +0       0       0       0       0
  6695 ;;      Temps:          0       0       0       0       0       0       0       0       0       0       0       0       
      +0       0       0       0       0
  6696 ;;      Totals:         0       0       0       0       0       0       0       0       0       0       0       0       
      +0       0       0       0       0
  6697 ;;Total ram usage:        0 bytes
  6698 ;; Hardware stack levels used: 1
  6699 ;; This function calls:
  6700 ;;		Nothing
  6701 ;; This function is called by:
  6702 ;;		i2_fputc
  6703 ;; This function uses a non-reentrant model
  6704 ;;
  6705                           
  6706                           	psect	text43
  6707   0035A0                     __ptext43:
  6708                           	callstack 0
  6709   0035A0                     i2_putch:
  6710                           	callstack 18
  6711   0035A0  0012               	return		;funcret
  6712   0035A2                     __end_ofi2_putch:
  6713                           	callstack 0
  6714                           
  6715 ;; *************** function i2___lwmod *****************
  6716 ;; Defined at:
  6717 ;;		line 7 in file "C:\Program Files\Microchip\xc8\v2.46\pic\sources\c99\common\lwmod.c"
  6718 ;; Parameters:    Size  Location     Type
  6719 ;;  dividend        2    0[COMRAM] unsigned int 
  6720 ;;  divisor         2    2[COMRAM] unsigned int 
  6721 ;; Auto vars:     Size  Location     Type
  6722 ;;  counter         1    4[COMRAM] unsigned char 
  6723 ;; Return value:  Size  Location     Type
  6724 ;;                  2    0[COMRAM] unsigned int 
  6725 ;; Registers used:
  6726 ;;		wreg, status,2, status,0
  6727 ;; Tracked objects:
  6728 ;;		On entry : 0/0
  6729 ;;		On exit  : 0/0
  6730 ;;		Unchanged: 0/0
  6731 ;; Data sizes:     COMRAM   BANK0   BANK1   BANK2   BANK3   BANK4   BANK5   BANK6   BANK7   BANK8   BANK9  BANK10  BANK1
      +1  BANK12  BANK13  BANK14  BANK15
  6732 ;;      Params:         4       0       0       0       0       0       0       0       0       0       0       0       
      +0       0       0       0       0
  6733 ;;      Locals:         1       0       0       0       0       0       0       0       0       0       0       0       
      +0       0       0       0       0
  6734 ;;      Temps:          0       0       0       0       0       0       0       0       0       0       0       0       
      +0       0       0       0       0
  6735 ;;      Totals:         5       0       0       0       0       0       0       0       0       0       0       0       
      +0       0       0       0       0
  6736 ;;Total ram usage:        5 bytes
  6737 ;; Hardware stack levels used: 1
  6738 ;; This function calls:
  6739 ;;		Nothing
  6740 ;; This function is called by:
  6741 ;;		i2_vfpfcnvrt
  6742 ;; This function uses a non-reentrant model
  6743 ;;
  6744                           
  6745                           	psect	text44
  6746   00311E                     __ptext44:
  6747                           	callstack 0
  6748   00311E                     i2___lwmod:
  6749                           	callstack 19
  6750   00311E  5003               	movf	i2___lwmod@divisor^0,w,c
  6751   003120  1004               	iorwf	(i2___lwmod@divisor+1)^0,w,c
  6752   003122  B4D8               	btfsc	status,2,c
  6753   003124  EF96  F018         	goto	i2u369_41
  6754   003128  EF98  F018         	goto	i2u369_40
  6755   00312C                     i2u369_41:
  6756   00312C  EFBC  F018         	goto	i2l979
  6757   003130                     i2u369_40:
  6758   003130  0E01               	movlw	1
  6759   003132  6E05               	movwf	i2___lwmod@counter^0,c
  6760   003134  EFA0  F018         	goto	i2l3907
  6761   003138                     i2l3905:
  6762   003138  90D8               	bcf	status,0,c
  6763   00313A  3603               	rlcf	i2___lwmod@divisor^0,f,c
  6764   00313C  3604               	rlcf	(i2___lwmod@divisor+1)^0,f,c
  6765   00313E  2A05               	incf	i2___lwmod@counter^0,f,c
  6766   003140                     i2l3907:
  6767   003140  AE04               	btfss	(i2___lwmod@divisor+1)^0,7,c
  6768   003142  EFA5  F018         	goto	i2u370_41
  6769   003146  EFA7  F018         	goto	i2u370_40
  6770   00314A                     i2u370_41:
  6771   00314A  EF9C  F018         	goto	i2l3905
  6772   00314E                     i2u370_40:
  6773   00314E                     i2l3909:
  6774   00314E  5003               	movf	i2___lwmod@divisor^0,w,c
  6775   003150  5C01               	subwf	i2___lwmod@dividend^0,w,c
  6776   003152  5004               	movf	(i2___lwmod@divisor+1)^0,w,c
  6777   003154  5802               	subwfb	(i2___lwmod@dividend+1)^0,w,c
  6778   003156  A0D8               	btfss	status,0,c
  6779   003158  EFB0  F018         	goto	i2u371_41
  6780   00315C  EFB2  F018         	goto	i2u371_40
  6781   003160                     i2u371_41:
  6782   003160  EFB6  F018         	goto	i2l3913
  6783   003164                     i2u371_40:
  6784   003164  5003               	movf	i2___lwmod@divisor^0,w,c
  6785   003166  5E01               	subwf	i2___lwmod@dividend^0,f,c
  6786   003168  5004               	movf	(i2___lwmod@divisor+1)^0,w,c
  6787   00316A  5A02               	subwfb	(i2___lwmod@dividend+1)^0,f,c
  6788   00316C                     i2l3913:
  6789   00316C  90D8               	bcf	status,0,c
  6790   00316E  3204               	rrcf	(i2___lwmod@divisor+1)^0,f,c
  6791   003170  3203               	rrcf	i2___lwmod@divisor^0,f,c
  6792   003172  2E05               	decfsz	i2___lwmod@counter^0,f,c
  6793   003174  EFA7  F018         	goto	i2l3909
  6794   003178                     i2l979:
  6795   003178  C001  F001         	movff	i2___lwmod@dividend,?i2___lwmod
  6796   00317C  C002  F002         	movff	i2___lwmod@dividend+1,?i2___lwmod+1
  6797   003180  0012               	return		;funcret
  6798   003182                     __end_ofi2___lwmod:
  6799                           	callstack 0
  6800                           
  6801 ;; *************** function i2___lwdiv *****************
  6802 ;; Defined at:
  6803 ;;		line 7 in file "C:\Program Files\Microchip\xc8\v2.46\pic\sources\c99\common\lwdiv.c"
  6804 ;; Parameters:    Size  Location     Type
  6805 ;;  dividend        2    0[COMRAM] unsigned int 
  6806 ;;  divisor         2    2[COMRAM] unsigned int 
  6807 ;; Auto vars:     Size  Location     Type
  6808 ;;  quotient        2    5[COMRAM] unsigned int 
  6809 ;;  counter         1    4[COMRAM] unsigned char 
  6810 ;; Return value:  Size  Location     Type
  6811 ;;                  2    0[COMRAM] unsigned int 
  6812 ;; Registers used:
  6813 ;;		wreg, status,2, status,0
  6814 ;; Tracked objects:
  6815 ;;		On entry : 0/0
  6816 ;;		On exit  : 0/0
  6817 ;;		Unchanged: 0/0
  6818 ;; Data sizes:     COMRAM   BANK0   BANK1   BANK2   BANK3   BANK4   BANK5   BANK6   BANK7   BANK8   BANK9  BANK10  BANK1
      +1  BANK12  BANK13  BANK14  BANK15
  6819 ;;      Params:         4       0       0       0       0       0       0       0       0       0       0       0       
      +0       0       0       0       0
  6820 ;;      Locals:         3       0       0       0       0       0       0       0       0       0       0       0       
      +0       0       0       0       0
  6821 ;;      Temps:          0       0       0       0       0       0       0       0       0       0       0       0       
      +0       0       0       0       0
  6822 ;;      Totals:         7       0       0       0       0       0       0       0       0       0       0       0       
      +0       0       0       0       0
  6823 ;;Total ram usage:        7 bytes
  6824 ;; Hardware stack levels used: 1
  6825 ;; This function calls:
  6826 ;;		Nothing
  6827 ;; This function is called by:
  6828 ;;		i2_vfpfcnvrt
  6829 ;; This function uses a non-reentrant model
  6830 ;;
  6831                           
  6832                           	psect	text45
  6833   002FE0                     __ptext45:
  6834                           	callstack 0
  6835   002FE0                     i2___lwdiv:
  6836                           	callstack 19
  6837   002FE0  0E00               	movlw	0
  6838   002FE2  6E07               	movwf	(i2___lwdiv@quotient+1)^0,c
  6839   002FE4  0E00               	movlw	0
  6840   002FE6  6E06               	movwf	i2___lwdiv@quotient^0,c
  6841   002FE8  5003               	movf	i2___lwdiv@divisor^0,w,c
  6842   002FEA  1004               	iorwf	(i2___lwdiv@divisor+1)^0,w,c
  6843   002FEC  B4D8               	btfsc	status,2,c
  6844   002FEE  EFFB  F017         	goto	i2u366_41
  6845   002FF2  EFFD  F017         	goto	i2u366_40
  6846   002FF6                     i2u366_41:
  6847   002FF6  EF25  F018         	goto	i2l969
  6848   002FFA                     i2u366_40:
  6849   002FFA  0E01               	movlw	1
  6850   002FFC  6E05               	movwf	i2___lwdiv@counter^0,c
  6851   002FFE  EF05  F018         	goto	i2l3887
  6852   003002                     i2l3885:
  6853   003002  90D8               	bcf	status,0,c
  6854   003004  3603               	rlcf	i2___lwdiv@divisor^0,f,c
  6855   003006  3604               	rlcf	(i2___lwdiv@divisor+1)^0,f,c
  6856   003008  2A05               	incf	i2___lwdiv@counter^0,f,c
  6857   00300A                     i2l3887:
  6858   00300A  AE04               	btfss	(i2___lwdiv@divisor+1)^0,7,c
  6859   00300C  EF0A  F018         	goto	i2u367_41
  6860   003010  EF0C  F018         	goto	i2u367_40
  6861   003014                     i2u367_41:
  6862   003014  EF01  F018         	goto	i2l3885
  6863   003018                     i2u367_40:
  6864   003018                     i2l3889:
  6865   003018  90D8               	bcf	status,0,c
  6866   00301A  3606               	rlcf	i2___lwdiv@quotient^0,f,c
  6867   00301C  3607               	rlcf	(i2___lwdiv@quotient+1)^0,f,c
  6868   00301E  5003               	movf	i2___lwdiv@divisor^0,w,c
  6869   003020  5C01               	subwf	i2___lwdiv@dividend^0,w,c
  6870   003022  5004               	movf	(i2___lwdiv@divisor+1)^0,w,c
  6871   003024  5802               	subwfb	(i2___lwdiv@dividend+1)^0,w,c
  6872   003026  A0D8               	btfss	status,0,c
  6873   003028  EF18  F018         	goto	i2u368_41
  6874   00302C  EF1A  F018         	goto	i2u368_40
  6875   003030                     i2u368_41:
  6876   003030  EF1F  F018         	goto	i2l3897
  6877   003034                     i2u368_40:
  6878   003034  5003               	movf	i2___lwdiv@divisor^0,w,c
  6879   003036  5E01               	subwf	i2___lwdiv@dividend^0,f,c
  6880   003038  5004               	movf	(i2___lwdiv@divisor+1)^0,w,c
  6881   00303A  5A02               	subwfb	(i2___lwdiv@dividend+1)^0,f,c
  6882   00303C  8006               	bsf	i2___lwdiv@quotient^0,0,c
  6883   00303E                     i2l3897:
  6884   00303E  90D8               	bcf	status,0,c
  6885   003040  3204               	rrcf	(i2___lwdiv@divisor+1)^0,f,c
  6886   003042  3203               	rrcf	i2___lwdiv@divisor^0,f,c
  6887   003044  2E05               	decfsz	i2___lwdiv@counter^0,f,c
  6888   003046  EF0C  F018         	goto	i2l3889
  6889   00304A                     i2l969:
  6890   00304A  C006  F001         	movff	i2___lwdiv@quotient,?i2___lwdiv
  6891   00304E  C007  F002         	movff	i2___lwdiv@quotient+1,?i2___lwdiv+1
  6892   003052  0012               	return		;funcret
  6893   003054                     __end_ofi2___lwdiv:
  6894                           	callstack 0
  6895                           
  6896 ;; *************** function i2___xxtofl *****************
  6897 ;; Defined at:
  6898 ;;		line 10 in file "C:\Program Files\Microchip\xc8\v2.46\pic\sources\c99\common\xxtofl.c"
  6899 ;; Parameters:    Size  Location     Type
  6900 ;;  sign            1    wreg     unsigned char 
  6901 ;;  val             4    0[COMRAM] long 
  6902 ;; Auto vars:     Size  Location     Type
  6903 ;;  sign            1    8[COMRAM] unsigned char 
  6904 ;;  arg             4   10[COMRAM] unsigned long 
  6905 ;;  exp             1    9[COMRAM] unsigned char 
  6906 ;; Return value:  Size  Location     Type
  6907 ;;                  4    0[COMRAM] unsigned char 
  6908 ;; Registers used:
  6909 ;;		wreg, status,2, status,0
  6910 ;; Tracked objects:
  6911 ;;		On entry : 0/0
  6912 ;;		On exit  : 0/0
  6913 ;;		Unchanged: 0/0
  6914 ;; Data sizes:     COMRAM   BANK0   BANK1   BANK2   BANK3   BANK4   BANK5   BANK6   BANK7   BANK8   BANK9  BANK10  BANK1
      +1  BANK12  BANK13  BANK14  BANK15
  6915 ;;      Params:         4       0       0       0       0       0       0       0       0       0       0       0       
      +0       0       0       0       0
  6916 ;;      Locals:         6       0       0       0       0       0       0       0       0       0       0       0       
      +0       0       0       0       0
  6917 ;;      Temps:          4       0       0       0       0       0       0       0       0       0       0       0       
      +0       0       0       0       0
  6918 ;;      Totals:        14       0       0       0       0       0       0       0       0       0       0       0       
      +0       0       0       0       0
  6919 ;;Total ram usage:       14 bytes
  6920 ;; Hardware stack levels used: 1
  6921 ;; This function calls:
  6922 ;;		Nothing
  6923 ;; This function is called by:
  6924 ;;		_Timer0_UserCallback
  6925 ;; This function uses a non-reentrant model
  6926 ;;
  6927                           
  6928                           	psect	text46
  6929   002378                     __ptext46:
  6930                           	callstack 0
  6931   002378                     i2___xxtofl:
  6932                           	callstack 22
  6933                           
  6934                           ;incstack = 0
  6935                           ;i2___xxtofl@sign stored from wreg
  6936   002378  6E09               	movwf	i2___xxtofl@sign^0,c
  6937   00237A  5009               	movf	i2___xxtofl@sign^0,w,c
  6938   00237C  B4D8               	btfsc	status,2,c
  6939   00237E  EFC3  F011         	goto	i2u271_41
  6940   002382  EFC5  F011         	goto	i2u271_40
  6941   002386                     i2u271_41:
  6942   002386  EFE7  F011         	goto	i2l1133
  6943   00238A                     i2u271_40:
  6944   00238A  BE04               	btfsc	(i2___xxtofl@val+3)^0,7,c
  6945   00238C  EFCC  F011         	goto	i2u272_40
  6946   002390  EFCA  F011         	goto	i2u272_41
  6947   002394                     i2u272_41:
  6948   002394  EFE7  F011         	goto	i2l1133
  6949   002398                     i2u272_40:
  6950   002398  C001  F005         	movff	i2___xxtofl@val,??i2___xxtofl
  6951   00239C  C002  F006         	movff	i2___xxtofl@val+1,??i2___xxtofl+1
  6952   0023A0  C003  F007         	movff	i2___xxtofl@val+2,??i2___xxtofl+2
  6953   0023A4  C004  F008         	movff	i2___xxtofl@val+3,??i2___xxtofl+3
  6954   0023A8  1E05               	comf	??i2___xxtofl^0,f,c
  6955   0023AA  1E06               	comf	(??i2___xxtofl+1)^0,f,c
  6956   0023AC  1E07               	comf	(??i2___xxtofl+2)^0,f,c
  6957   0023AE  1E08               	comf	(??i2___xxtofl+3)^0,f,c
  6958   0023B0  2A05               	incf	??i2___xxtofl^0,f,c
  6959   0023B2  0E00               	movlw	0
  6960   0023B4  2206               	addwfc	(??i2___xxtofl+1)^0,f,c
  6961   0023B6  2207               	addwfc	(??i2___xxtofl+2)^0,f,c
  6962   0023B8  2208               	addwfc	(??i2___xxtofl+3)^0,f,c
  6963   0023BA  C005  F00B         	movff	??i2___xxtofl,i2___xxtofl@arg
  6964   0023BE  C006  F00C         	movff	??i2___xxtofl+1,i2___xxtofl@arg+1
  6965   0023C2  C007  F00D         	movff	??i2___xxtofl+2,i2___xxtofl@arg+2
  6966   0023C6  C008  F00E         	movff	??i2___xxtofl+3,i2___xxtofl@arg+3
  6967   0023CA  EFEF  F011         	goto	i2l3159
  6968   0023CE                     i2l1133:
  6969   0023CE  C001  F00B         	movff	i2___xxtofl@val,i2___xxtofl@arg
  6970   0023D2  C002  F00C         	movff	i2___xxtofl@val+1,i2___xxtofl@arg+1
  6971   0023D6  C003  F00D         	movff	i2___xxtofl@val+2,i2___xxtofl@arg+2
  6972   0023DA  C004  F00E         	movff	i2___xxtofl@val+3,i2___xxtofl@arg+3
  6973   0023DE                     i2l3159:
  6974   0023DE  5001               	movf	i2___xxtofl@val^0,w,c
  6975   0023E0  1002               	iorwf	(i2___xxtofl@val+1)^0,w,c
  6976   0023E2  1003               	iorwf	(i2___xxtofl@val+2)^0,w,c
  6977   0023E4  1004               	iorwf	(i2___xxtofl@val+3)^0,w,c
  6978   0023E6  A4D8               	btfss	status,2,c
  6979   0023E8  EFF8  F011         	goto	i2u273_41
  6980   0023EC  EFFA  F011         	goto	i2u273_40
  6981   0023F0                     i2u273_41:
  6982   0023F0  EF04  F012         	goto	i2l3165
  6983   0023F4                     i2u273_40:
  6984   0023F4  0E00               	movlw	0
  6985   0023F6  6E01               	movwf	?i2___xxtofl^0,c
  6986   0023F8  0E00               	movlw	0
  6987   0023FA  6E02               	movwf	(?i2___xxtofl+1)^0,c
  6988   0023FC  0E00               	movlw	0
  6989   0023FE  6E03               	movwf	(?i2___xxtofl+2)^0,c
  6990   002400  0E00               	movlw	0
  6991   002402  6E04               	movwf	(?i2___xxtofl+3)^0,c
  6992   002404  EF95  F012         	goto	i2l1136
  6993   002408                     i2l3165:
  6994   002408  0E96               	movlw	150
  6995   00240A  6E0A               	movwf	i2___xxtofl@exp^0,c
  6996   00240C  EF0E  F012         	goto	i2l3169
  6997   002410                     i2l3167:
  6998   002410  2A0A               	incf	i2___xxtofl@exp^0,f,c
  6999   002412  90D8               	bcf	status,0,c
  7000   002414  320E               	rrcf	(i2___xxtofl@arg+3)^0,f,c
  7001   002416  320D               	rrcf	(i2___xxtofl@arg+2)^0,f,c
  7002   002418  320C               	rrcf	(i2___xxtofl@arg+1)^0,f,c
  7003   00241A  320B               	rrcf	i2___xxtofl@arg^0,f,c
  7004   00241C                     i2l3169:
  7005   00241C  0E00               	movlw	0
  7006   00241E  140B               	andwf	i2___xxtofl@arg^0,w,c
  7007   002420  6E05               	movwf	??i2___xxtofl^0,c
  7008   002422  0E00               	movlw	0
  7009   002424  140C               	andwf	(i2___xxtofl@arg+1)^0,w,c
  7010   002426  6E06               	movwf	(??i2___xxtofl+1)^0,c
  7011   002428  0E00               	movlw	0
  7012   00242A  140D               	andwf	(i2___xxtofl@arg+2)^0,w,c
  7013   00242C  6E07               	movwf	(??i2___xxtofl+2)^0,c
  7014   00242E  0EFE               	movlw	254
  7015   002430  140E               	andwf	(i2___xxtofl@arg+3)^0,w,c
  7016   002432  6E08               	movwf	(??i2___xxtofl+3)^0,c
  7017   002434  5005               	movf	??i2___xxtofl^0,w,c
  7018   002436  1006               	iorwf	(??i2___xxtofl+1)^0,w,c
  7019   002438  1007               	iorwf	(??i2___xxtofl+2)^0,w,c
  7020   00243A  1008               	iorwf	(??i2___xxtofl+3)^0,w,c
  7021   00243C  A4D8               	btfss	status,2,c
  7022   00243E  EF23  F012         	goto	i2u274_41
  7023   002442  EF25  F012         	goto	i2u274_40
  7024   002446                     i2u274_41:
  7025   002446  EF08  F012         	goto	i2l3167
  7026   00244A                     i2u274_40:
  7027   00244A  EF33  F012         	goto	i2l1140
  7028   00244E                     i2l3171:
  7029   00244E  2A0A               	incf	i2___xxtofl@exp^0,f,c
  7030   002450  0E01               	movlw	1
  7031   002452  260B               	addwf	i2___xxtofl@arg^0,f,c
  7032   002454  0E00               	movlw	0
  7033   002456  220C               	addwfc	(i2___xxtofl@arg+1)^0,f,c
  7034   002458  220D               	addwfc	(i2___xxtofl@arg+2)^0,f,c
  7035   00245A  220E               	addwfc	(i2___xxtofl@arg+3)^0,f,c
  7036   00245C  90D8               	bcf	status,0,c
  7037   00245E  320E               	rrcf	(i2___xxtofl@arg+3)^0,f,c
  7038   002460  320D               	rrcf	(i2___xxtofl@arg+2)^0,f,c
  7039   002462  320C               	rrcf	(i2___xxtofl@arg+1)^0,f,c
  7040   002464  320B               	rrcf	i2___xxtofl@arg^0,f,c
  7041   002466                     i2l1140:
  7042   002466  0E00               	movlw	0
  7043   002468  140B               	andwf	i2___xxtofl@arg^0,w,c
  7044   00246A  6E05               	movwf	??i2___xxtofl^0,c
  7045   00246C  0E00               	movlw	0
  7046   00246E  140C               	andwf	(i2___xxtofl@arg+1)^0,w,c
  7047   002470  6E06               	movwf	(??i2___xxtofl+1)^0,c
  7048   002472  0E00               	movlw	0
  7049   002474  140D               	andwf	(i2___xxtofl@arg+2)^0,w,c
  7050   002476  6E07               	movwf	(??i2___xxtofl+2)^0,c
  7051   002478  0EFF               	movlw	255
  7052   00247A  140E               	andwf	(i2___xxtofl@arg+3)^0,w,c
  7053   00247C  6E08               	movwf	(??i2___xxtofl+3)^0,c
  7054   00247E  5005               	movf	??i2___xxtofl^0,w,c
  7055   002480  1006               	iorwf	(??i2___xxtofl+1)^0,w,c
  7056   002482  1007               	iorwf	(??i2___xxtofl+2)^0,w,c
  7057   002484  1008               	iorwf	(??i2___xxtofl+3)^0,w,c
  7058   002486  A4D8               	btfss	status,2,c
  7059   002488  EF48  F012         	goto	i2u275_41
  7060   00248C  EF4A  F012         	goto	i2u275_40
  7061   002490                     i2u275_41:
  7062   002490  EF27  F012         	goto	i2l3171
  7063   002494                     i2u275_40:
  7064   002494  EF52  F012         	goto	i2l3179
  7065   002498                     i2l3177:
  7066   002498  060A               	decf	i2___xxtofl@exp^0,f,c
  7067   00249A  90D8               	bcf	status,0,c
  7068   00249C  360B               	rlcf	i2___xxtofl@arg^0,f,c
  7069   00249E  360C               	rlcf	(i2___xxtofl@arg+1)^0,f,c
  7070   0024A0  360D               	rlcf	(i2___xxtofl@arg+2)^0,f,c
  7071   0024A2  360E               	rlcf	(i2___xxtofl@arg+3)^0,f,c
  7072   0024A4                     i2l3179:
  7073   0024A4  BE0D               	btfsc	(i2___xxtofl@arg+2)^0,7,c
  7074   0024A6  EF57  F012         	goto	i2u276_41
  7075   0024AA  EF59  F012         	goto	i2u276_40
  7076   0024AE                     i2u276_41:
  7077   0024AE  EF61  F012         	goto	i2l1147
  7078   0024B2                     i2u276_40:
  7079   0024B2  0E02               	movlw	2
  7080   0024B4  600A               	cpfslt	i2___xxtofl@exp^0,c
  7081   0024B6  EF5F  F012         	goto	i2u277_41
  7082   0024BA  EF61  F012         	goto	i2u277_40
  7083   0024BE                     i2u277_41:
  7084   0024BE  EF4C  F012         	goto	i2l3177
  7085   0024C2                     i2u277_40:
  7086   0024C2                     i2l1147:
  7087   0024C2  B00A               	btfsc	i2___xxtofl@exp^0,0,c
  7088   0024C4  EF66  F012         	goto	i2u278_41
  7089   0024C8  EF68  F012         	goto	i2u278_40
  7090   0024CC                     i2u278_41:
  7091   0024CC  EF69  F012         	goto	i2l3185
  7092   0024D0                     i2u278_40:
  7093   0024D0  9E0D               	bcf	(i2___xxtofl@arg+2)^0,7,c
  7094   0024D2                     i2l3185:
  7095   0024D2  90D8               	bcf	status,0,c
  7096   0024D4  320A               	rrcf	i2___xxtofl@exp^0,f,c
  7097   0024D6  C00A  F005         	movff	i2___xxtofl@exp,??i2___xxtofl
  7098   0024DA  6A06               	clrf	(??i2___xxtofl+1)^0,c
  7099   0024DC  6A07               	clrf	(??i2___xxtofl+2)^0,c
  7100   0024DE  6A08               	clrf	(??i2___xxtofl+3)^0,c
  7101   0024E0  C005  F008         	movff	??i2___xxtofl,??i2___xxtofl+3
  7102   0024E4  6A07               	clrf	(??i2___xxtofl+2)^0,c
  7103   0024E6  6A06               	clrf	(??i2___xxtofl+1)^0,c
  7104   0024E8  6A05               	clrf	??i2___xxtofl^0,c
  7105   0024EA  5005               	movf	??i2___xxtofl^0,w,c
  7106   0024EC  120B               	iorwf	i2___xxtofl@arg^0,f,c
  7107   0024EE  5006               	movf	(??i2___xxtofl+1)^0,w,c
  7108   0024F0  120C               	iorwf	(i2___xxtofl@arg+1)^0,f,c
  7109   0024F2  5007               	movf	(??i2___xxtofl+2)^0,w,c
  7110   0024F4  120D               	iorwf	(i2___xxtofl@arg+2)^0,f,c
  7111   0024F6  5008               	movf	(??i2___xxtofl+3)^0,w,c
  7112   0024F8  120E               	iorwf	(i2___xxtofl@arg+3)^0,f,c
  7113   0024FA  5009               	movf	i2___xxtofl@sign^0,w,c
  7114   0024FC  B4D8               	btfsc	status,2,c
  7115   0024FE  EF83  F012         	goto	i2u279_41
  7116   002502  EF85  F012         	goto	i2u279_40
  7117   002506                     i2u279_41:
  7118   002506  EF8D  F012         	goto	i2l3195
  7119   00250A                     i2u279_40:
  7120   00250A  BE04               	btfsc	(i2___xxtofl@val+3)^0,7,c
  7121   00250C  EF8C  F012         	goto	i2u280_40
  7122   002510  EF8A  F012         	goto	i2u280_41
  7123   002514                     i2u280_41:
  7124   002514  EF8D  F012         	goto	i2l3195
  7125   002518                     i2u280_40:
  7126   002518  8E0E               	bsf	(i2___xxtofl@arg+3)^0,7,c
  7127   00251A                     i2l3195:
  7128   00251A  C00B  F001         	movff	i2___xxtofl@arg,?i2___xxtofl
  7129   00251E  C00C  F002         	movff	i2___xxtofl@arg+1,?i2___xxtofl+1
  7130   002522  C00D  F003         	movff	i2___xxtofl@arg+2,?i2___xxtofl+2
  7131   002526  C00E  F004         	movff	i2___xxtofl@arg+3,?i2___xxtofl+3
  7132   00252A                     i2l1136:
  7133   00252A  0012               	return		;funcret
  7134   00252C                     __end_ofi2___xxtofl:
  7135                           	callstack 0
  7136                           
  7137 ;; *************** function i2___fltol *****************
  7138 ;; Defined at:
  7139 ;;		line 43 in file "C:\Program Files\Microchip\xc8\v2.46\pic\sources\c99\common\fltol.c"
  7140 ;; Parameters:    Size  Location     Type
  7141 ;;  f1              4   64[COMRAM] unsigned char 
  7142 ;; Auto vars:     Size  Location     Type
  7143 ;;  exp1            1   73[COMRAM] unsigned char 
  7144 ;;  sign1           1   72[COMRAM] unsigned char 
  7145 ;; Return value:  Size  Location     Type
  7146 ;;                  4   64[COMRAM] long 
  7147 ;; Registers used:
  7148 ;;		wreg, status,2, status,0
  7149 ;; Tracked objects:
  7150 ;;		On entry : 0/0
  7151 ;;		On exit  : 0/0
  7152 ;;		Unchanged: 0/0
  7153 ;; Data sizes:     COMRAM   BANK0   BANK1   BANK2   BANK3   BANK4   BANK5   BANK6   BANK7   BANK8   BANK9  BANK10  BANK1
      +1  BANK12  BANK13  BANK14  BANK15
  7154 ;;      Params:         4       0       0       0       0       0       0       0       0       0       0       0       
      +0       0       0       0       0
  7155 ;;      Locals:         2       0       0       0       0       0       0       0       0       0       0       0       
      +0       0       0       0       0
  7156 ;;      Temps:          4       0       0       0       0       0       0       0       0       0       0       0       
      +0       0       0       0       0
  7157 ;;      Totals:        10       0       0       0       0       0       0       0       0       0       0       0       
      +0       0       0       0       0
  7158 ;;Total ram usage:       10 bytes
  7159 ;; Hardware stack levels used: 1
  7160 ;; This function calls:
  7161 ;;		Nothing
  7162 ;; This function is called by:
  7163 ;;		_Timer0_UserCallback
  7164 ;; This function uses a non-reentrant model
  7165 ;;
  7166                           
  7167                           	psect	text47
  7168   002A58                     __ptext47:
  7169                           	callstack 0
  7170   002A58                     i2___fltol:
  7171                           	callstack 22
  7172   002A58  3443               	rlcf	(i2___fltol@f1+2)^0,w,c
  7173   002A5A  3444               	rlcf	(i2___fltol@f1+3)^0,w,c
  7174   002A5C  6E4A               	movwf	i2___fltol@exp1^0,c
  7175   002A5E  504A               	movf	i2___fltol@exp1^0,w,c
  7176   002A60  A4D8               	btfss	status,2,c
  7177   002A62  EF35  F015         	goto	i2u222_41
  7178   002A66  EF37  F015         	goto	i2u222_40
  7179   002A6A                     i2u222_41:
  7180   002A6A  EF41  F015         	goto	i2l2847
  7181   002A6E                     i2u222_40:
  7182   002A6E                     i2l2843:
  7183   002A6E  0E00               	movlw	0
  7184   002A70  6E41               	movwf	?i2___fltol^0,c
  7185   002A72  0E00               	movlw	0
  7186   002A74  6E42               	movwf	(?i2___fltol+1)^0,c
  7187   002A76  0E00               	movlw	0
  7188   002A78  6E43               	movwf	(?i2___fltol+2)^0,c
  7189   002A7A  0E00               	movlw	0
  7190   002A7C  6E44               	movwf	(?i2___fltol+3)^0,c
  7191   002A7E  EFAE  F015         	goto	i2l775
  7192   002A82                     i2l2847:
  7193   002A82  C041  F045         	movff	i2___fltol@f1,??i2___fltol
  7194   002A86  C042  F046         	movff	i2___fltol@f1+1,??i2___fltol+1
  7195   002A8A  C043  F047         	movff	i2___fltol@f1+2,??i2___fltol+2
  7196   002A8E  C044  F048         	movff	i2___fltol@f1+3,??i2___fltol+3
  7197   002A92  0E20               	movlw	32
  7198   002A94  EF51  F015         	goto	i2u223_40
  7199   002A98                     i2u223_45:
  7200   002A98  90D8               	bcf	status,0,c
  7201   002A9A  3248               	rrcf	(??i2___fltol+3)^0,f,c
  7202   002A9C  3247               	rrcf	(??i2___fltol+2)^0,f,c
  7203   002A9E  3246               	rrcf	(??i2___fltol+1)^0,f,c
  7204   002AA0  3245               	rrcf	??i2___fltol^0,f,c
  7205   002AA2                     i2u223_40:
  7206   002AA2  2EE8               	decfsz	wreg,f,c
  7207   002AA4  EF4C  F015         	goto	i2u223_45
  7208   002AA8  5045               	movf	??i2___fltol^0,w,c
  7209   002AAA  6E49               	movwf	i2___fltol@sign1^0,c
  7210   002AAC  8E43               	bsf	(i2___fltol@f1+2)^0,7,c
  7211   002AAE  0EFF               	movlw	255
  7212   002AB0  1641               	andwf	i2___fltol@f1^0,f,c
  7213   002AB2  0EFF               	movlw	255
  7214   002AB4  1642               	andwf	(i2___fltol@f1+1)^0,f,c
  7215   002AB6  0EFF               	movlw	255
  7216   002AB8  1643               	andwf	(i2___fltol@f1+2)^0,f,c
  7217   002ABA  0E00               	movlw	0
  7218   002ABC  1644               	andwf	(i2___fltol@f1+3)^0,f,c
  7219   002ABE  0E96               	movlw	150
  7220   002AC0  5E4A               	subwf	i2___fltol@exp1^0,f,c
  7221   002AC2  BE4A               	btfsc	i2___fltol@exp1^0,7,c
  7222   002AC4  EF68  F015         	goto	i2u224_40
  7223   002AC8  EF66  F015         	goto	i2u224_41
  7224   002ACC                     i2u224_41:
  7225   002ACC  EF7E  F015         	goto	i2l2867
  7226   002AD0                     i2u224_40:
  7227   002AD0  504A               	movf	i2___fltol@exp1^0,w,c
  7228   002AD2  0A80               	xorlw	128
  7229   002AD4  0F97               	addlw	151
  7230   002AD6  B0D8               	btfsc	status,0,c
  7231   002AD8  EF70  F015         	goto	i2u225_41
  7232   002ADC  EF72  F015         	goto	i2u225_40
  7233   002AE0                     i2u225_41:
  7234   002AE0  EF74  F015         	goto	i2l2863
  7235   002AE4                     i2u225_40:
  7236   002AE4  EF37  F015         	goto	i2l2843
  7237   002AE8                     i2l2863:
  7238   002AE8  90D8               	bcf	status,0,c
  7239   002AEA  3244               	rrcf	(i2___fltol@f1+3)^0,f,c
  7240   002AEC  3243               	rrcf	(i2___fltol@f1+2)^0,f,c
  7241   002AEE  3242               	rrcf	(i2___fltol@f1+1)^0,f,c
  7242   002AF0  3241               	rrcf	i2___fltol@f1^0,f,c
  7243   002AF2  3E4A               	incfsz	i2___fltol@exp1^0,f,c
  7244   002AF4  EF74  F015         	goto	i2l2863
  7245   002AF8  EF96  F015         	goto	i2l2877
  7246   002AFC                     i2l2867:
  7247   002AFC  0E1F               	movlw	31
  7248   002AFE  644A               	cpfsgt	i2___fltol@exp1^0,c
  7249   002B00  EF84  F015         	goto	i2u226_41
  7250   002B04  EF86  F015         	goto	i2u226_40
  7251   002B08                     i2u226_41:
  7252   002B08  EF8E  F015         	goto	i2l2875
  7253   002B0C                     i2u226_40:
  7254   002B0C  EF37  F015         	goto	i2l2843
  7255   002B10                     i2l2873:
  7256   002B10  90D8               	bcf	status,0,c
  7257   002B12  3641               	rlcf	i2___fltol@f1^0,f,c
  7258   002B14  3642               	rlcf	(i2___fltol@f1+1)^0,f,c
  7259   002B16  3643               	rlcf	(i2___fltol@f1+2)^0,f,c
  7260   002B18  3644               	rlcf	(i2___fltol@f1+3)^0,f,c
  7261   002B1A  064A               	decf	i2___fltol@exp1^0,f,c
  7262   002B1C                     i2l2875:
  7263   002B1C  504A               	movf	i2___fltol@exp1^0,w,c
  7264   002B1E  A4D8               	btfss	status,2,c
  7265   002B20  EF94  F015         	goto	i2u227_41
  7266   002B24  EF96  F015         	goto	i2u227_40
  7267   002B28                     i2u227_41:
  7268   002B28  EF88  F015         	goto	i2l2873
  7269   002B2C                     i2u227_40:
  7270   002B2C                     i2l2877:
  7271   002B2C  5049               	movf	i2___fltol@sign1^0,w,c
  7272   002B2E  B4D8               	btfsc	status,2,c
  7273   002B30  EF9C  F015         	goto	i2u228_41
  7274   002B34  EF9E  F015         	goto	i2u228_40
  7275   002B38                     i2u228_41:
  7276   002B38  EFA6  F015         	goto	i2l2881
  7277   002B3C                     i2u228_40:
  7278   002B3C  1E44               	comf	(i2___fltol@f1+3)^0,f,c
  7279   002B3E  1E43               	comf	(i2___fltol@f1+2)^0,f,c
  7280   002B40  1E42               	comf	(i2___fltol@f1+1)^0,f,c
  7281   002B42  6C41               	negf	i2___fltol@f1^0,c
  7282   002B44  0E00               	movlw	0
  7283   002B46  2242               	addwfc	(i2___fltol@f1+1)^0,f,c
  7284   002B48  2243               	addwfc	(i2___fltol@f1+2)^0,f,c
  7285   002B4A  2244               	addwfc	(i2___fltol@f1+3)^0,f,c
  7286   002B4C                     i2l2881:
  7287   002B4C  C041  F041         	movff	i2___fltol@f1,?i2___fltol
  7288   002B50  C042  F042         	movff	i2___fltol@f1+1,?i2___fltol+1
  7289   002B54  C043  F043         	movff	i2___fltol@f1+2,?i2___fltol+2
  7290   002B58  C044  F044         	movff	i2___fltol@f1+3,?i2___fltol+3
  7291   002B5C                     i2l775:
  7292   002B5C  0012               	return		;funcret
  7293   002B5E                     __end_ofi2___fltol:
  7294                           	callstack 0
  7295                           
  7296 ;; *************** function i2___flmul *****************
  7297 ;; Defined at:
  7298 ;;		line 8 in file "C:\Program Files\Microchip\xc8\v2.46\pic\sources\c99\common\sprcmul.c"
  7299 ;; Parameters:    Size  Location     Type
  7300 ;;  b               4   39[COMRAM] long 
  7301 ;;  a               4   43[COMRAM] long 
  7302 ;; Auto vars:     Size  Location     Type
  7303 ;;  prod            4   58[COMRAM] struct .
  7304 ;;  grs             4   52[COMRAM] unsigned long 
  7305 ;;  temp            2   62[COMRAM] struct .
  7306 ;;  bexp            1   57[COMRAM] unsigned char 
  7307 ;;  aexp            1   56[COMRAM] unsigned char 
  7308 ;;  sign            1   51[COMRAM] unsigned char 
  7309 ;; Return value:  Size  Location     Type
  7310 ;;                  4   39[COMRAM] unsigned char 
  7311 ;; Registers used:
  7312 ;;		wreg, status,2, status,0, prodl, prodh
  7313 ;; Tracked objects:
  7314 ;;		On entry : 0/0
  7315 ;;		On exit  : 0/0
  7316 ;;		Unchanged: 0/0
  7317 ;; Data sizes:     COMRAM   BANK0   BANK1   BANK2   BANK3   BANK4   BANK5   BANK6   BANK7   BANK8   BANK9  BANK10  BANK1
      +1  BANK12  BANK13  BANK14  BANK15
  7318 ;;      Params:         8       0       0       0       0       0       0       0       0       0       0       0       
      +0       0       0       0       0
  7319 ;;      Locals:        13       0       0       0       0       0       0       0       0       0       0       0       
      +0       0       0       0       0
  7320 ;;      Temps:          4       0       0       0       0       0       0       0       0       0       0       0       
      +0       0       0       0       0
  7321 ;;      Totals:        25       0       0       0       0       0       0       0       0       0       0       0       
      +0       0       0       0       0
  7322 ;;Total ram usage:       25 bytes
  7323 ;; Hardware stack levels used: 1
  7324 ;; This function calls:
  7325 ;;		Nothing
  7326 ;; This function is called by:
  7327 ;;		_Timer0_UserCallback
  7328 ;; This function uses a non-reentrant model
  7329 ;;
  7330                           
  7331                           	psect	text48
  7332   001486                     __ptext48:
  7333                           	callstack 0
  7334   001486                     i2___flmul:
  7335                           	callstack 22
  7336   001486  502B               	movf	(i2___flmul@b+3)^0,w,c
  7337   001488  0B80               	andlw	128
  7338   00148A  6E34               	movwf	i2___flmul@sign^0,c
  7339   00148C  502B               	movf	(i2___flmul@b+3)^0,w,c
  7340   00148E  242B               	addwf	(i2___flmul@b+3)^0,w,c
  7341   001490  6E3A               	movwf	i2___flmul@bexp^0,c
  7342   001492  AE2A               	btfss	(i2___flmul@b+2)^0,7,c
  7343   001494  EF4E  F00A         	goto	i2u252_41
  7344   001498  EF50  F00A         	goto	i2u252_40
  7345   00149C                     i2u252_41:
  7346   00149C  EF51  F00A         	goto	i2l3029
  7347   0014A0                     i2u252_40:
  7348   0014A0  803A               	bsf	i2___flmul@bexp^0,0,c
  7349   0014A2                     i2l3029:
  7350   0014A2  503A               	movf	i2___flmul@bexp^0,w,c
  7351   0014A4  B4D8               	btfsc	status,2,c
  7352   0014A6  EF57  F00A         	goto	i2u253_41
  7353   0014AA  EF59  F00A         	goto	i2u253_40
  7354   0014AE                     i2u253_41:
  7355   0014AE  EF6C  F00A         	goto	i2l3037
  7356   0014B2                     i2u253_40:
  7357   0014B2  283A               	incf	i2___flmul@bexp^0,w,c
  7358   0014B4  A4D8               	btfss	status,2,c
  7359   0014B6  EF5F  F00A         	goto	i2u254_41
  7360   0014BA  EF61  F00A         	goto	i2u254_40
  7361   0014BE                     i2u254_41:
  7362   0014BE  EF69  F00A         	goto	i2l3035
  7363   0014C2                     i2u254_40:
  7364   0014C2  0E00               	movlw	0
  7365   0014C4  6E28               	movwf	i2___flmul@b^0,c
  7366   0014C6  0E00               	movlw	0
  7367   0014C8  6E29               	movwf	(i2___flmul@b+1)^0,c
  7368   0014CA  0E00               	movlw	0
  7369   0014CC  6E2A               	movwf	(i2___flmul@b+2)^0,c
  7370   0014CE  0E00               	movlw	0
  7371   0014D0  6E2B               	movwf	(i2___flmul@b+3)^0,c
  7372   0014D2                     i2l3035:
  7373   0014D2  8E2A               	bsf	(i2___flmul@b+2)^0,7,c
  7374   0014D4  EF74  F00A         	goto	i2l3039
  7375   0014D8                     i2l3037:
  7376   0014D8  0E00               	movlw	0
  7377   0014DA  6E28               	movwf	i2___flmul@b^0,c
  7378   0014DC  0E00               	movlw	0
  7379   0014DE  6E29               	movwf	(i2___flmul@b+1)^0,c
  7380   0014E0  0E00               	movlw	0
  7381   0014E2  6E2A               	movwf	(i2___flmul@b+2)^0,c
  7382   0014E4  0E00               	movlw	0
  7383   0014E6  6E2B               	movwf	(i2___flmul@b+3)^0,c
  7384   0014E8                     i2l3039:
  7385   0014E8  502F               	movf	(i2___flmul@a+3)^0,w,c
  7386   0014EA  0B80               	andlw	128
  7387   0014EC  1A34               	xorwf	i2___flmul@sign^0,f,c
  7388   0014EE  502F               	movf	(i2___flmul@a+3)^0,w,c
  7389   0014F0  242F               	addwf	(i2___flmul@a+3)^0,w,c
  7390   0014F2  6E39               	movwf	i2___flmul@aexp^0,c
  7391   0014F4  AE2E               	btfss	(i2___flmul@a+2)^0,7,c
  7392   0014F6  EF7F  F00A         	goto	i2u255_41
  7393   0014FA  EF81  F00A         	goto	i2u255_40
  7394   0014FE                     i2u255_41:
  7395   0014FE  EF82  F00A         	goto	i2l3047
  7396   001502                     i2u255_40:
  7397   001502  8039               	bsf	i2___flmul@aexp^0,0,c
  7398   001504                     i2l3047:
  7399   001504  5039               	movf	i2___flmul@aexp^0,w,c
  7400   001506  B4D8               	btfsc	status,2,c
  7401   001508  EF88  F00A         	goto	i2u256_41
  7402   00150C  EF8A  F00A         	goto	i2u256_40
  7403   001510                     i2u256_41:
  7404   001510  EF9D  F00A         	goto	i2l3055
  7405   001514                     i2u256_40:
  7406   001514  2839               	incf	i2___flmul@aexp^0,w,c
  7407   001516  A4D8               	btfss	status,2,c
  7408   001518  EF90  F00A         	goto	i2u257_41
  7409   00151C  EF92  F00A         	goto	i2u257_40
  7410   001520                     i2u257_41:
  7411   001520  EF9A  F00A         	goto	i2l3053
  7412   001524                     i2u257_40:
  7413   001524  0E00               	movlw	0
  7414   001526  6E2C               	movwf	i2___flmul@a^0,c
  7415   001528  0E00               	movlw	0
  7416   00152A  6E2D               	movwf	(i2___flmul@a+1)^0,c
  7417   00152C  0E00               	movlw	0
  7418   00152E  6E2E               	movwf	(i2___flmul@a+2)^0,c
  7419   001530  0E00               	movlw	0
  7420   001532  6E2F               	movwf	(i2___flmul@a+3)^0,c
  7421   001534                     i2l3053:
  7422   001534  8E2E               	bsf	(i2___flmul@a+2)^0,7,c
  7423   001536  EFA5  F00A         	goto	i2l1092
  7424   00153A                     i2l3055:
  7425   00153A  0E00               	movlw	0
  7426   00153C  6E2C               	movwf	i2___flmul@a^0,c
  7427   00153E  0E00               	movlw	0
  7428   001540  6E2D               	movwf	(i2___flmul@a+1)^0,c
  7429   001542  0E00               	movlw	0
  7430   001544  6E2E               	movwf	(i2___flmul@a+2)^0,c
  7431   001546  0E00               	movlw	0
  7432   001548  6E2F               	movwf	(i2___flmul@a+3)^0,c
  7433   00154A                     i2l1092:
  7434   00154A  5039               	movf	i2___flmul@aexp^0,w,c
  7435   00154C  B4D8               	btfsc	status,2,c
  7436   00154E  EFAB  F00A         	goto	i2u258_41
  7437   001552  EFAD  F00A         	goto	i2u258_40
  7438   001556                     i2u258_41:
  7439   001556  EFB5  F00A         	goto	i2l3059
  7440   00155A                     i2u258_40:
  7441   00155A  503A               	movf	i2___flmul@bexp^0,w,c
  7442   00155C  A4D8               	btfss	status,2,c
  7443   00155E  EFB3  F00A         	goto	i2u259_41
  7444   001562  EFB5  F00A         	goto	i2u259_40
  7445   001566                     i2u259_41:
  7446   001566  EFBF  F00A         	goto	i2l3063
  7447   00156A                     i2u259_40:
  7448   00156A                     i2l3059:
  7449   00156A  0E00               	movlw	0
  7450   00156C  6E28               	movwf	?i2___flmul^0,c
  7451   00156E  0E00               	movlw	0
  7452   001570  6E29               	movwf	(?i2___flmul+1)^0,c
  7453   001572  0E00               	movlw	0
  7454   001574  6E2A               	movwf	(?i2___flmul+2)^0,c
  7455   001576  0E00               	movlw	0
  7456   001578  6E2B               	movwf	(?i2___flmul+3)^0,c
  7457   00157A  EF57  F00C         	goto	i2l1096
  7458   00157E                     i2l3063:
  7459   00157E  502E               	movf	(i2___flmul@a+2)^0,w,c
  7460   001580  0228               	mulwf	i2___flmul@b^0,c
  7461   001582  CFF3 F03F          	movff	prodl,i2___flmul@temp
  7462   001586  CFF4 F040          	movff	prodh,i2___flmul@temp+1
  7463   00158A  503F               	movf	i2___flmul@temp^0,w,c
  7464   00158C  6E35               	movwf	i2___flmul@grs^0,c
  7465   00158E  6A36               	clrf	(i2___flmul@grs+1)^0,c
  7466   001590  6A37               	clrf	(i2___flmul@grs+2)^0,c
  7467   001592  6A38               	clrf	(i2___flmul@grs+3)^0,c
  7468   001594  5040               	movf	(i2___flmul@temp+1)^0,w,c
  7469   001596  6E3B               	movwf	i2___flmul@prod^0,c
  7470   001598  6A3C               	clrf	(i2___flmul@prod+1)^0,c
  7471   00159A  6A3D               	clrf	(i2___flmul@prod+2)^0,c
  7472   00159C  6A3E               	clrf	(i2___flmul@prod+3)^0,c
  7473   00159E  502D               	movf	(i2___flmul@a+1)^0,w,c
  7474   0015A0  0229               	mulwf	(i2___flmul@b+1)^0,c
  7475   0015A2  CFF3 F03F          	movff	prodl,i2___flmul@temp
  7476   0015A6  CFF4 F040          	movff	prodh,i2___flmul@temp+1
  7477   0015AA  503F               	movf	i2___flmul@temp^0,w,c
  7478   0015AC  2635               	addwf	i2___flmul@grs^0,f,c
  7479   0015AE  0E00               	movlw	0
  7480   0015B0  2236               	addwfc	(i2___flmul@grs+1)^0,f,c
  7481   0015B2  2237               	addwfc	(i2___flmul@grs+2)^0,f,c
  7482   0015B4  2238               	addwfc	(i2___flmul@grs+3)^0,f,c
  7483   0015B6  5040               	movf	(i2___flmul@temp+1)^0,w,c
  7484   0015B8  263B               	addwf	i2___flmul@prod^0,f,c
  7485   0015BA  0E00               	movlw	0
  7486   0015BC  223C               	addwfc	(i2___flmul@prod+1)^0,f,c
  7487   0015BE  223D               	addwfc	(i2___flmul@prod+2)^0,f,c
  7488   0015C0  223E               	addwfc	(i2___flmul@prod+3)^0,f,c
  7489   0015C2  502C               	movf	i2___flmul@a^0,w,c
  7490   0015C4  022A               	mulwf	(i2___flmul@b+2)^0,c
  7491   0015C6  CFF3 F03F          	movff	prodl,i2___flmul@temp
  7492   0015CA  CFF4 F040          	movff	prodh,i2___flmul@temp+1
  7493   0015CE  503F               	movf	i2___flmul@temp^0,w,c
  7494   0015D0  2635               	addwf	i2___flmul@grs^0,f,c
  7495   0015D2  0E00               	movlw	0
  7496   0015D4  2236               	addwfc	(i2___flmul@grs+1)^0,f,c
  7497   0015D6  2237               	addwfc	(i2___flmul@grs+2)^0,f,c
  7498   0015D8  2238               	addwfc	(i2___flmul@grs+3)^0,f,c
  7499   0015DA  5040               	movf	(i2___flmul@temp+1)^0,w,c
  7500   0015DC  263B               	addwf	i2___flmul@prod^0,f,c
  7501   0015DE  0E00               	movlw	0
  7502   0015E0  223C               	addwfc	(i2___flmul@prod+1)^0,f,c
  7503   0015E2  223D               	addwfc	(i2___flmul@prod+2)^0,f,c
  7504   0015E4  223E               	addwfc	(i2___flmul@prod+3)^0,f,c
  7505   0015E6  C037  F038         	movff	i2___flmul@grs+2,i2___flmul@grs+3
  7506   0015EA  C036  F037         	movff	i2___flmul@grs+1,i2___flmul@grs+2
  7507   0015EE  C035  F036         	movff	i2___flmul@grs,i2___flmul@grs+1
  7508   0015F2  6A35               	clrf	i2___flmul@grs^0,c
  7509   0015F4  502C               	movf	i2___flmul@a^0,w,c
  7510   0015F6  0229               	mulwf	(i2___flmul@b+1)^0,c
  7511   0015F8  CFF3 F03F          	movff	prodl,i2___flmul@temp
  7512   0015FC  CFF4 F040          	movff	prodh,i2___flmul@temp+1
  7513   001600  503F               	movf	i2___flmul@temp^0,w,c
  7514   001602  2635               	addwf	i2___flmul@grs^0,f,c
  7515   001604  5040               	movf	(i2___flmul@temp+1)^0,w,c
  7516   001606  2236               	addwfc	(i2___flmul@grs+1)^0,f,c
  7517   001608  0E00               	movlw	0
  7518   00160A  2237               	addwfc	(i2___flmul@grs+2)^0,f,c
  7519   00160C  0E00               	movlw	0
  7520   00160E  2238               	addwfc	(i2___flmul@grs+3)^0,f,c
  7521   001610  502D               	movf	(i2___flmul@a+1)^0,w,c
  7522   001612  0228               	mulwf	i2___flmul@b^0,c
  7523   001614  CFF3 F03F          	movff	prodl,i2___flmul@temp
  7524   001618  CFF4 F040          	movff	prodh,i2___flmul@temp+1
  7525   00161C  503F               	movf	i2___flmul@temp^0,w,c
  7526   00161E  2635               	addwf	i2___flmul@grs^0,f,c
  7527   001620  5040               	movf	(i2___flmul@temp+1)^0,w,c
  7528   001622  2236               	addwfc	(i2___flmul@grs+1)^0,f,c
  7529   001624  0E00               	movlw	0
  7530   001626  2237               	addwfc	(i2___flmul@grs+2)^0,f,c
  7531   001628  0E00               	movlw	0
  7532   00162A  2238               	addwfc	(i2___flmul@grs+3)^0,f,c
  7533   00162C  C037  F038         	movff	i2___flmul@grs+2,i2___flmul@grs+3
  7534   001630  C036  F037         	movff	i2___flmul@grs+1,i2___flmul@grs+2
  7535   001634  C035  F036         	movff	i2___flmul@grs,i2___flmul@grs+1
  7536   001638  6A35               	clrf	i2___flmul@grs^0,c
  7537   00163A  502C               	movf	i2___flmul@a^0,w,c
  7538   00163C  0228               	mulwf	i2___flmul@b^0,c
  7539   00163E  CFF3 F03F          	movff	prodl,i2___flmul@temp
  7540   001642  CFF4 F040          	movff	prodh,i2___flmul@temp+1
  7541   001646  503F               	movf	i2___flmul@temp^0,w,c
  7542   001648  2635               	addwf	i2___flmul@grs^0,f,c
  7543   00164A  5040               	movf	(i2___flmul@temp+1)^0,w,c
  7544   00164C  2236               	addwfc	(i2___flmul@grs+1)^0,f,c
  7545   00164E  0E00               	movlw	0
  7546   001650  2237               	addwfc	(i2___flmul@grs+2)^0,f,c
  7547   001652  0E00               	movlw	0
  7548   001654  2238               	addwfc	(i2___flmul@grs+3)^0,f,c
  7549   001656  502E               	movf	(i2___flmul@a+2)^0,w,c
  7550   001658  0229               	mulwf	(i2___flmul@b+1)^0,c
  7551   00165A  CFF3 F03F          	movff	prodl,i2___flmul@temp
  7552   00165E  CFF4 F040          	movff	prodh,i2___flmul@temp+1
  7553   001662  503F               	movf	i2___flmul@temp^0,w,c
  7554   001664  263B               	addwf	i2___flmul@prod^0,f,c
  7555   001666  5040               	movf	(i2___flmul@temp+1)^0,w,c
  7556   001668  223C               	addwfc	(i2___flmul@prod+1)^0,f,c
  7557   00166A  0E00               	movlw	0
  7558   00166C  223D               	addwfc	(i2___flmul@prod+2)^0,f,c
  7559   00166E  0E00               	movlw	0
  7560   001670  223E               	addwfc	(i2___flmul@prod+3)^0,f,c
  7561   001672  502D               	movf	(i2___flmul@a+1)^0,w,c
  7562   001674  022A               	mulwf	(i2___flmul@b+2)^0,c
  7563   001676  CFF3 F03F          	movff	prodl,i2___flmul@temp
  7564   00167A  CFF4 F040          	movff	prodh,i2___flmul@temp+1
  7565   00167E  503F               	movf	i2___flmul@temp^0,w,c
  7566   001680  263B               	addwf	i2___flmul@prod^0,f,c
  7567   001682  5040               	movf	(i2___flmul@temp+1)^0,w,c
  7568   001684  223C               	addwfc	(i2___flmul@prod+1)^0,f,c
  7569   001686  0E00               	movlw	0
  7570   001688  223D               	addwfc	(i2___flmul@prod+2)^0,f,c
  7571   00168A  0E00               	movlw	0
  7572   00168C  223E               	addwfc	(i2___flmul@prod+3)^0,f,c
  7573   00168E  502E               	movf	(i2___flmul@a+2)^0,w,c
  7574   001690  022A               	mulwf	(i2___flmul@b+2)^0,c
  7575   001692  CFF3 F03F          	movff	prodl,i2___flmul@temp
  7576   001696  CFF4 F040          	movff	prodh,i2___flmul@temp+1
  7577   00169A  503F               	movf	i2___flmul@temp^0,w,c
  7578   00169C  6E30               	movwf	??i2___flmul^0,c
  7579   00169E  5040               	movf	(i2___flmul@temp+1)^0,w,c
  7580   0016A0  6E31               	movwf	(??i2___flmul+1)^0,c
  7581   0016A2  6A32               	clrf	(??i2___flmul+2)^0,c
  7582   0016A4  6A33               	clrf	(??i2___flmul+3)^0,c
  7583   0016A6  C032  F033         	movff	??i2___flmul+2,??i2___flmul+3
  7584   0016AA  C031  F032         	movff	??i2___flmul+1,??i2___flmul+2
  7585   0016AE  C030  F031         	movff	??i2___flmul,??i2___flmul+1
  7586   0016B2  6A30               	clrf	??i2___flmul^0,c
  7587   0016B4  5030               	movf	??i2___flmul^0,w,c
  7588   0016B6  263B               	addwf	i2___flmul@prod^0,f,c
  7589   0016B8  5031               	movf	(??i2___flmul+1)^0,w,c
  7590   0016BA  223C               	addwfc	(i2___flmul@prod+1)^0,f,c
  7591   0016BC  5032               	movf	(??i2___flmul+2)^0,w,c
  7592   0016BE  223D               	addwfc	(i2___flmul@prod+2)^0,f,c
  7593   0016C0  5033               	movf	(??i2___flmul+3)^0,w,c
  7594   0016C2  223E               	addwfc	(i2___flmul@prod+3)^0,f,c
  7595   0016C4  C035  F030         	movff	i2___flmul@grs,??i2___flmul
  7596   0016C8  C036  F031         	movff	i2___flmul@grs+1,??i2___flmul+1
  7597   0016CC  C037  F032         	movff	i2___flmul@grs+2,??i2___flmul+2
  7598   0016D0  C038  F033         	movff	i2___flmul@grs+3,??i2___flmul+3
  7599   0016D4  0E19               	movlw	25
  7600   0016D6  EF72  F00B         	goto	i2u260_40
  7601   0016DA                     i2u260_45:
  7602   0016DA  90D8               	bcf	status,0,c
  7603   0016DC  3233               	rrcf	(??i2___flmul+3)^0,f,c
  7604   0016DE  3232               	rrcf	(??i2___flmul+2)^0,f,c
  7605   0016E0  3231               	rrcf	(??i2___flmul+1)^0,f,c
  7606   0016E2  3230               	rrcf	??i2___flmul^0,f,c
  7607   0016E4                     i2u260_40:
  7608   0016E4  2EE8               	decfsz	wreg,f,c
  7609   0016E6  EF6D  F00B         	goto	i2u260_45
  7610   0016EA  5030               	movf	??i2___flmul^0,w,c
  7611   0016EC  263B               	addwf	i2___flmul@prod^0,f,c
  7612   0016EE  5031               	movf	(??i2___flmul+1)^0,w,c
  7613   0016F0  223C               	addwfc	(i2___flmul@prod+1)^0,f,c
  7614   0016F2  5032               	movf	(??i2___flmul+2)^0,w,c
  7615   0016F4  223D               	addwfc	(i2___flmul@prod+2)^0,f,c
  7616   0016F6  5033               	movf	(??i2___flmul+3)^0,w,c
  7617   0016F8  223E               	addwfc	(i2___flmul@prod+3)^0,f,c
  7618   0016FA  C037  F038         	movff	i2___flmul@grs+2,i2___flmul@grs+3
  7619   0016FE  C036  F037         	movff	i2___flmul@grs+1,i2___flmul@grs+2
  7620   001702  C035  F036         	movff	i2___flmul@grs,i2___flmul@grs+1
  7621   001706  6A35               	clrf	i2___flmul@grs^0,c
  7622   001708  5039               	movf	i2___flmul@aexp^0,w,c
  7623   00170A  C03A  F030         	movff	i2___flmul@bexp,??i2___flmul
  7624   00170E  6A31               	clrf	(??i2___flmul+1)^0,c
  7625   001710  2630               	addwf	??i2___flmul^0,f,c
  7626   001712  0E00               	movlw	0
  7627   001714  2231               	addwfc	(??i2___flmul+1)^0,f,c
  7628   001716  0E82               	movlw	130
  7629   001718  2430               	addwf	??i2___flmul^0,w,c
  7630   00171A  6E3F               	movwf	i2___flmul@temp^0,c
  7631   00171C  0EFF               	movlw	255
  7632   00171E  2031               	addwfc	(??i2___flmul+1)^0,w,c
  7633   001720  6E40               	movwf	(i2___flmul@temp+1)^0,c
  7634   001722  EFA8  F00B         	goto	i2l3111
  7635   001726                     i2l3105:
  7636   001726  90D8               	bcf	status,0,c
  7637   001728  363B               	rlcf	i2___flmul@prod^0,f,c
  7638   00172A  363C               	rlcf	(i2___flmul@prod+1)^0,f,c
  7639   00172C  363D               	rlcf	(i2___flmul@prod+2)^0,f,c
  7640   00172E  363E               	rlcf	(i2___flmul@prod+3)^0,f,c
  7641   001730  AE38               	btfss	(i2___flmul@grs+3)^0,7,c
  7642   001732  EF9D  F00B         	goto	i2u261_41
  7643   001736  EF9F  F00B         	goto	i2u261_40
  7644   00173A                     i2u261_41:
  7645   00173A  EFA0  F00B         	goto	i2l1099
  7646   00173E                     i2u261_40:
  7647   00173E  803B               	bsf	i2___flmul@prod^0,0,c
  7648   001740                     i2l1099:
  7649   001740  90D8               	bcf	status,0,c
  7650   001742  3635               	rlcf	i2___flmul@grs^0,f,c
  7651   001744  3636               	rlcf	(i2___flmul@grs+1)^0,f,c
  7652   001746  3637               	rlcf	(i2___flmul@grs+2)^0,f,c
  7653   001748  3638               	rlcf	(i2___flmul@grs+3)^0,f,c
  7654   00174A  063F               	decf	i2___flmul@temp^0,f,c
  7655   00174C  A0D8               	btfss	status,0,c
  7656   00174E  0640               	decf	(i2___flmul@temp+1)^0,f,c
  7657   001750                     i2l3111:
  7658   001750  AE3D               	btfss	(i2___flmul@prod+2)^0,7,c
  7659   001752  EFAD  F00B         	goto	i2u262_41
  7660   001756  EFAF  F00B         	goto	i2u262_40
  7661   00175A                     i2u262_41:
  7662   00175A  EF93  F00B         	goto	i2l3105
  7663   00175E                     i2u262_40:
  7664   00175E  0E00               	movlw	0
  7665   001760  6E39               	movwf	i2___flmul@aexp^0,c
  7666   001762  AE38               	btfss	(i2___flmul@grs+3)^0,7,c
  7667   001764  EFB6  F00B         	goto	i2u263_41
  7668   001768  EFB8  F00B         	goto	i2u263_40
  7669   00176C                     i2u263_41:
  7670   00176C  EFDC  F00B         	goto	i2l1101
  7671   001770                     i2u263_40:
  7672   001770  0EFF               	movlw	255
  7673   001772  1435               	andwf	i2___flmul@grs^0,w,c
  7674   001774  6E30               	movwf	??i2___flmul^0,c
  7675   001776  0EFF               	movlw	255
  7676   001778  1436               	andwf	(i2___flmul@grs+1)^0,w,c
  7677   00177A  6E31               	movwf	(??i2___flmul+1)^0,c
  7678   00177C  0EFF               	movlw	255
  7679   00177E  1437               	andwf	(i2___flmul@grs+2)^0,w,c
  7680   001780  6E32               	movwf	(??i2___flmul+2)^0,c
  7681   001782  0E7F               	movlw	127
  7682   001784  1438               	andwf	(i2___flmul@grs+3)^0,w,c
  7683   001786  6E33               	movwf	(??i2___flmul+3)^0,c
  7684   001788  5030               	movf	??i2___flmul^0,w,c
  7685   00178A  1031               	iorwf	(??i2___flmul+1)^0,w,c
  7686   00178C  1032               	iorwf	(??i2___flmul+2)^0,w,c
  7687   00178E  1033               	iorwf	(??i2___flmul+3)^0,w,c
  7688   001790  B4D8               	btfsc	status,2,c
  7689   001792  EFCD  F00B         	goto	i2u264_41
  7690   001796  EFCF  F00B         	goto	i2u264_40
  7691   00179A                     i2u264_41:
  7692   00179A  EFD3  F00B         	goto	i2l1102
  7693   00179E                     i2u264_40:
  7694   00179E                     i2l3119:
  7695   00179E  0E01               	movlw	1
  7696   0017A0  6E39               	movwf	i2___flmul@aexp^0,c
  7697   0017A2  EFDC  F00B         	goto	i2l1101
  7698   0017A6                     i2l1102:
  7699   0017A6  A03B               	btfss	i2___flmul@prod^0,0,c
  7700   0017A8  EFD8  F00B         	goto	i2u265_41
  7701   0017AC  EFDA  F00B         	goto	i2u265_40
  7702   0017B0                     i2u265_41:
  7703   0017B0  EFDC  F00B         	goto	i2l1101
  7704   0017B4                     i2u265_40:
  7705   0017B4  EFCF  F00B         	goto	i2l3119
  7706   0017B8                     i2l1101:
  7707   0017B8  5039               	movf	i2___flmul@aexp^0,w,c
  7708   0017BA  B4D8               	btfsc	status,2,c
  7709   0017BC  EFE2  F00B         	goto	i2u266_41
  7710   0017C0  EFE4  F00B         	goto	i2u266_40
  7711   0017C4                     i2u266_41:
  7712   0017C4  EF08  F00C         	goto	i2l3131
  7713   0017C8                     i2u266_40:
  7714   0017C8  0E01               	movlw	1
  7715   0017CA  263B               	addwf	i2___flmul@prod^0,f,c
  7716   0017CC  0E00               	movlw	0
  7717   0017CE  223C               	addwfc	(i2___flmul@prod+1)^0,f,c
  7718   0017D0  223D               	addwfc	(i2___flmul@prod+2)^0,f,c
  7719   0017D2  223E               	addwfc	(i2___flmul@prod+3)^0,f,c
  7720   0017D4  A03E               	btfss	(i2___flmul@prod+3)^0,0,c
  7721   0017D6  EFEF  F00B         	goto	i2u267_41
  7722   0017DA  EFF1  F00B         	goto	i2u267_40
  7723   0017DE                     i2u267_41:
  7724   0017DE  EF08  F00C         	goto	i2l3131
  7725   0017E2                     i2u267_40:
  7726   0017E2  C03B  F030         	movff	i2___flmul@prod,??i2___flmul
  7727   0017E6  C03C  F031         	movff	i2___flmul@prod+1,??i2___flmul+1
  7728   0017EA  C03D  F032         	movff	i2___flmul@prod+2,??i2___flmul+2
  7729   0017EE  C03E  F033         	movff	i2___flmul@prod+3,??i2___flmul+3
  7730   0017F2  3433               	rlcf	(??i2___flmul+3)^0,w,c
  7731   0017F4  3233               	rrcf	(??i2___flmul+3)^0,f,c
  7732   0017F6  3232               	rrcf	(??i2___flmul+2)^0,f,c
  7733   0017F8  3231               	rrcf	(??i2___flmul+1)^0,f,c
  7734   0017FA  3230               	rrcf	??i2___flmul^0,f,c
  7735   0017FC  C030  F03B         	movff	??i2___flmul,i2___flmul@prod
  7736   001800  C031  F03C         	movff	??i2___flmul+1,i2___flmul@prod+1
  7737   001804  C032  F03D         	movff	??i2___flmul+2,i2___flmul@prod+2
  7738   001808  C033  F03E         	movff	??i2___flmul+3,i2___flmul@prod+3
  7739   00180C  4A3F               	infsnz	i2___flmul@temp^0,f,c
  7740   00180E  2A40               	incf	(i2___flmul@temp+1)^0,f,c
  7741   001810                     i2l3131:
  7742   001810  BE40               	btfsc	(i2___flmul@temp+1)^0,7,c
  7743   001812  EF13  F00C         	goto	i2u268_41
  7744   001816  5040               	movf	(i2___flmul@temp+1)^0,w,c
  7745   001818  E108               	bnz	i2u268_40
  7746   00181A  283F               	incf	i2___flmul@temp^0,w,c
  7747   00181C  A0D8               	btfss	status,0,c
  7748   00181E  EF13  F00C         	goto	i2u268_41
  7749   001822  EF15  F00C         	goto	i2u268_40
  7750   001826                     i2u268_41:
  7751   001826  EF1F  F00C         	goto	i2l3135
  7752   00182A                     i2u268_40:
  7753   00182A  0E00               	movlw	0
  7754   00182C  6E3B               	movwf	i2___flmul@prod^0,c
  7755   00182E  0E00               	movlw	0
  7756   001830  6E3C               	movwf	(i2___flmul@prod+1)^0,c
  7757   001832  0E80               	movlw	128
  7758   001834  6E3D               	movwf	(i2___flmul@prod+2)^0,c
  7759   001836  0E7F               	movlw	127
  7760   001838  6E3E               	movwf	(i2___flmul@prod+3)^0,c
  7761   00183A  EF4D  F00C         	goto	i2l3147
  7762   00183E                     i2l3135:
  7763   00183E  BE40               	btfsc	(i2___flmul@temp+1)^0,7,c
  7764   001840  EF2C  F00C         	goto	i2u269_40
  7765   001844  5040               	movf	(i2___flmul@temp+1)^0,w,c
  7766   001846  E106               	bnz	i2u269_41
  7767   001848  043F               	decf	i2___flmul@temp^0,w,c
  7768   00184A  B0D8               	btfsc	status,0,c
  7769   00184C  EF2A  F00C         	goto	i2u269_41
  7770   001850  EF2C  F00C         	goto	i2u269_40
  7771   001854                     i2u269_41:
  7772   001854  EF38  F00C         	goto	i2l1109
  7773   001858                     i2u269_40:
  7774   001858  0E00               	movlw	0
  7775   00185A  6E3B               	movwf	i2___flmul@prod^0,c
  7776   00185C  0E00               	movlw	0
  7777   00185E  6E3C               	movwf	(i2___flmul@prod+1)^0,c
  7778   001860  0E00               	movlw	0
  7779   001862  6E3D               	movwf	(i2___flmul@prod+2)^0,c
  7780   001864  0E00               	movlw	0
  7781   001866  6E3E               	movwf	(i2___flmul@prod+3)^0,c
  7782   001868  0E00               	movlw	0
  7783   00186A  6E34               	movwf	i2___flmul@sign^0,c
  7784   00186C  EF4D  F00C         	goto	i2l3147
  7785   001870                     i2l1109:
  7786   001870  C03F  F03A         	movff	i2___flmul@temp,i2___flmul@bexp
  7787   001874  0EFF               	movlw	255
  7788   001876  163B               	andwf	i2___flmul@prod^0,f,c
  7789   001878  0EFF               	movlw	255
  7790   00187A  163C               	andwf	(i2___flmul@prod+1)^0,f,c
  7791   00187C  0E7F               	movlw	127
  7792   00187E  163D               	andwf	(i2___flmul@prod+2)^0,f,c
  7793   001880  0E00               	movlw	0
  7794   001882  163E               	andwf	(i2___flmul@prod+3)^0,f,c
  7795   001884  A03A               	btfss	i2___flmul@bexp^0,0,c
  7796   001886  EF47  F00C         	goto	i2u270_41
  7797   00188A  EF49  F00C         	goto	i2u270_40
  7798   00188E                     i2u270_41:
  7799   00188E  EF4A  F00C         	goto	i2l3145
  7800   001892                     i2u270_40:
  7801   001892  8E3D               	bsf	(i2___flmul@prod+2)^0,7,c
  7802   001894                     i2l3145:
  7803   001894  90D8               	bcf	status,0,c
  7804   001896  303A               	rrcf	i2___flmul@bexp^0,w,c
  7805   001898  6E3E               	movwf	(i2___flmul@prod+3)^0,c
  7806   00189A                     i2l3147:
  7807   00189A  5034               	movf	i2___flmul@sign^0,w,c
  7808   00189C  123E               	iorwf	(i2___flmul@prod+3)^0,f,c
  7809   00189E  C03B  F028         	movff	i2___flmul@prod,?i2___flmul
  7810   0018A2  C03C  F029         	movff	i2___flmul@prod+1,?i2___flmul+1
  7811   0018A6  C03D  F02A         	movff	i2___flmul@prod+2,?i2___flmul+2
  7812   0018AA  C03E  F02B         	movff	i2___flmul@prod+3,?i2___flmul+3
  7813   0018AE                     i2l1096:
  7814   0018AE  0012               	return		;funcret
  7815   0018B0                     __end_ofi2___flmul:
  7816                           	callstack 0
  7817                           
  7818 ;; *************** function i2___fldiv *****************
  7819 ;; Defined at:
  7820 ;;		line 11 in file "C:\Program Files\Microchip\xc8\v2.46\pic\sources\c99\common\sprcdiv.c"
  7821 ;; Parameters:    Size  Location     Type
  7822 ;;  b               4   14[COMRAM] unsigned char 
  7823 ;;  a               4   18[COMRAM] unsigned char 
  7824 ;; Auto vars:     Size  Location     Type
  7825 ;;  grs             4   33[COMRAM] unsigned long 
  7826 ;;  rem             4   26[COMRAM] unsigned long 
  7827 ;;  new_exp         2   31[COMRAM] short 
  7828 ;;  aexp            1   38[COMRAM] unsigned char 
  7829 ;;  bexp            1   37[COMRAM] unsigned char 
  7830 ;;  sign            1   30[COMRAM] unsigned char 
  7831 ;; Return value:  Size  Location     Type
  7832 ;;                  4   14[COMRAM] unsigned char 
  7833 ;; Registers used:
  7834 ;;		wreg, status,2, status,0
  7835 ;; Tracked objects:
  7836 ;;		On entry : 0/0
  7837 ;;		On exit  : 0/0
  7838 ;;		Unchanged: 0/0
  7839 ;; Data sizes:     COMRAM   BANK0   BANK1   BANK2   BANK3   BANK4   BANK5   BANK6   BANK7   BANK8   BANK9  BANK10  BANK1
      +1  BANK12  BANK13  BANK14  BANK15
  7840 ;;      Params:         8       0       0       0       0       0       0       0       0       0       0       0       
      +0       0       0       0       0
  7841 ;;      Locals:        13       0       0       0       0       0       0       0       0       0       0       0       
      +0       0       0       0       0
  7842 ;;      Temps:          4       0       0       0       0       0       0       0       0       0       0       0       
      +0       0       0       0       0
  7843 ;;      Totals:        25       0       0       0       0       0       0       0       0       0       0       0       
      +0       0       0       0       0
  7844 ;;Total ram usage:       25 bytes
  7845 ;; Hardware stack levels used: 1
  7846 ;; This function calls:
  7847 ;;		Nothing
  7848 ;; This function is called by:
  7849 ;;		_Timer0_UserCallback
  7850 ;; This function uses a non-reentrant model
  7851 ;;
  7852                           
  7853                           	psect	text49
  7854   001C4C                     __ptext49:
  7855                           	callstack 0
  7856   001C4C                     i2___fldiv:
  7857                           	callstack 22
  7858   001C4C  5012               	movf	(i2___fldiv@b+3)^0,w,c
  7859   001C4E  0B80               	andlw	128
  7860   001C50  6E1F               	movwf	i2___fldiv@sign^0,c
  7861   001C52  5012               	movf	(i2___fldiv@b+3)^0,w,c
  7862   001C54  2412               	addwf	(i2___fldiv@b+3)^0,w,c
  7863   001C56  6E26               	movwf	i2___fldiv@bexp^0,c
  7864   001C58  AE11               	btfss	(i2___fldiv@b+2)^0,7,c
  7865   001C5A  EF31  F00E         	goto	i2u229_41
  7866   001C5E  EF33  F00E         	goto	i2u229_40
  7867   001C62                     i2u229_41:
  7868   001C62  EF34  F00E         	goto	i2l2891
  7869   001C66                     i2u229_40:
  7870   001C66  8026               	bsf	i2___fldiv@bexp^0,0,c
  7871   001C68                     i2l2891:
  7872   001C68  5026               	movf	i2___fldiv@bexp^0,w,c
  7873   001C6A  B4D8               	btfsc	status,2,c
  7874   001C6C  EF3A  F00E         	goto	i2u230_41
  7875   001C70  EF3C  F00E         	goto	i2u230_40
  7876   001C74                     i2u230_41:
  7877   001C74  EF51  F00E         	goto	i2l2901
  7878   001C78                     i2u230_40:
  7879   001C78  2826               	incf	i2___fldiv@bexp^0,w,c
  7880   001C7A  A4D8               	btfss	status,2,c
  7881   001C7C  EF42  F00E         	goto	i2u231_41
  7882   001C80  EF44  F00E         	goto	i2u231_40
  7883   001C84                     i2u231_41:
  7884   001C84  EF4C  F00E         	goto	i2l2897
  7885   001C88                     i2u231_40:
  7886   001C88  0E00               	movlw	0
  7887   001C8A  6E0F               	movwf	i2___fldiv@b^0,c
  7888   001C8C  0E00               	movlw	0
  7889   001C8E  6E10               	movwf	(i2___fldiv@b+1)^0,c
  7890   001C90  0E00               	movlw	0
  7891   001C92  6E11               	movwf	(i2___fldiv@b+2)^0,c
  7892   001C94  0E00               	movlw	0
  7893   001C96  6E12               	movwf	(i2___fldiv@b+3)^0,c
  7894   001C98                     i2l2897:
  7895   001C98  8E11               	bsf	(i2___fldiv@b+2)^0,7,c
  7896   001C9A  0E00               	movlw	0
  7897   001C9C  6E12               	movwf	(i2___fldiv@b+3)^0,c
  7898   001C9E  EF59  F00E         	goto	i2l2903
  7899   001CA2                     i2l2901:
  7900   001CA2  0E00               	movlw	0
  7901   001CA4  6E0F               	movwf	i2___fldiv@b^0,c
  7902   001CA6  0E00               	movlw	0
  7903   001CA8  6E10               	movwf	(i2___fldiv@b+1)^0,c
  7904   001CAA  0E00               	movlw	0
  7905   001CAC  6E11               	movwf	(i2___fldiv@b+2)^0,c
  7906   001CAE  0E00               	movlw	0
  7907   001CB0  6E12               	movwf	(i2___fldiv@b+3)^0,c
  7908   001CB2                     i2l2903:
  7909   001CB2  5016               	movf	(i2___fldiv@a+3)^0,w,c
  7910   001CB4  0B80               	andlw	128
  7911   001CB6  1A1F               	xorwf	i2___fldiv@sign^0,f,c
  7912   001CB8  5016               	movf	(i2___fldiv@a+3)^0,w,c
  7913   001CBA  2416               	addwf	(i2___fldiv@a+3)^0,w,c
  7914   001CBC  6E27               	movwf	i2___fldiv@aexp^0,c
  7915   001CBE  AE15               	btfss	(i2___fldiv@a+2)^0,7,c
  7916   001CC0  EF64  F00E         	goto	i2u232_41
  7917   001CC4  EF66  F00E         	goto	i2u232_40
  7918   001CC8                     i2u232_41:
  7919   001CC8  EF67  F00E         	goto	i2l2911
  7920   001CCC                     i2u232_40:
  7921   001CCC  8027               	bsf	i2___fldiv@aexp^0,0,c
  7922   001CCE                     i2l2911:
  7923   001CCE  5027               	movf	i2___fldiv@aexp^0,w,c
  7924   001CD0  B4D8               	btfsc	status,2,c
  7925   001CD2  EF6D  F00E         	goto	i2u233_41
  7926   001CD6  EF6F  F00E         	goto	i2u233_40
  7927   001CDA                     i2u233_41:
  7928   001CDA  EF84  F00E         	goto	i2l2921
  7929   001CDE                     i2u233_40:
  7930   001CDE  2827               	incf	i2___fldiv@aexp^0,w,c
  7931   001CE0  A4D8               	btfss	status,2,c
  7932   001CE2  EF75  F00E         	goto	i2u234_41
  7933   001CE6  EF77  F00E         	goto	i2u234_40
  7934   001CEA                     i2u234_41:
  7935   001CEA  EF7F  F00E         	goto	i2l2917
  7936   001CEE                     i2u234_40:
  7937   001CEE  0E00               	movlw	0
  7938   001CF0  6E13               	movwf	i2___fldiv@a^0,c
  7939   001CF2  0E00               	movlw	0
  7940   001CF4  6E14               	movwf	(i2___fldiv@a+1)^0,c
  7941   001CF6  0E00               	movlw	0
  7942   001CF8  6E15               	movwf	(i2___fldiv@a+2)^0,c
  7943   001CFA  0E00               	movlw	0
  7944   001CFC  6E16               	movwf	(i2___fldiv@a+3)^0,c
  7945   001CFE                     i2l2917:
  7946   001CFE  8E15               	bsf	(i2___fldiv@a+2)^0,7,c
  7947   001D00  0E00               	movlw	0
  7948   001D02  6E16               	movwf	(i2___fldiv@a+3)^0,c
  7949   001D04  EF8C  F00E         	goto	i2l2923
  7950   001D08                     i2l2921:
  7951   001D08  0E00               	movlw	0
  7952   001D0A  6E13               	movwf	i2___fldiv@a^0,c
  7953   001D0C  0E00               	movlw	0
  7954   001D0E  6E14               	movwf	(i2___fldiv@a+1)^0,c
  7955   001D10  0E00               	movlw	0
  7956   001D12  6E15               	movwf	(i2___fldiv@a+2)^0,c
  7957   001D14  0E00               	movlw	0
  7958   001D16  6E16               	movwf	(i2___fldiv@a+3)^0,c
  7959   001D18                     i2l2923:
  7960   001D18  5013               	movf	i2___fldiv@a^0,w,c
  7961   001D1A  1014               	iorwf	(i2___fldiv@a+1)^0,w,c
  7962   001D1C  1015               	iorwf	(i2___fldiv@a+2)^0,w,c
  7963   001D1E  1016               	iorwf	(i2___fldiv@a+3)^0,w,c
  7964   001D20  A4D8               	btfss	status,2,c
  7965   001D22  EF95  F00E         	goto	i2u235_41
  7966   001D26  EF97  F00E         	goto	i2u235_40
  7967   001D2A                     i2u235_41:
  7968   001D2A  EFAF  F00E         	goto	i2l2935
  7969   001D2E                     i2u235_40:
  7970   001D2E  0E00               	movlw	0
  7971   001D30  6E0F               	movwf	i2___fldiv@b^0,c
  7972   001D32  0E00               	movlw	0
  7973   001D34  6E10               	movwf	(i2___fldiv@b+1)^0,c
  7974   001D36  0E00               	movlw	0
  7975   001D38  6E11               	movwf	(i2___fldiv@b+2)^0,c
  7976   001D3A  0E00               	movlw	0
  7977   001D3C  6E12               	movwf	(i2___fldiv@b+3)^0,c
  7978   001D3E  0E80               	movlw	128
  7979   001D40  1211               	iorwf	(i2___fldiv@b+2)^0,f,c
  7980   001D42  0E7F               	movlw	127
  7981   001D44  1212               	iorwf	(i2___fldiv@b+3)^0,f,c
  7982   001D46                     i2l2929:
  7983   001D46  501F               	movf	i2___fldiv@sign^0,w,c
  7984   001D48  1212               	iorwf	(i2___fldiv@b+3)^0,f,c
  7985   001D4A  C00F  F00F         	movff	i2___fldiv@b,?i2___fldiv
  7986   001D4E  C010  F010         	movff	i2___fldiv@b+1,?i2___fldiv+1
  7987   001D52  C011  F011         	movff	i2___fldiv@b+2,?i2___fldiv+2
  7988   001D56  C012  F012         	movff	i2___fldiv@b+3,?i2___fldiv+3
  7989   001D5A  EFF2  F00F         	goto	i2l1060
  7990   001D5E                     i2l2935:
  7991   001D5E  5026               	movf	i2___fldiv@bexp^0,w,c
  7992   001D60  A4D8               	btfss	status,2,c
  7993   001D62  EFB5  F00E         	goto	i2u236_41
  7994   001D66  EFB7  F00E         	goto	i2u236_40
  7995   001D6A                     i2u236_41:
  7996   001D6A  EFC1  F00E         	goto	i2l2943
  7997   001D6E                     i2u236_40:
  7998   001D6E  0E00               	movlw	0
  7999   001D70  6E0F               	movwf	?i2___fldiv^0,c
  8000   001D72  0E00               	movlw	0
  8001   001D74  6E10               	movwf	(?i2___fldiv+1)^0,c
  8002   001D76  0E00               	movlw	0
  8003   001D78  6E11               	movwf	(?i2___fldiv+2)^0,c
  8004   001D7A  0E00               	movlw	0
  8005   001D7C  6E12               	movwf	(?i2___fldiv+3)^0,c
  8006   001D7E  EFF2  F00F         	goto	i2l1060
  8007   001D82                     i2l2943:
  8008   001D82  5027               	movf	i2___fldiv@aexp^0,w,c
  8009   001D84  C026  F017         	movff	i2___fldiv@bexp,??i2___fldiv
  8010   001D88  6A18               	clrf	(??i2___fldiv+1)^0,c
  8011   001D8A  5E17               	subwf	??i2___fldiv^0,f,c
  8012   001D8C  0E00               	movlw	0
  8013   001D8E  5A18               	subwfb	(??i2___fldiv+1)^0,f,c
  8014   001D90  0E7F               	movlw	127
  8015   001D92  2417               	addwf	??i2___fldiv^0,w,c
  8016   001D94  6E20               	movwf	i2___fldiv@new_exp^0,c
  8017   001D96  0E00               	movlw	0
  8018   001D98  2018               	addwfc	(??i2___fldiv+1)^0,w,c
  8019   001D9A  6E21               	movwf	(i2___fldiv@new_exp+1)^0,c
  8020   001D9C  C00F  F01B         	movff	i2___fldiv@b,i2___fldiv@rem
  8021   001DA0  C010  F01C         	movff	i2___fldiv@b+1,i2___fldiv@rem+1
  8022   001DA4  C011  F01D         	movff	i2___fldiv@b+2,i2___fldiv@rem+2
  8023   001DA8  C012  F01E         	movff	i2___fldiv@b+3,i2___fldiv@rem+3
  8024   001DAC  0E00               	movlw	0
  8025   001DAE  6E0F               	movwf	i2___fldiv@b^0,c
  8026   001DB0  0E00               	movlw	0
  8027   001DB2  6E10               	movwf	(i2___fldiv@b+1)^0,c
  8028   001DB4  0E00               	movlw	0
  8029   001DB6  6E11               	movwf	(i2___fldiv@b+2)^0,c
  8030   001DB8  0E00               	movlw	0
  8031   001DBA  6E12               	movwf	(i2___fldiv@b+3)^0,c
  8032   001DBC  0E00               	movlw	0
  8033   001DBE  6E22               	movwf	i2___fldiv@grs^0,c
  8034   001DC0  0E00               	movlw	0
  8035   001DC2  6E23               	movwf	(i2___fldiv@grs+1)^0,c
  8036   001DC4  0E00               	movlw	0
  8037   001DC6  6E24               	movwf	(i2___fldiv@grs+2)^0,c
  8038   001DC8  0E00               	movlw	0
  8039   001DCA  6E25               	movwf	(i2___fldiv@grs+3)^0,c
  8040   001DCC  0E00               	movlw	0
  8041   001DCE  6E27               	movwf	i2___fldiv@aexp^0,c
  8042   001DD0  EF22  F00F         	goto	i2l1062
  8043   001DD4                     i2l2953:
  8044   001DD4  5027               	movf	i2___fldiv@aexp^0,w,c
  8045   001DD6  B4D8               	btfsc	status,2,c
  8046   001DD8  EFF0  F00E         	goto	i2u237_41
  8047   001DDC  EFF2  F00E         	goto	i2u237_40
  8048   001DE0                     i2u237_41:
  8049   001DE0  EF09  F00F         	goto	i2l2961
  8050   001DE4                     i2u237_40:
  8051   001DE4  90D8               	bcf	status,0,c
  8052   001DE6  361B               	rlcf	i2___fldiv@rem^0,f,c
  8053   001DE8  361C               	rlcf	(i2___fldiv@rem+1)^0,f,c
  8054   001DEA  361D               	rlcf	(i2___fldiv@rem+2)^0,f,c
  8055   001DEC  361E               	rlcf	(i2___fldiv@rem+3)^0,f,c
  8056   001DEE  90D8               	bcf	status,0,c
  8057   001DF0  360F               	rlcf	i2___fldiv@b^0,f,c
  8058   001DF2  3610               	rlcf	(i2___fldiv@b+1)^0,f,c
  8059   001DF4  3611               	rlcf	(i2___fldiv@b+2)^0,f,c
  8060   001DF6  3612               	rlcf	(i2___fldiv@b+3)^0,f,c
  8061   001DF8  AE25               	btfss	(i2___fldiv@grs+3)^0,7,c
  8062   001DFA  EF01  F00F         	goto	i2u238_41
  8063   001DFE  EF03  F00F         	goto	i2u238_40
  8064   001E02                     i2u238_41:
  8065   001E02  EF04  F00F         	goto	i2l1065
  8066   001E06                     i2u238_40:
  8067   001E06  800F               	bsf	i2___fldiv@b^0,0,c
  8068   001E08                     i2l1065:
  8069   001E08  90D8               	bcf	status,0,c
  8070   001E0A  3622               	rlcf	i2___fldiv@grs^0,f,c
  8071   001E0C  3623               	rlcf	(i2___fldiv@grs+1)^0,f,c
  8072   001E0E  3624               	rlcf	(i2___fldiv@grs+2)^0,f,c
  8073   001E10  3625               	rlcf	(i2___fldiv@grs+3)^0,f,c
  8074   001E12                     i2l2961:
  8075   001E12  5013               	movf	i2___fldiv@a^0,w,c
  8076   001E14  5C1B               	subwf	i2___fldiv@rem^0,w,c
  8077   001E16  5014               	movf	(i2___fldiv@a+1)^0,w,c
  8078   001E18  581C               	subwfb	(i2___fldiv@rem+1)^0,w,c
  8079   001E1A  5015               	movf	(i2___fldiv@a+2)^0,w,c
  8080   001E1C  581D               	subwfb	(i2___fldiv@rem+2)^0,w,c
  8081   001E1E  5016               	movf	(i2___fldiv@a+3)^0,w,c
  8082   001E20  581E               	subwfb	(i2___fldiv@rem+3)^0,w,c
  8083   001E22  A0D8               	btfss	status,0,c
  8084   001E24  EF16  F00F         	goto	i2u239_41
  8085   001E28  EF18  F00F         	goto	i2u239_40
  8086   001E2C                     i2u239_41:
  8087   001E2C  EF21  F00F         	goto	i2l2967
  8088   001E30                     i2u239_40:
  8089   001E30  8C25               	bsf	(i2___fldiv@grs+3)^0,6,c
  8090   001E32  5013               	movf	i2___fldiv@a^0,w,c
  8091   001E34  5E1B               	subwf	i2___fldiv@rem^0,f,c
  8092   001E36  5014               	movf	(i2___fldiv@a+1)^0,w,c
  8093   001E38  5A1C               	subwfb	(i2___fldiv@rem+1)^0,f,c
  8094   001E3A  5015               	movf	(i2___fldiv@a+2)^0,w,c
  8095   001E3C  5A1D               	subwfb	(i2___fldiv@rem+2)^0,f,c
  8096   001E3E  5016               	movf	(i2___fldiv@a+3)^0,w,c
  8097   001E40  5A1E               	subwfb	(i2___fldiv@rem+3)^0,f,c
  8098   001E42                     i2l2967:
  8099   001E42  2A27               	incf	i2___fldiv@aexp^0,f,c
  8100   001E44                     i2l1062:
  8101   001E44  0E19               	movlw	25
  8102   001E46  6427               	cpfsgt	i2___fldiv@aexp^0,c
  8103   001E48  EF28  F00F         	goto	i2u240_41
  8104   001E4C  EF2A  F00F         	goto	i2u240_40
  8105   001E50                     i2u240_41:
  8106   001E50  EFEA  F00E         	goto	i2l2953
  8107   001E54                     i2u240_40:
  8108   001E54  501B               	movf	i2___fldiv@rem^0,w,c
  8109   001E56  101C               	iorwf	(i2___fldiv@rem+1)^0,w,c
  8110   001E58  101D               	iorwf	(i2___fldiv@rem+2)^0,w,c
  8111   001E5A  101E               	iorwf	(i2___fldiv@rem+3)^0,w,c
  8112   001E5C  B4D8               	btfsc	status,2,c
  8113   001E5E  EF33  F00F         	goto	i2u241_41
  8114   001E62  EF35  F00F         	goto	i2u241_40
  8115   001E66                     i2u241_41:
  8116   001E66  EF4D  F00F         	goto	i2l2979
  8117   001E6A                     i2u241_40:
  8118   001E6A  8022               	bsf	i2___fldiv@grs^0,0,c
  8119   001E6C  EF4D  F00F         	goto	i2l2979
  8120   001E70                     i2l2973:
  8121   001E70  90D8               	bcf	status,0,c
  8122   001E72  360F               	rlcf	i2___fldiv@b^0,f,c
  8123   001E74  3610               	rlcf	(i2___fldiv@b+1)^0,f,c
  8124   001E76  3611               	rlcf	(i2___fldiv@b+2)^0,f,c
  8125   001E78  3612               	rlcf	(i2___fldiv@b+3)^0,f,c
  8126   001E7A  AE25               	btfss	(i2___fldiv@grs+3)^0,7,c
  8127   001E7C  EF42  F00F         	goto	i2u242_41
  8128   001E80  EF44  F00F         	goto	i2u242_40
  8129   001E84                     i2u242_41:
  8130   001E84  EF45  F00F         	goto	i2l1071
  8131   001E88                     i2u242_40:
  8132   001E88  800F               	bsf	i2___fldiv@b^0,0,c
  8133   001E8A                     i2l1071:
  8134   001E8A  90D8               	bcf	status,0,c
  8135   001E8C  3622               	rlcf	i2___fldiv@grs^0,f,c
  8136   001E8E  3623               	rlcf	(i2___fldiv@grs+1)^0,f,c
  8137   001E90  3624               	rlcf	(i2___fldiv@grs+2)^0,f,c
  8138   001E92  3625               	rlcf	(i2___fldiv@grs+3)^0,f,c
  8139   001E94  0620               	decf	i2___fldiv@new_exp^0,f,c
  8140   001E96  A0D8               	btfss	status,0,c
  8141   001E98  0621               	decf	(i2___fldiv@new_exp+1)^0,f,c
  8142   001E9A                     i2l2979:
  8143   001E9A  AE11               	btfss	(i2___fldiv@b+2)^0,7,c
  8144   001E9C  EF52  F00F         	goto	i2u243_41
  8145   001EA0  EF54  F00F         	goto	i2u243_40
  8146   001EA4                     i2u243_41:
  8147   001EA4  EF38  F00F         	goto	i2l2973
  8148   001EA8                     i2u243_40:
  8149   001EA8  0E00               	movlw	0
  8150   001EAA  6E27               	movwf	i2___fldiv@aexp^0,c
  8151   001EAC  AE25               	btfss	(i2___fldiv@grs+3)^0,7,c
  8152   001EAE  EF5B  F00F         	goto	i2u244_41
  8153   001EB2  EF5D  F00F         	goto	i2u244_40
  8154   001EB6                     i2u244_41:
  8155   001EB6  EF81  F00F         	goto	i2l1073
  8156   001EBA                     i2u244_40:
  8157   001EBA  0EFF               	movlw	255
  8158   001EBC  1422               	andwf	i2___fldiv@grs^0,w,c
  8159   001EBE  6E17               	movwf	??i2___fldiv^0,c
  8160   001EC0  0EFF               	movlw	255
  8161   001EC2  1423               	andwf	(i2___fldiv@grs+1)^0,w,c
  8162   001EC4  6E18               	movwf	(??i2___fldiv+1)^0,c
  8163   001EC6  0EFF               	movlw	255
  8164   001EC8  1424               	andwf	(i2___fldiv@grs+2)^0,w,c
  8165   001ECA  6E19               	movwf	(??i2___fldiv+2)^0,c
  8166   001ECC  0E7F               	movlw	127
  8167   001ECE  1425               	andwf	(i2___fldiv@grs+3)^0,w,c
  8168   001ED0  6E1A               	movwf	(??i2___fldiv+3)^0,c
  8169   001ED2  5017               	movf	??i2___fldiv^0,w,c
  8170   001ED4  1018               	iorwf	(??i2___fldiv+1)^0,w,c
  8171   001ED6  1019               	iorwf	(??i2___fldiv+2)^0,w,c
  8172   001ED8  101A               	iorwf	(??i2___fldiv+3)^0,w,c
  8173   001EDA  B4D8               	btfsc	status,2,c
  8174   001EDC  EF72  F00F         	goto	i2u245_41
  8175   001EE0  EF74  F00F         	goto	i2u245_40
  8176   001EE4                     i2u245_41:
  8177   001EE4  EF78  F00F         	goto	i2l1074
  8178   001EE8                     i2u245_40:
  8179   001EE8                     i2l2987:
  8180   001EE8  0E01               	movlw	1
  8181   001EEA  6E27               	movwf	i2___fldiv@aexp^0,c
  8182   001EEC  EF81  F00F         	goto	i2l1073
  8183   001EF0                     i2l1074:
  8184   001EF0  A00F               	btfss	i2___fldiv@b^0,0,c
  8185   001EF2  EF7D  F00F         	goto	i2u246_41
  8186   001EF6  EF7F  F00F         	goto	i2u246_40
  8187   001EFA                     i2u246_41:
  8188   001EFA  EF81  F00F         	goto	i2l1073
  8189   001EFE                     i2u246_40:
  8190   001EFE  EF74  F00F         	goto	i2l2987
  8191   001F02                     i2l1073:
  8192   001F02  5027               	movf	i2___fldiv@aexp^0,w,c
  8193   001F04  B4D8               	btfsc	status,2,c
  8194   001F06  EF87  F00F         	goto	i2u247_41
  8195   001F0A  EF89  F00F         	goto	i2u247_40
  8196   001F0E                     i2u247_41:
  8197   001F0E  EFAD  F00F         	goto	i2l2999
  8198   001F12                     i2u247_40:
  8199   001F12  0E01               	movlw	1
  8200   001F14  260F               	addwf	i2___fldiv@b^0,f,c
  8201   001F16  0E00               	movlw	0
  8202   001F18  2210               	addwfc	(i2___fldiv@b+1)^0,f,c
  8203   001F1A  2211               	addwfc	(i2___fldiv@b+2)^0,f,c
  8204   001F1C  2212               	addwfc	(i2___fldiv@b+3)^0,f,c
  8205   001F1E  A012               	btfss	(i2___fldiv@b+3)^0,0,c
  8206   001F20  EF94  F00F         	goto	i2u248_41
  8207   001F24  EF96  F00F         	goto	i2u248_40
  8208   001F28                     i2u248_41:
  8209   001F28  EFAD  F00F         	goto	i2l2999
  8210   001F2C                     i2u248_40:
  8211   001F2C  C00F  F017         	movff	i2___fldiv@b,??i2___fldiv
  8212   001F30  C010  F018         	movff	i2___fldiv@b+1,??i2___fldiv+1
  8213   001F34  C011  F019         	movff	i2___fldiv@b+2,??i2___fldiv+2
  8214   001F38  C012  F01A         	movff	i2___fldiv@b+3,??i2___fldiv+3
  8215   001F3C  341A               	rlcf	(??i2___fldiv+3)^0,w,c
  8216   001F3E  321A               	rrcf	(??i2___fldiv+3)^0,f,c
  8217   001F40  3219               	rrcf	(??i2___fldiv+2)^0,f,c
  8218   001F42  3218               	rrcf	(??i2___fldiv+1)^0,f,c
  8219   001F44  3217               	rrcf	??i2___fldiv^0,f,c
  8220   001F46  C017  F00F         	movff	??i2___fldiv,i2___fldiv@b
  8221   001F4A  C018  F010         	movff	??i2___fldiv+1,i2___fldiv@b+1
  8222   001F4E  C019  F011         	movff	??i2___fldiv+2,i2___fldiv@b+2
  8223   001F52  C01A  F012         	movff	??i2___fldiv+3,i2___fldiv@b+3
  8224   001F56  4A20               	infsnz	i2___fldiv@new_exp^0,f,c
  8225   001F58  2A21               	incf	(i2___fldiv@new_exp+1)^0,f,c
  8226   001F5A                     i2l2999:
  8227   001F5A  BE21               	btfsc	(i2___fldiv@new_exp+1)^0,7,c
  8228   001F5C  EFB8  F00F         	goto	i2u249_41
  8229   001F60  5021               	movf	(i2___fldiv@new_exp+1)^0,w,c
  8230   001F62  E108               	bnz	i2u249_40
  8231   001F64  2820               	incf	i2___fldiv@new_exp^0,w,c
  8232   001F66  A0D8               	btfss	status,0,c
  8233   001F68  EFB8  F00F         	goto	i2u249_41
  8234   001F6C  EFBA  F00F         	goto	i2u249_40
  8235   001F70                     i2u249_41:
  8236   001F70  EFC5  F00F         	goto	i2l3003
  8237   001F74                     i2u249_40:
  8238   001F74  0E00               	movlw	0
  8239   001F76  6E21               	movwf	(i2___fldiv@new_exp+1)^0,c
  8240   001F78  6820               	setf	i2___fldiv@new_exp^0,c
  8241   001F7A  0E00               	movlw	0
  8242   001F7C  6E0F               	movwf	i2___fldiv@b^0,c
  8243   001F7E  0E00               	movlw	0
  8244   001F80  6E10               	movwf	(i2___fldiv@b+1)^0,c
  8245   001F82  0E00               	movlw	0
  8246   001F84  6E11               	movwf	(i2___fldiv@b+2)^0,c
  8247   001F86  0E00               	movlw	0
  8248   001F88  6E12               	movwf	(i2___fldiv@b+3)^0,c
  8249   001F8A                     i2l3003:
  8250   001F8A  BE21               	btfsc	(i2___fldiv@new_exp+1)^0,7,c
  8251   001F8C  EFD2  F00F         	goto	i2u250_40
  8252   001F90  5021               	movf	(i2___fldiv@new_exp+1)^0,w,c
  8253   001F92  E106               	bnz	i2u250_41
  8254   001F94  0420               	decf	i2___fldiv@new_exp^0,w,c
  8255   001F96  B0D8               	btfsc	status,0,c
  8256   001F98  EFD0  F00F         	goto	i2u250_41
  8257   001F9C  EFD2  F00F         	goto	i2u250_40
  8258   001FA0                     i2u250_41:
  8259   001FA0  EFE0  F00F         	goto	i2l3007
  8260   001FA4                     i2u250_40:
  8261   001FA4  0E00               	movlw	0
  8262   001FA6  6E21               	movwf	(i2___fldiv@new_exp+1)^0,c
  8263   001FA8  0E00               	movlw	0
  8264   001FAA  6E20               	movwf	i2___fldiv@new_exp^0,c
  8265   001FAC  0E00               	movlw	0
  8266   001FAE  6E0F               	movwf	i2___fldiv@b^0,c
  8267   001FB0  0E00               	movlw	0
  8268   001FB2  6E10               	movwf	(i2___fldiv@b+1)^0,c
  8269   001FB4  0E00               	movlw	0
  8270   001FB6  6E11               	movwf	(i2___fldiv@b+2)^0,c
  8271   001FB8  0E00               	movlw	0
  8272   001FBA  6E12               	movwf	(i2___fldiv@b+3)^0,c
  8273   001FBC  0E00               	movlw	0
  8274   001FBE  6E1F               	movwf	i2___fldiv@sign^0,c
  8275   001FC0                     i2l3007:
  8276   001FC0  C020  F026         	movff	i2___fldiv@new_exp,i2___fldiv@bexp
  8277   001FC4  A026               	btfss	i2___fldiv@bexp^0,0,c
  8278   001FC6  EFE7  F00F         	goto	i2u251_41
  8279   001FCA  EFE9  F00F         	goto	i2u251_40
  8280   001FCE                     i2u251_41:
  8281   001FCE  EFEC  F00F         	goto	i2l3013
  8282   001FD2                     i2u251_40:
  8283   001FD2  8E11               	bsf	(i2___fldiv@b+2)^0,7,c
  8284   001FD4  EFED  F00F         	goto	i2l3015
  8285   001FD8                     i2l3013:
  8286   001FD8  9E11               	bcf	(i2___fldiv@b+2)^0,7,c
  8287   001FDA                     i2l3015:
  8288   001FDA  90D8               	bcf	status,0,c
  8289   001FDC  3026               	rrcf	i2___fldiv@bexp^0,w,c
  8290   001FDE  6E12               	movwf	(i2___fldiv@b+3)^0,c
  8291   001FE0  EFA3  F00E         	goto	i2l2929
  8292   001FE4                     i2l1060:
  8293   001FE4  0012               	return		;funcret
  8294   001FE6                     __end_ofi2___fldiv:
  8295                           	callstack 0
  8296                           
  8297 ;; *************** function i2_ADC_GetConversion *****************
  8298 ;; Defined at:
  8299 ;;		line 92 in file "mcc_generated_files/adc/src/adc.c"
  8300 ;; Parameters:    Size  Location     Type
  8301 ;;  channel         1    wreg     enum E2740
  8302 ;; Auto vars:     Size  Location     Type
  8303 ;;  channel         1    4[COMRAM] enum E2740
  8304 ;; Return value:  Size  Location     Type
  8305 ;;                  2    0[COMRAM] unsigned short 
  8306 ;; Registers used:
  8307 ;;		wreg, status,2, status,0
  8308 ;; Tracked objects:
  8309 ;;		On entry : 0/0
  8310 ;;		On exit  : 0/0
  8311 ;;		Unchanged: 0/0
  8312 ;; Data sizes:     COMRAM   BANK0   BANK1   BANK2   BANK3   BANK4   BANK5   BANK6   BANK7   BANK8   BANK9  BANK10  BANK1
      +1  BANK12  BANK13  BANK14  BANK15
  8313 ;;      Params:         2       0       0       0       0       0       0       0       0       0       0       0       
      +0       0       0       0       0
  8314 ;;      Locals:         1       0       0       0       0       0       0       0       0       0       0       0       
      +0       0       0       0       0
  8315 ;;      Temps:          2       0       0       0       0       0       0       0       0       0       0       0       
      +0       0       0       0       0
  8316 ;;      Totals:         5       0       0       0       0       0       0       0       0       0       0       0       
      +0       0       0       0       0
  8317 ;;Total ram usage:        5 bytes
  8318 ;; Hardware stack levels used: 1
  8319 ;; This function calls:
  8320 ;;		Nothing
  8321 ;; This function is called by:
  8322 ;;		_Timer0_UserCallback
  8323 ;; This function uses a non-reentrant model
  8324 ;;
  8325                           
  8326                           	psect	text50
  8327   003256                     __ptext50:
  8328                           	callstack 0
  8329   003256                     i2_ADC_GetConversion:
  8330                           	callstack 22
  8331                           
  8332                           ;incstack = 0
  8333                           ;i2ADC_GetConversion@channel stored from wreg
  8334   003256  6E05               	movwf	i2ADC_GetConversion@channel^0,c
  8335   003258                     
  8336                           ;mcc_generated_files/adc/src/adc.c: 94:     ADCON0bits.CHS = channel;
  8337   003258  C005  F003         	movff	i2ADC_GetConversion@channel,??i2_ADC_GetConversion
  8338   00325C  4603               	rlncf	??i2_ADC_GetConversion^0,f,c
  8339   00325E  4603               	rlncf	??i2_ADC_GetConversion^0,f,c
  8340   003260  50C2               	movf	194,w,c	;volatile
  8341   003262  1803               	xorwf	??i2_ADC_GetConversion^0,w,c
  8342   003264  0BC3               	andlw	-61
  8343   003266  1803               	xorwf	??i2_ADC_GetConversion^0,w,c
  8344   003268  6EC2               	movwf	194,c	;volatile
  8345   00326A                     
  8346                           ;mcc_generated_files/adc/src/adc.c: 96:     ADCON0bits.ADON = 1;
  8347   00326A  80C2               	bsf	194,0,c	;volatile
  8348   00326C                     
  8349                           ;mcc_generated_files/adc/src/adc.c: 99:     _delay((unsigned long)((8)*(16000000/4000000
      +                          .0)));
  8350   00326C  0E0A               	movlw	10
  8351   00326E                     i2u491_47:
  8352   00326E  2EE8               	decfsz	wreg,f,c
  8353   003270  D7FE               	bra	i2u491_47
  8354   003272  F000 F000          	nop2	
  8355   003276                     
  8356                           ;mcc_generated_files/adc/src/adc.c: 102:     ADCON0bits.GO_nDONE = 1;
  8357   003276  82C2               	bsf	194,1,c	;volatile
  8358   003278                     i2l34:
  8359   003278  B2C2               	btfsc	194,1,c	;volatile
  8360   00327A  EF41  F019         	goto	i2u221_41
  8361   00327E  EF43  F019         	goto	i2u221_40
  8362   003282                     i2u221_41:
  8363   003282  EF3C  F019         	goto	i2l34
  8364   003286                     i2u221_40:
  8365   003286                     
  8366                           ;mcc_generated_files/adc/src/adc.c: 108:     return ((adc_result_t)((ADRESH << 8) + ADRE
      +                          SL));
  8367   003286  50C4               	movf	196,w,c	;volatile
  8368   003288  6E04               	movwf	(??i2_ADC_GetConversion+1)^0,c
  8369   00328A  6A03               	clrf	??i2_ADC_GetConversion^0,c
  8370   00328C  50C3               	movf	195,w,c	;volatile
  8371   00328E  2403               	addwf	??i2_ADC_GetConversion^0,w,c
  8372   003290  6E01               	movwf	?i2_ADC_GetConversion^0,c
  8373   003292  0E00               	movlw	0
  8374   003294  2004               	addwfc	(??i2_ADC_GetConversion+1)^0,w,c
  8375   003296  6E02               	movwf	(?i2_ADC_GetConversion+1)^0,c
  8376   003298  0012               	return		;funcret
  8377   00329A                     __end_ofi2_ADC_GetConversion:
  8378                           	callstack 0
  8379                           
  8380 ;; *************** function _EUSART_WriteString *****************
  8381 ;; Defined at:
  8382 ;;		line 268 in file "mcc_generated_files/uart/src/eusart.c"
  8383 ;; Parameters:    Size  Location     Type
  8384 ;;  str             1    1[COMRAM] PTR const unsigned char 
  8385 ;;		 -> Timer0_UserCallback@str(6), 
  8386 ;; Auto vars:     Size  Location     Type
  8387 ;;		None
  8388 ;; Return value:  Size  Location     Type
  8389 ;;                  1    wreg      void 
  8390 ;; Registers used:
  8391 ;;		wreg, fsr2l, fsr2h, status,2, status,0, cstack
  8392 ;; Tracked objects:
  8393 ;;		On entry : 0/0
  8394 ;;		On exit  : 0/0
  8395 ;;		Unchanged: 0/0
  8396 ;; Data sizes:     COMRAM   BANK0   BANK1   BANK2   BANK3   BANK4   BANK5   BANK6   BANK7   BANK8   BANK9  BANK10  BANK1
      +1  BANK12  BANK13  BANK14  BANK15
  8397 ;;      Params:         1       0       0       0       0       0       0       0       0       0       0       0       
      +0       0       0       0       0
  8398 ;;      Locals:         0       0       0       0       0       0       0       0       0       0       0       0       
      +0       0       0       0       0
  8399 ;;      Temps:          0       0       0       0       0       0       0       0       0       0       0       0       
      +0       0       0       0       0
  8400 ;;      Totals:         1       0       0       0       0       0       0       0       0       0       0       0       
      +0       0       0       0       0
  8401 ;;Total ram usage:        1 bytes
  8402 ;; Hardware stack levels used: 1
  8403 ;; Hardware stack levels required when called: 1
  8404 ;; This function calls:
  8405 ;;		_EUSART_Write
  8406 ;; This function is called by:
  8407 ;;		_Timer0_UserCallback
  8408 ;; This function uses a non-reentrant model
  8409 ;;
  8410                           
  8411                           	psect	text51
  8412   0033CC                     __ptext51:
  8413                           	callstack 0
  8414   0033CC                     _EUSART_WriteString:
  8415                           	callstack 21
  8416   0033CC                     
  8417                           ;mcc_generated_files/uart/src/eusart.c: 269:     while (*str != '\0') {
  8418   0033CC  EFF6  F019         	goto	i2l2767
  8419   0033D0                     i2l317:
  8420   0033D0  A89E               	btfss	158,4,c	;volatile
  8421   0033D2  EFED  F019         	goto	i2u214_41
  8422   0033D6  EFEF  F019         	goto	i2u214_40
  8423   0033DA                     i2u214_41:
  8424   0033DA  EFE8  F019         	goto	i2l317
  8425   0033DE                     i2u214_40:
  8426   0033DE                     
  8427                           ;mcc_generated_files/uart/src/eusart.c: 271:         EUSART_Write(*str++);
  8428   0033DE  5002               	movf	EUSART_WriteString@str^0,w,c
  8429   0033E0  6ED9               	movwf	fsr2l,c
  8430   0033E2  6ADA               	clrf	fsr2h,c
  8431   0033E4  50DF               	movf	indf2,w,c
  8432   0033E6  ECCB  F01A         	call	_EUSART_Write
  8433   0033EA  2A02               	incf	EUSART_WriteString@str^0,f,c
  8434   0033EC                     i2l2767:
  8435                           
  8436                           ;mcc_generated_files/uart/src/eusart.c: 269:     while (*str != '\0') {
  8437   0033EC  5002               	movf	EUSART_WriteString@str^0,w,c
  8438   0033EE  6ED9               	movwf	fsr2l,c
  8439   0033F0  6ADA               	clrf	fsr2h,c
  8440   0033F2  50DF               	movf	indf2,w,c
  8441   0033F4  A4D8               	btfss	status,2,c
  8442   0033F6  EFFF  F019         	goto	i2u215_41
  8443   0033FA  EF01  F01A         	goto	i2u215_40
  8444   0033FE                     i2u215_41:
  8445   0033FE  EFE8  F019         	goto	i2l317
  8446   003402                     i2u215_40:
  8447   003402  0012               	return		;funcret
  8448   003404                     __end_of_EUSART_WriteString:
  8449                           	callstack 0
  8450                           
  8451 ;; *************** function _EUSART_Write *****************
  8452 ;; Defined at:
  8453 ;;		line 235 in file "mcc_generated_files/uart/src/eusart.c"
  8454 ;; Parameters:    Size  Location     Type
  8455 ;;  txData          1    wreg     unsigned char 
  8456 ;; Auto vars:     Size  Location     Type
  8457 ;;  txData          1    0[COMRAM] unsigned char 
  8458 ;; Return value:  Size  Location     Type
  8459 ;;                  1    wreg      void 
  8460 ;; Registers used:
  8461 ;;		wreg
  8462 ;; Tracked objects:
  8463 ;;		On entry : 0/0
  8464 ;;		On exit  : 0/0
  8465 ;;		Unchanged: 0/0
  8466 ;; Data sizes:     COMRAM   BANK0   BANK1   BANK2   BANK3   BANK4   BANK5   BANK6   BANK7   BANK8   BANK9  BANK10  BANK1
      +1  BANK12  BANK13  BANK14  BANK15
  8467 ;;      Params:         0       0       0       0       0       0       0       0       0       0       0       0       
      +0       0       0       0       0
  8468 ;;      Locals:         1       0       0       0       0       0       0       0       0       0       0       0       
      +0       0       0       0       0
  8469 ;;      Temps:          0       0       0       0       0       0       0       0       0       0       0       0       
      +0       0       0       0       0
  8470 ;;      Totals:         1       0       0       0       0       0       0       0       0       0       0       0       
      +0       0       0       0       0
  8471 ;;Total ram usage:        1 bytes
  8472 ;; Hardware stack levels used: 1
  8473 ;; This function calls:
  8474 ;;		Nothing
  8475 ;; This function is called by:
  8476 ;;		_EUSART_WriteString
  8477 ;; This function uses a non-reentrant model
  8478 ;;
  8479                           
  8480                           	psect	text52
  8481   003596                     __ptext52:
  8482                           	callstack 0
  8483   003596                     _EUSART_Write:
  8484                           	callstack 21
  8485                           
  8486                           ;incstack = 0
  8487                           ;EUSART_Write@txData stored from wreg
  8488   003596  6E01               	movwf	EUSART_Write@txData^0,c
  8489   003598                     
  8490                           ;mcc_generated_files/uart/src/eusart.c: 235: void EUSART_Write(uint8_t txData);mcc_gener
      +                          ated_files/uart/src/eusart.c: 236: {;mcc_generated_files/uart/src/eusart.c: 237:     TXR
      +                          EG = txData;
  8491   003598  C001  FFAD         	movff	EUSART_Write@txData,4013	;volatile
  8492   00359C  0012               	return		;funcret
  8493   00359E                     __end_of_EUSART_Write:
  8494                           	callstack 0
  8495                           
  8496                           	psect	rparam
  8497   000000                     
  8498                           	psect	temp
  8499   00005E                     btemp:
  8500                           	callstack 0
  8501   00005E                     	ds	1
  8502   000000                     int$flags	set	btemp
  8503   000000                     wtemp8	set	btemp+1
  8504   000000                     ttemp5	set	btemp+1
  8505   000000                     ttemp6	set	btemp+4
  8506   000000                     ttemp7	set	btemp+8
  8507                           
  8508                           	psect	config
  8509                           
  8510                           ; Padding undefined space
  8511   300000                     	org	3145728
  8512   300000  FF                 	db	255
  8513                           
  8514                           ;Config register CONFIG1H @ 0x300001
  8515                           ;	Oscillator Selection bits
  8516                           ;	FOSC = INTIO67, Internal oscillator block, port function on RA6 and RA7
  8517                           ;	Fail-Safe Clock Monitor Enable bit
  8518                           ;	FCMEN = OFF, Fail-Safe Clock Monitor disabled
  8519                           ;	Internal/External Oscillator Switchover bit
  8520                           ;	IESO = OFF, Oscillator Switchover mode disabled
  8521   300001                     	org	3145729
  8522   300001  08                 	db	8
  8523                           
  8524                           ;Config register CONFIG2L @ 0x300002
  8525                           ;	Power-up Timer Enable bit
  8526                           ;	PWRTEN = OFF, PWRT disabled
  8527                           ;	Brown-out Reset Enable bits
  8528                           ;	BOREN = SBORDIS, Brown-out Reset enabled in hardware only (SBOREN is disabled)
  8529                           ;	Brown Out Reset Voltage bits
  8530                           ;	BORV = 18, VBOR set to 1.8 V nominal
  8531   300002                     	org	3145730
  8532   300002  1F                 	db	31
  8533                           
  8534                           ;Config register CONFIG2H @ 0x300003
  8535                           ;	Watchdog Timer Enable bit
  8536                           ;	WDTEN = OFF, WDT is controlled by SWDTEN bit of the WDTCON register
  8537                           ;	Watchdog Timer Postscale Select bits
  8538                           ;	WDTPS = 32768, 1:32768
  8539   300003                     	org	3145731
  8540   300003  1E                 	db	30
  8541                           
  8542                           ; Padding undefined space
  8543   300004                     	org	3145732
  8544   300004  FF                 	db	255
  8545                           
  8546                           ;Config register CONFIG3H @ 0x300005
  8547                           ;	CCP2 MUX bit
  8548                           ;	CCP2MX = PORTC, CCP2 input/output is multiplexed with RC1
  8549                           ;	PORTB A/D Enable bit
  8550                           ;	PBADEN = ON, PORTB<4:0> pins are configured as analog input channels on Reset
  8551                           ;	Low-Power Timer1 Oscillator Enable bit
  8552                           ;	LPT1OSC = OFF, Timer1 configured for higher power operation
  8553                           ;	HFINTOSC Fast Start-up
  8554                           ;	HFOFST = ON, HFINTOSC starts clocking the CPU without waiting for the oscillator to st
      +                          ablize.
  8555                           ;	MCLR Pin Enable bit
  8556                           ;	MCLRE = ON, MCLR pin enabled; RE3 input pin disabled
  8557   300005                     	org	3145733
  8558   300005  8B                 	db	139
  8559                           
  8560                           ;Config register CONFIG4L @ 0x300006
  8561                           ;	Stack Full/Underflow Reset Enable bit
  8562                           ;	STVREN = ON, Stack full/underflow will cause Reset
  8563                           ;	Single-Supply ICSP Enable bit
  8564                           ;	LVP = ON, Single-Supply ICSP enabled
  8565                           ;	Extended Instruction Set Enable bit
  8566                           ;	XINST = OFF, Instruction set extension and Indexed Addressing mode disabled (Legacy mo
      +                          de)
  8567                           ;	Background Debugger Enable bit
  8568                           ;	DEBUG = 0x1, unprogrammed default
  8569   300006                     	org	3145734
  8570   300006  85                 	db	133
  8571                           
  8572                           ; Padding undefined space
  8573   300007                     	org	3145735
  8574   300007  FF                 	db	255
  8575                           
  8576                           ;Config register CONFIG5L @ 0x300008
  8577                           ;	Code Protection Block 0
  8578                           ;	CP0 = OFF, Block 0 (000800-003FFFh) not code-protected
  8579                           ;	Code Protection Block 1
  8580                           ;	CP1 = OFF, Block 1 (004000-007FFFh) not code-protected
  8581                           ;	Code Protection Block 2
  8582                           ;	CP2 = OFF, Block 2 (008000-00BFFFh) not code-protected
  8583                           ;	Code Protection Block 3
  8584                           ;	CP3 = OFF, Block 3 (00C000-00FFFFh) not code-protected
  8585   300008                     	org	3145736
  8586   300008  0F                 	db	15
  8587                           
  8588                           ;Config register CONFIG5H @ 0x300009
  8589                           ;	Boot Block Code Protection bit
  8590                           ;	CPB = OFF, Boot block (000000-0007FFh) not code-protected
  8591                           ;	Data EEPROM Code Protection bit
  8592                           ;	CPD = OFF, Data EEPROM not code-protected
  8593   300009                     	org	3145737
  8594   300009  C0                 	db	192
  8595                           
  8596                           ;Config register CONFIG6L @ 0x30000A
  8597                           ;	Write Protection Block 0
  8598                           ;	WRT0 = OFF, Block 0 (000800-003FFFh) not write-protected
  8599                           ;	Write Protection Block 1
  8600                           ;	WRT1 = OFF, Block 1 (004000-007FFFh) not write-protected
  8601                           ;	Write Protection Block 2
  8602                           ;	WRT2 = OFF, Block 2 (008000-00BFFFh) not write-protected
  8603                           ;	Write Protection Block 3
  8604                           ;	WRT3 = OFF, Block 3 (00C000h-00FFFFh) not write-protected
  8605   30000A                     	org	3145738
  8606   30000A  0F                 	db	15
  8607                           
  8608                           ;Config register CONFIG6H @ 0x30000B
  8609                           ;	Configuration Register Write Protection bit
  8610                           ;	WRTC = OFF, Configuration registers (300000-3000FFh) not write-protected
  8611                           ;	Boot Block Write Protection bit
  8612                           ;	WRTB = OFF, Boot Block (000000-0007FFh) not write-protected
  8613                           ;	Data EEPROM Write Protection bit
  8614                           ;	WRTD = OFF, Data EEPROM not write-protected
  8615   30000B                     	org	3145739
  8616   30000B  E0                 	db	224
  8617                           
  8618                           ;Config register CONFIG7L @ 0x30000C
  8619                           ;	Table Read Protection Block 0
  8620                           ;	EBTR0 = OFF, Block 0 (000800-003FFFh) not protected from table reads executed in other
      +                           blocks
  8621                           ;	Table Read Protection Block 1
  8622                           ;	EBTR1 = OFF, Block 1 (004000-007FFFh) not protected from table reads executed in other
      +                           blocks
  8623                           ;	Table Read Protection Block 2
  8624                           ;	EBTR2 = OFF, Block 2 (008000-00BFFFh) not protected from table reads executed in other
      +                           blocks
  8625                           ;	Table Read Protection Block 3
  8626                           ;	EBTR3 = OFF, Block 3 (00C000-00FFFFh) not protected from table reads executed in other
      +                           blocks
  8627   30000C                     	org	3145740
  8628   30000C  0F                 	db	15
  8629                           
  8630                           ;Config register CONFIG7H @ 0x30000D
  8631                           ;	Boot Block Table Read Protection bit
  8632                           ;	EBTRB = OFF, Boot Block (000000-0007FFh) not protected from table reads executed in ot
      +                          her blocks
  8633   30000D                     	org	3145741
  8634   30000D  40                 	db	64
  8635                           tosu	equ	0xFFF
  8636                           tosh	equ	0xFFE
  8637                           tosl	equ	0xFFD
  8638                           stkptr	equ	0xFFC
  8639                           pclatu	equ	0xFFB
  8640                           pclath	equ	0xFFA
  8641                           pcl	equ	0xFF9
  8642                           tblptru	equ	0xFF8
  8643                           tblptrh	equ	0xFF7
  8644                           tblptrl	equ	0xFF6
  8645                           tablat	equ	0xFF5
  8646                           prodh	equ	0xFF4
  8647                           prodl	equ	0xFF3
  8648                           indf0	equ	0xFEF
  8649                           postinc0	equ	0xFEE
  8650                           postdec0	equ	0xFED
  8651                           preinc0	equ	0xFEC
  8652                           plusw0	equ	0xFEB
  8653                           fsr0h	equ	0xFEA
  8654                           fsr0l	equ	0xFE9
  8655                           wreg	equ	0xFE8
  8656                           indf1	equ	0xFE7
  8657                           postinc1	equ	0xFE6
  8658                           postdec1	equ	0xFE5
  8659                           preinc1	equ	0xFE4
  8660                           plusw1	equ	0xFE3
  8661                           fsr1h	equ	0xFE2
  8662                           fsr1l	equ	0xFE1
  8663                           bsr	equ	0xFE0
  8664                           indf2	equ	0xFDF
  8665                           postinc2	equ	0xFDE
  8666                           postdec2	equ	0xFDD
  8667                           preinc2	equ	0xFDC
  8668                           plusw2	equ	0xFDB
  8669                           fsr2h	equ	0xFDA
  8670                           fsr2l	equ	0xFD9
  8671                           status	equ	0xFD8

Data Sizes:
    Strings     40
    Constant    48
    Data        0
    BSS         65
    Persistent  0
    Stack       0

Auto Spaces:
    Space          Size  Autos    Used
    COMRAM           94     90      93
    BANK0           160    100     130
    BANK1           256     20      52
    BANK2           256      0       0
    BANK3           256      0       0
    BANK4           256      0       0
    BANK5           256      0       0
    BANK6           256      0       0
    BANK7           256      0       0
    BANK8           256      0       0
    BANK9           256      0       0
    BANK10          256      0       0
    BANK11          256      0       0
    BANK12          256      0       0
    BANK13          256      0       0
    BANK14          256      0       0
    BANK15           96      0       0

Pointer List with Targets:

    EUSART_FramingErrorCallbackRegister@callbackHandler	PTR FTN()void  size(2) Largest target is 1
		 -> EUSART_DefaultFramingErrorCallback(), 

    EUSART_FramingErrorHandler	PTR FTN()void  size(2) Largest target is 1
		 -> EUSART_DefaultFramingErrorCallback(), NULL(), 

    EUSART_OverrunErrorCallbackRegister@callbackHandler	PTR FTN()void  size(2) Largest target is 1
		 -> EUSART_DefaultOverrunErrorCallback(), 

    EUSART_OverrunErrorHandler	PTR FTN()void  size(2) Largest target is 1
		 -> EUSART_DefaultOverrunErrorCallback(), NULL(), 

    EUSART_WriteString@str	PTR const unsigned char  size(1) Largest target is 6
		 -> Timer0_UserCallback@str(COMRAM[6]), 

    f$.$buffer	PTR unsigned char  size(2) Largest target is 0

    f$.$source	PTR const unsigned char  size(2) Largest target is 0

    fputc@fp	PTR struct _IO_FILE size(1) Largest target is 12
		 -> sprintf@f(BANK0[12]), 

    fputc@fp$.$buffer	PTR unsigned char  size(2) Largest target is 0

    fputc@fp$.$source	PTR const unsigned char  size(2) Largest target is 0

    i2sprintf@f$.$buffer	PTR unsigned char  size(2) Largest target is 0

    i2sprintf@f$.$source	PTR const unsigned char  size(2) Largest target is 0

    INT0_InterruptHandler	PTR FTN()void  size(2) Largest target is 1
		 -> INT0_DefaultInterruptHandler(), NULL(), 

    INT0_SetInterruptHandler@InterruptHandler	PTR FTN()void  size(2) Largest target is 1
		 -> INT0_DefaultInterruptHandler(), 

    INT1_InterruptHandler	PTR FTN()void  size(2) Largest target is 1
		 -> INT1_DefaultInterruptHandler(), NULL(), 

    INT1_SetInterruptHandler@InterruptHandler	PTR FTN()void  size(2) Largest target is 1
		 -> INT1_DefaultInterruptHandler(), 

    INT2_InterruptHandler	PTR FTN()void  size(2) Largest target is 1
		 -> INT2_DefaultInterruptHandler(), NULL(), 

    INT2_SetInterruptHandler@InterruptHandler	PTR FTN()void  size(2) Largest target is 1
		 -> INT2_DefaultInterruptHandler(), 

    LCD_WriteString@str	PTR const unsigned char  size(2) Largest target is 14
		 -> main@bpmstr(BANK1[6]), main@str(BANK1[6]), STR_2(CODE[14]), STR_5(CODE[5]), 
		 -> STR_6(CODE[7]), 

    S1957$buffer	PTR unsigned char  size(2) Largest target is 0

    S1957$source	PTR const unsigned char  size(2) Largest target is 0

    S551$20$0	PTR FTN()void  size(2) Largest target is 1
		 -> EUSART_DefaultFramingErrorCallback(), 

    S551$21$0	PTR FTN()void  size(2) Largest target is 1
		 -> EUSART_DefaultOverrunErrorCallback(), 

    S551$AutoBaudEventEnableGet	PTR FTN()_Bool  size(2) Largest target is 1
		 -> NULL(), 

    S551$AutoBaudQuery	PTR FTN()_Bool  size(2) Largest target is 1
		 -> EUSART_AutoBaudQuery(), 

    S551$AutoBaudSet	PTR FTN(_Bool ,)void  size(2) Largest target is 1
		 -> EUSART_AutoBaudSet(), 

    S551$BaudRateGet	PTR FTN()unsigned long  size(2) Largest target is 1
		 -> NULL(), 

    S551$BaudRateSet	PTR FTN(unsigned long ,)void  size(2) Largest target is 1
		 -> NULL(), 

    S551$BRGCountGet	PTR FTN()unsigned long  size(2) Largest target is 1
		 -> NULL(), 

    S551$BRGCountSet	PTR FTN(unsigned long ,)void  size(2) Largest target is 1
		 -> NULL(), 

    S551$Deinitialize	PTR FTN()void  size(2) Largest target is 1
		 -> EUSART_Deinitialize(), 

    S551$ErrorGet	PTR FTN()unsigned int  size(2) Largest target is 2
		 -> EUSART_ErrorGet(), 

    S551$EventCallbackRegister	PTR FTN(PTR FTN()void ,)void  size(2) Largest target is 1
		 -> NULL(), 

    S551$FramingErrorCallbackRegister	PTR FTN(PTR FTN()void ,)void  size(2) Largest target is 1
		 -> EUSART_FramingErrorCallbackRegister(), 

    S551$Initialize	PTR FTN()void  size(2) Largest target is 1
		 -> EUSART_Initialize(), 

    S551$IsRxReady	PTR FTN()_Bool  size(2) Largest target is 1
		 -> EUSART_IsRxReady(), 

    S551$IsTxDone	PTR FTN()_Bool  size(2) Largest target is 1
		 -> EUSART_IsTxDone(), 

    S551$IsTxReady	PTR FTN()_Bool  size(2) Largest target is 1
		 -> EUSART_IsTxReady(), 

    S551$OverrunErrorCallbackRegister	PTR FTN(PTR FTN()void ,)void  size(2) Largest target is 1
		 -> EUSART_OverrunErrorCallbackRegister(), 

    S551$ParityErrorCallbackRegister	PTR FTN(PTR FTN()void ,)void  size(2) Largest target is 1
		 -> NULL(), 

    S551$Read	PTR FTN()unsigned char  size(2) Largest target is 1
		 -> EUSART_Read(), 

    S551$RxCompleteCallbackRegister	PTR FTN(PTR FTN()void ,)void  size(2) Largest target is 1
		 -> NULL(), 

    S551$TransmitDisable	PTR FTN()void  size(2) Largest target is 1
		 -> EUSART_TransmitDisable(), 

    S551$TransmitEnable	PTR FTN()void  size(2) Largest target is 1
		 -> EUSART_TransmitEnable(), 

    S551$TxCollisionCallbackRegister	PTR FTN(PTR FTN()void ,)void  size(2) Largest target is 1
		 -> NULL(), 

    S551$TxCompleteCallbackRegister	PTR FTN(PTR FTN()void ,)void  size(2) Largest target is 1
		 -> NULL(), 

    S551$Write	PTR FTN(unsigned char ,)void  size(2) Largest target is 1
		 -> EUSART_Write(), 

    sprintf@ap	PTR void [1] size(1) Largest target is 2
		 -> ?_sprintf(BANK0[2]), 

    sprintf@fmt	PTR const unsigned char  size(1) Largest target is 11
		 -> STR_1(CODE[11]), STR_3(CODE[3]), STR_4(CODE[3]), 

    sprintf@s	PTR unsigned char  size(2) Largest target is 6
		 -> main@bpmstr(BANK1[6]), main@str(BANK1[6]), Timer0_UserCallback@str(COMRAM[6]), 

    Timer0_Callback	PTR FTN()void  size(2) Largest target is 1
		 -> Timer0_UserCallback(), NULL(), 

    Timer0_SetCallback@callback	PTR FTN()void  size(2) Largest target is 1
		 -> Timer0_UserCallback(), 

    UART1$AutoBaudEventEnableGet	PTR FTN()_Bool  size(2) Largest target is 1
		 -> NULL(), 

    UART1$AutoBaudQuery	PTR FTN()_Bool  size(2) Largest target is 1
		 -> EUSART_AutoBaudQuery(), 

    UART1$AutoBaudSet	PTR FTN(_Bool ,)void  size(2) Largest target is 1
		 -> EUSART_AutoBaudSet(), 

    UART1$BaudRateGet	PTR FTN()unsigned long  size(2) Largest target is 1
		 -> NULL(), 

    UART1$BaudRateSet	PTR FTN(unsigned long ,)void  size(2) Largest target is 1
		 -> NULL(), 

    UART1$BRGCountGet	PTR FTN()unsigned long  size(2) Largest target is 1
		 -> NULL(), 

    UART1$BRGCountSet	PTR FTN(unsigned long ,)void  size(2) Largest target is 1
		 -> NULL(), 

    UART1$Deinitialize	PTR FTN()void  size(2) Largest target is 1
		 -> EUSART_Deinitialize(), 

    UART1$ErrorGet	PTR FTN()unsigned int  size(2) Largest target is 2
		 -> EUSART_ErrorGet(), 

    UART1$EventCallbackRegister	PTR FTN(PTR FTN()void ,)void  size(2) Largest target is 1
		 -> NULL(), 

    UART1$FramingErrorCallbackRegister	PTR FTN(PTR FTN()void ,)void  size(2) Largest target is 1
		 -> EUSART_FramingErrorCallbackRegister(), 

    UART1$Initialize	PTR FTN()void  size(2) Largest target is 1
		 -> EUSART_Initialize(), 

    UART1$IsRxReady	PTR FTN()_Bool  size(2) Largest target is 1
		 -> EUSART_IsRxReady(), 

    UART1$IsTxDone	PTR FTN()_Bool  size(2) Largest target is 1
		 -> EUSART_IsTxDone(), 

    UART1$IsTxReady	PTR FTN()_Bool  size(2) Largest target is 1
		 -> EUSART_IsTxReady(), 

    UART1$OverrunErrorCallbackRegister	PTR FTN(PTR FTN()void ,)void  size(2) Largest target is 1
		 -> EUSART_OverrunErrorCallbackRegister(), 

    UART1$ParityErrorCallbackRegister	PTR FTN(PTR FTN()void ,)void  size(2) Largest target is 1
		 -> NULL(), 

    UART1$Read	PTR FTN()unsigned char  size(2) Largest target is 1
		 -> EUSART_Read(), 

    UART1$RxCompleteCallbackRegister	PTR FTN(PTR FTN()void ,)void  size(2) Largest target is 1
		 -> NULL(), 

    UART1$TransmitDisable	PTR FTN()void  size(2) Largest target is 1
		 -> EUSART_TransmitDisable(), 

    UART1$TransmitEnable	PTR FTN()void  size(2) Largest target is 1
		 -> EUSART_TransmitEnable(), 

    UART1$TxCollisionCallbackRegister	PTR FTN(PTR FTN()void ,)void  size(2) Largest target is 1
		 -> NULL(), 

    UART1$TxCompleteCallbackRegister	PTR FTN(PTR FTN()void ,)void  size(2) Largest target is 1
		 -> NULL(), 

    UART1$Write	PTR FTN(unsigned char ,)void  size(2) Largest target is 1
		 -> EUSART_Write(), 

    vfpfcnvrt@ap	PTR PTR void  size(1) Largest target is 1
		 -> sprintf@ap(BANK0[1]), 

    vfpfcnvrt@cp	PTR unsigned char  size(1) Largest target is 11
		 -> STR_1(CODE[11]), STR_3(CODE[3]), STR_4(CODE[3]), 

    vfpfcnvrt@fmt	PTR PTR unsigned char  size(1) Largest target is 1
		 -> vfprintf@cfmt(BANK0[1]), 

    vfpfcnvrt@fp	PTR struct _IO_FILE size(1) Largest target is 12
		 -> sprintf@f(BANK0[12]), 

    vfprintf@ap	PTR PTR void  size(1) Largest target is 1
		 -> sprintf@ap(BANK0[1]), 

    vfprintf@cfmt	PTR unsigned char  size(1) Largest target is 11
		 -> STR_1(CODE[11]), STR_3(CODE[3]), STR_4(CODE[3]), 

    vfprintf@fmt	PTR const unsigned char  size(1) Largest target is 11
		 -> STR_1(CODE[11]), STR_3(CODE[3]), STR_4(CODE[3]), 

    vfprintf@fp	PTR struct _IO_FILE size(1) Largest target is 12
		 -> sprintf@f(BANK0[12]), 


Critical Paths under _main in COMRAM

    None.

Critical Paths under _ISR in COMRAM

    _Timer0_ISR->_Timer0_UserCallback
    _Timer0_UserCallback->i2___fltol
    i2_sprintf->i2_vfprintf
    i2_vfprintf->i2_vfpfcnvrt
    i2_vfpfcnvrt->i2_fputc
    i2___fltol->i2___flmul
    i2___flmul->i2___fldiv
    i2___fldiv->i2___xxtofl
    _EUSART_WriteString->_EUSART_Write

Critical Paths under _main in BANK0

    _main->_Calculate_bpm
    _sprintf->_vfprintf
    _vfprintf->_vfpfcnvrt
    _vfpfcnvrt->_fputc
    _INTERRUPT_Initialize->_INT0_SetInterruptHandler
    _INTERRUPT_Initialize->_INT1_SetInterruptHandler
    _INTERRUPT_Initialize->_INT2_SetInterruptHandler
    _EUSART_Initialize->_EUSART_FramingErrorCallbackRegister
    _EUSART_Initialize->_EUSART_OverrunErrorCallbackRegister
    _LCD_WriteString->_LCD_WriteChar
    _LCD_WriteChar->_MCP23S09_Write
    _LCD_Init->_LCD_Command
    _MCP23S09_Init->_MCP23S09_Write
    _LCD_Command->_MCP23S09_Write
    _MCP23S09_Write->_SPI_Write
    _Calculate_bpm->___fltol
    ___fltol->___flmul
    ___flmul->___fldiv
    ___fldiv->___xxtofl

Critical Paths under _ISR in BANK0

    None.

Critical Paths under _main in BANK1

    None.

Critical Paths under _ISR in BANK1

    None.

Critical Paths under _main in BANK2

    None.

Critical Paths under _ISR in BANK2

    None.

Critical Paths under _main in BANK3

    None.

Critical Paths under _ISR in BANK3

    None.

Critical Paths under _main in BANK4

    None.

Critical Paths under _ISR in BANK4

    None.

Critical Paths under _main in BANK5

    None.

Critical Paths under _ISR in BANK5

    None.

Critical Paths under _main in BANK6

    None.

Critical Paths under _ISR in BANK6

    None.

Critical Paths under _main in BANK7

    None.

Critical Paths under _ISR in BANK7

    None.

Critical Paths under _main in BANK8

    None.

Critical Paths under _ISR in BANK8

    None.

Critical Paths under _main in BANK9

    None.

Critical Paths under _ISR in BANK9

    None.

Critical Paths under _main in BANK10

    None.

Critical Paths under _ISR in BANK10

    None.

Critical Paths under _main in BANK11

    None.

Critical Paths under _ISR in BANK11

    None.

Critical Paths under _main in BANK12

    None.

Critical Paths under _ISR in BANK12

    None.

Critical Paths under _main in BANK13

    None.

Critical Paths under _ISR in BANK13

    None.

Critical Paths under _main in BANK14

    None.

Critical Paths under _ISR in BANK14

    None.

Critical Paths under _main in BANK15

    None.

Critical Paths under _ISR in BANK15

    None.

Call Graph Tables:

 ---------------------------------------------------------------------------------
 (Depth) Function   	        Calls       Base Space   Used Autos Params    Refs
 ---------------------------------------------------------------------------------
 (0) _main                                                23    23      0   23272
                                             97 BANK0      3     3      0
                                              0 BANK1     20    20      0
                  _ADC_GetConversion
                      _Calculate_bpm
                         _Heart_Init
                        _LCD_Command
                           _LCD_Init
                    _LCD_WriteString
                  _SYSTEM_Initialize
                  _Timer0_Initialize
                 _Timer0_SetCallback
                            ___fldiv
                            ___flmul
                            ___fltol
                           ___xxtofl
                            _sprintf
 ---------------------------------------------------------------------------------
 (1) _sprintf                                             20    15      5    3992
                                             34 BANK0     18    13      5
                           _vfprintf
 ---------------------------------------------------------------------------------
 (2) _vfprintf                                             4     1      3    3189
                                             30 BANK0      4     1      3
                          _vfpfcnvrt
 ---------------------------------------------------------------------------------
 (3) _vfpfcnvrt                                           11     8      3    2695
                                             20 BANK0     10     7      3
                            ___lwdiv
                            ___lwmod
                              _fputc
 ---------------------------------------------------------------------------------
 (4) _fputc                                                8     5      3     957
                                             12 BANK0      8     5      3
                              _putch
 ---------------------------------------------------------------------------------
 (5) _putch                                                1     1      0       0
 ---------------------------------------------------------------------------------
 (4) ___lwmod                                              5     1      4     412
                                             12 BANK0      5     1      4
 ---------------------------------------------------------------------------------
 (4) ___lwdiv                                              7     3      4     421
                                             12 BANK0      7     3      4
 ---------------------------------------------------------------------------------
 (1) _Timer0_SetCallback                                   2     0      2     121
                                             12 BANK0      2     0      2
 ---------------------------------------------------------------------------------
 (1) _Timer0_Initialize                                    0     0      0       0
 ---------------------------------------------------------------------------------
 (1) _SYSTEM_Initialize                                    0     0      0     667
                     _ADC_Initialize
                   _CLOCK_Initialize
                  _EUSART_Initialize
               _INTERRUPT_Initialize
             _PIN_MANAGER_Initialize
 ---------------------------------------------------------------------------------
 (2) _PIN_MANAGER_Initialize                               0     0      0       0
 ---------------------------------------------------------------------------------
 (2) _INTERRUPT_Initialize                                 0     0      0     363
           _INT0_SetInterruptHandler
           _INT1_SetInterruptHandler
           _INT2_SetInterruptHandler
 ---------------------------------------------------------------------------------
 (3) _INT2_SetInterruptHandler                             2     0      2     121
                                             12 BANK0      2     0      2
 ---------------------------------------------------------------------------------
 (3) _INT1_SetInterruptHandler                             2     0      2     121
                                             12 BANK0      2     0      2
 ---------------------------------------------------------------------------------
 (3) _INT0_SetInterruptHandler                             2     0      2     121
                                             12 BANK0      2     0      2
 ---------------------------------------------------------------------------------
 (2) _EUSART_Initialize                                    0     0      0     304
_EUSART_FramingErrorCallbackRegister
_EUSART_OverrunErrorCallbackRegister
 ---------------------------------------------------------------------------------
 (3) _EUSART_OverrunErrorCallbackRegister                  2     0      2     152
                                             12 BANK0      2     0      2
 ---------------------------------------------------------------------------------
 (3) _EUSART_FramingErrorCallbackRegister                  2     0      2     152
                                             12 BANK0      2     0      2
 ---------------------------------------------------------------------------------
 (2) _CLOCK_Initialize                                     0     0      0       0
 ---------------------------------------------------------------------------------
 (2) _ADC_Initialize                                       0     0      0       0
 ---------------------------------------------------------------------------------
 (1) _LCD_WriteString                                      2     0      2    1722
                                             17 BANK0      2     0      2
                      _LCD_WriteChar
 ---------------------------------------------------------------------------------
 (2) _LCD_WriteChar                                        2     2      0    1207
                                             15 BANK0      2     2      0
                     _MCP23S09_Write
 ---------------------------------------------------------------------------------
 (1) _LCD_Init                                             1     1      0    2290
                                             17 BANK0      1     1      0
                        _LCD_Command
                      _MCP23S09_Init
 ---------------------------------------------------------------------------------
 (2) _MCP23S09_Init                                        0     0      0    1083
                     _MCP23S09_Write
                           _SPI_Init
 ---------------------------------------------------------------------------------
 (3) _SPI_Init                                             0     0      0       0
 ---------------------------------------------------------------------------------
 (2) _LCD_Command                                          2     2      0    1207
                                             15 BANK0      2     2      0
                     _MCP23S09_Write
 ---------------------------------------------------------------------------------
 (3) _MCP23S09_Write                                       2     1      1    1083
                                             13 BANK0      2     1      1
                          _SPI_Write
 ---------------------------------------------------------------------------------
 (4) _SPI_Write                                            1     1      0      31
                                             12 BANK0      1     1      0
 ---------------------------------------------------------------------------------
 (1) _Heart_Init                                           0     0      0       0
 ---------------------------------------------------------------------------------
 (1) _Calculate_bpm                                       11     9      2    6543
                                             86 BANK0     11     9      2
                  _ADC_GetConversion
                            ___fldiv
                            ___flmul
                            ___fltol
                           ___xxtofl
 ---------------------------------------------------------------------------------
 (1) ___xxtofl                                            14    10      4     711
                                             12 BANK0     14    10      4
 ---------------------------------------------------------------------------------
 (1) ___fltol                                             10     6      4     572
                                             76 BANK0     10     6      4
                            ___fldiv (ARG)
                            ___flmul (ARG)
                           ___xxtofl (ARG)
 ---------------------------------------------------------------------------------
 (1) ___flmul                                             25    17      8    2803
                                             51 BANK0     25    17      8
                            ___fldiv (ARG)
                           ___xxtofl (ARG)
 ---------------------------------------------------------------------------------
 (1) ___fldiv                                             25    17      8    2293
                                             26 BANK0     25    17      8
                           ___xxtofl (ARG)
 ---------------------------------------------------------------------------------
 (2) _ADC_GetConversion                                    5     3      2      31
                                             12 BANK0      5     3      2
 ---------------------------------------------------------------------------------
 Estimated maximum stack depth 5
 ---------------------------------------------------------------------------------
 (Depth) Function   	        Calls       Base Space   Used Autos Params    Refs
 ---------------------------------------------------------------------------------
 (6) _ISR                                                 12    12      0    6169
                                              0 BANK0     12    12      0
                         _Timer0_ISR
 ---------------------------------------------------------------------------------
 (7) _Timer0_ISR                                           0     0      0    6169
                                NULL *
                _Timer0_UserCallback *
 ---------------------------------------------------------------------------------
 (8) _Timer0_UserCallback                                 16    16      0    6169
                                             74 COMRAM    16    16      0
                 _EUSART_WriteString
                i2_ADC_GetConversion
                          i2___fldiv
                          i2___flmul
                          i2___fltol
                         i2___xxtofl
                          i2_sprintf
 ---------------------------------------------------------------------------------
 (9) i2_sprintf                                           20    15      5    2482
                                             22 COMRAM    18    13      5
                         i2_vfprintf
 ---------------------------------------------------------------------------------
 (10) i2_vfprintf                                          4     1      3    2106
                                             18 COMRAM     4     1      3
                        i2_vfpfcnvrt
 ---------------------------------------------------------------------------------
 (11) i2_vfpfcnvrt                                        11     8      3    1810
                                              8 COMRAM    10     7      3
                          i2___lwdiv
                          i2___lwmod
                            i2_fputc
 ---------------------------------------------------------------------------------
 (12) i2_fputc                                             8     5      3     457
                                              0 COMRAM     8     5      3
                            i2_putch
 ---------------------------------------------------------------------------------
 (13) i2_putch                                             1     1      0       0
 ---------------------------------------------------------------------------------
 (12) i2___lwmod                                           5     1      4     302
                                              0 COMRAM     5     1      4
 ---------------------------------------------------------------------------------
 (12) i2___lwdiv                                           7     3      4     311
                                              0 COMRAM     7     3      4
 ---------------------------------------------------------------------------------
 (9) i2___xxtofl                                          14    10      4     348
                                              0 COMRAM    14    10      4
 ---------------------------------------------------------------------------------
 (9) i2___fltol                                           10     6      4     255
                                             64 COMRAM    10     6      4
                          i2___fldiv (ARG)
                          i2___flmul (ARG)
                         i2___xxtofl (ARG)
 ---------------------------------------------------------------------------------
 (9) i2___flmul                                           25    17      8    1518
                                             39 COMRAM    25    17      8
                          i2___fldiv (ARG)
                         i2___xxtofl (ARG)
 ---------------------------------------------------------------------------------
 (9) i2___fldiv                                           25    17      8    1173
                                             14 COMRAM    25    17      8
                         i2___xxtofl (ARG)
 ---------------------------------------------------------------------------------
 (9) i2_ADC_GetConversion                                  5     3      2      22
                                              0 COMRAM     5     3      2
 ---------------------------------------------------------------------------------
 (9) _EUSART_WriteString                                   1     0      1     143
                                              1 COMRAM     1     0      1
                       _EUSART_Write
 ---------------------------------------------------------------------------------
 (10) _EUSART_Write                                        1     1      0      22
                                              0 COMRAM     1     1      0
 ---------------------------------------------------------------------------------
 (8) NULL(Fake)                                            0     0      0       0
 ---------------------------------------------------------------------------------
 Estimated maximum stack depth 13
 ---------------------------------------------------------------------------------

 Call Graph Graphs:

 _main (ROOT)
   _ADC_GetConversion
   _Calculate_bpm
     _ADC_GetConversion
     ___fldiv
       ___xxtofl (ARG)
     ___flmul
       ___fldiv (ARG)
       ___xxtofl (ARG)
     ___fltol
       ___fldiv (ARG)
       ___flmul (ARG)
       ___xxtofl (ARG)
     ___xxtofl
   _Heart_Init
   _LCD_Command
     _MCP23S09_Write
       _SPI_Write
   _LCD_Init
     _LCD_Command
     _MCP23S09_Init
       _MCP23S09_Write
       _SPI_Init
   _LCD_WriteString
     _LCD_WriteChar
       _MCP23S09_Write
   _SYSTEM_Initialize
     _ADC_Initialize
     _CLOCK_Initialize
     _EUSART_Initialize
       _EUSART_FramingErrorCallbackRegister
       _EUSART_OverrunErrorCallbackRegister
     _INTERRUPT_Initialize
       _INT0_SetInterruptHandler
       _INT1_SetInterruptHandler
       _INT2_SetInterruptHandler
     _PIN_MANAGER_Initialize
   _Timer0_Initialize
   _Timer0_SetCallback
   ___fldiv
   ___flmul
   ___fltol
   ___xxtofl
   _sprintf
     _vfprintf
       _vfpfcnvrt
         ___lwdiv
         ___lwmod
         _fputc
           _putch

 _ISR (ROOT)
   _Timer0_ISR
     NULL(Fake) *
     _Timer0_UserCallback *
       _EUSART_WriteString
         _EUSART_Write
       i2_ADC_GetConversion
       i2___fldiv
         i2___xxtofl (ARG)
       i2___flmul
         i2___fldiv (ARG)
         i2___xxtofl (ARG)
       i2___fltol
         i2___fldiv (ARG)
         i2___flmul (ARG)
         i2___xxtofl (ARG)
       i2___xxtofl
       i2_sprintf
         i2_vfprintf
           i2_vfpfcnvrt
             i2___lwdiv
             i2___lwmod
             i2_fputc
               i2_putch

 Address spaces:
Name               Size   Autos  Total    Cost      Usage
BIGRAM             F5F      0       0      53        0.0%
EEDATA             400      0       0       0        0.0%
BITBANK14          100      0       0      32        0.0%
BANK14             100      0       0      33        0.0%
BITBANK13          100      0       0      30        0.0%
BANK13             100      0       0      31        0.0%
BITBANK12          100      0       0      28        0.0%
BANK12             100      0       0      29        0.0%
BITBANK11          100      0       0      26        0.0%
BANK11             100      0       0      27        0.0%
BITBANK10          100      0       0      24        0.0%
BANK10             100      0       0      25        0.0%
BITBANK9           100      0       0      22        0.0%
BANK9              100      0       0      23        0.0%
BITBANK8           100      0       0      20        0.0%
BANK8              100      0       0      21        0.0%
BITBANK7           100      0       0      18        0.0%
BANK7              100      0       0      19        0.0%
BITBANK6           100      0       0      16        0.0%
BANK6              100      0       0      17        0.0%
BITBANK5           100      0       0      14        0.0%
BANK5              100      0       0      15        0.0%
BITBANK4           100      0       0      12        0.0%
BANK4              100      0       0      13        0.0%
BITBANK3           100      0       0      10        0.0%
BANK3              100      0       0      11        0.0%
BITBANK2           100      0       0       8        0.0%
BANK2              100      0       0       9        0.0%
BITBANK1           100      0       0       6        0.0%
BANK1              100     14      34       7       20.3%
BITBANK0            A0      0       0       4        0.0%
BANK0               A0     64      82       5       81.2%
BITBANK15           60      0       0      34        0.0%
BANK15              60      0       0      35        0.0%
BITCOMRAM           5E      0       0       0        0.0%
COMRAM              5E     5A      5D       1       98.9%
BITBIGSFRlllll      1C      0       0      51        0.0%
BITBIGSFRhhlhhh     18      0       0      37        0.0%
BITBIGSFRhhh         D      0       0      36        0.0%
BITBIGSFRlhll        C      0       0      45        0.0%
BITBIGSFRlllh        9      0       0      49        0.0%
BITBIGSFRlhlhh       7      0       0      44        0.0%
BITBIGSFRlhh         7      0       0      43        0.0%
BITBIGSFRllhhl       4      0       0      47        0.0%
BITBIGSFRllhl        4      0       0      48        0.0%
BITBIGSFRhhllhh      3      0       0      40        0.0%
BITBIGSFRllhhh       2      0       0      46        0.0%
BITBIGSFRhhlhl       2      0       0      39        0.0%
BITBIGSFRhhllhl      1      0       0      41        0.0%
BITBIGSFRhhlhhl      1      0       0      38        0.0%
BITBIGSFRllllh       1      0       0      50        0.0%
BITBIGSFRhhlll       1      0       0      42        0.0%
BIGSFR               0      0       0     200        0.0%
BITSFR               0      0       0     200        0.0%
SFR                  0      0       0     200        0.0%
STACK                0      0       0       2        0.0%
NULL                 0      0       0       0        0.0%
ABS                  0      0     113      52        0.0%
DATA                 0      0     113       3        0.0%
CODE                 0      0       0       0        0.0%


Microchip Technology PIC18 Macro Assembler V2.46 build 20240104201356 
Symbol Table                                                                                   Tue Jul 09 09:34:10 2024

                                      ___fldiv@aexp 0092                                        ___fldiv@bexp 0091  
                                      ___fldiv@sign 008A                                        ?_LCD_Command 0001  
                                       _SSPSTATbits 0FC7                                                  l34 31A8  
                                                l19 3516                                                  l37 31CA  
                                                l71 3432                                                  l87 3544  
                             EUSART_WriteString@str 0002         __end_of_EUSART_OverrunErrorCallbackRegister 34C6  
             ??_EUSART_OverrunErrorCallbackRegister 006E                ?_EUSART_OverrunErrorCallbackRegister 006C  
               _EUSART_OverrunErrorCallbackRegister 34A8                                  i2___lwdiv@dividend 0001  
                                               l122 33CA                                                 l132 358A  
                                               l312 34C4                                                 l233 3354  
                                               l145 3580                                                 l308 34E2  
                                               l421 2FDE                                                 l406 345E  
                                               l430 2E78                                                 l158 3576  
                                               l168 3594                                                 l409 34A6  
                                               l418 2EF2                                                 l427 311C  
                                               l443 34FE                                                 l451 356C  
                                               l470 3554                                                 l390 3520  
                                               l393 352E                                                 l475 294E  
                                               l387 3562                                                 l775 2A56  
                                               l976 2F68                                                 l969 2F60  
                                               l986 30B8                                                 l979 30B0  
                                               _ISR 0008                          ??_INT0_SetInterruptHandler 006E  
                                               _bpm 00D0                                         i2___fldiv@a 0013  
                                       i2___fldiv@b 000F                                          i2___xxtofl 2378  
                              ?_Timer0_UserCallback 0001                                                 tosl 0FFD  
                                               wreg 0FE8                                         i2___flmul@a 002C  
                                       i2___flmul@b 0028                                 __end_ofi2_vfpfcnvrt 282C  
                                 ??_LCD_WriteString 0073                                        ___flmul@aexp 00A0  
                                      ___flmul@bexp 00A5                                        ___flmul@sign 009F  
                                      ___flmul@temp 00AA                                        ___flmul@prod 00A6  
                                              ?_ISR 0001                                        ___fltol@exp1 00B5  
                                              l1101 138E                                                l1102 137C  
                                              l1200 3254                                                l1060 1C4A  
                                              l1140 22B2                                                l1212 2D16  
                                              l1109 1446                                                l1133 221A  
                                              l1062 1AAA                                                l1071 1AF0  
                                              l1223 359E                                                l1136 2376  
                                              l1073 1B68                                                l1065 1A6E  
                                              l1074 1B56                                                l1147 230E  
                                              l1092 1120                                                l1156 32D8  
                                              l1096 1484                                                l4001 3054  
                                              l1193 26AE                                                l1099 1316  
                                              l4011 309C                                                l4003 3068  
                                              l4013 30A4                                                l4005 3070  
                                              l4021 2C7E                                                l4015 30AA  
                                              l4007 3078                                                l4023 2C88  
                                              l4103 2662                                                l4201 2EB6  
                                              l4041 3582                                                l4009 3086  
                                              l4025 2CA4                                                l4017 2C5C  
                                              l4105 267C                                                l4131 3186  
                                              l4203 2EC8                                                l4211 3436  
                                              l4051 34A8                                                l4043 3578  
                                              l4027 2CD6                                                l4019 2C6E  
                                              l4133 319A                                                l4301 1A6C  
                                              l4061 348E                                                l4205 2ED0  
                                              l4221 2FB2                                                l4213 2F6E  
                                              l4053 34BC                                                l4045 356E  
                                              l4109 268A                                                l4135 319C  
                                              l4311 1ABA                                                l4303 1A78  
                                              l4231 18CC                                                l4063 3494  
                                              l4207 2EE0                                                l4055 3556  
                                              l4223 2FBA                                                l4215 2F7E  
                                              l4127 3500                                                l4047 34C6  
                                              l4151 342A                                                l4143 3404  
                                              l4071 2552                                                l4137 31A6  
                                              l4313 1AD0                                                l4321 1B00  
                                              l4305 1A96                                                l4241 1900  
                                              l4233 18CE                                                l4401 1140  
                                              l4065 349C                                                l4057 355A  
                                              l4209 3434                                                l4225 2FCC  
                                              l4217 2F96                                                l4129 3514  
                                              l4049 34DA                                                l4161 333C  
                                              l4153 3430                                                l4145 3418  
                                              l4081 2592                                                l4073 255A  
                                              l4139 31B6                                                l4323 1B0E  
                                              l4315 1AD6                                                l4307 1A98  
                                              l4251 1932                                                l4235 18DE  
                                              l4243 1908                                                l4227 18B0  
                                              l4411 1180                                                l4067 34A4  
                                              l4059 348C                                                l4219 2FA0  
                                              l4155 358C                                                l4171 33B8  
                                              l4163 3392                                                l4147 341A  
                                              l4091 2602                                                l4083 25AA  
                                              l4075 2566                                                l4333 1B78  
                                              l4341 1BC0                                                l4325 1B12  
                                              l4317 1AE0                                                l4309 1AA8  
                                              l4261 1966                                                l4253 1934  
                                              l4245 1918                                                l4237 18EE  
                                              l4229 18BE                                                l4421 11CA  
                                              l4413 118C                                                l4405 1154  
                                              l4501 297C                                                l4157 331A  
                                              l4173 33BA                                                l4165 3398  
                                              l4149 3420                                                l4093 2616  
                                              l4085 25B8                                                l4077 256A  
                                              l4069 252C                                                l4351 1C2A  
                                              l4343 1BDA                                                l4335 1B84  
                                              l4327 1B20                                                l4319 1AEE  
                                              l4271 19AC                                                l4255 1944  
                                              l4263 196E                                                l4247 191E  
                                              l4239 18FE                                                l4431 121C  
                                              l4423 11D6                                                l4415 11A4  
                                              l4407 1160                                                l4511 29CA  
                                              l4503 29A6                                                l4159 332E  
                                              l4167 33A6                                                l4095 262A  
                                              l4087 25BC                                                l4079 2574  
                                              l4353 1C38                                                l4345 1BF0  
                                              l4337 1B92                                                l4329 1B4E  
                                              l4281 19D4                                                l4273 19B0  
                                              l4265 197E                                                l4257 1954  
                                              l4249 1924                                                l4441 129A  
                                              l4433 122C                                                l4425 11E6  
                                              l4417 11B0                                                l4409 116A  
                                              l4521 29F6                                                l4505 29A8  
                                              l4169 33A8                                                l4097 2648  
                                              l4089 25E6                                                l4601 329A  
                                              l4355 1C3E                                                l4347 1C0A  
                                              l4339 1BBC                                                l4291 1A22  
                                              l4267 1994                                                l4259 1964  
                                              l4451 1314                                                l4443 12D0  
                                              l4435 1248                                                l4427 11F2  
                                              l4419 11BC                                                l4371 1078  
                                              l4531 2A26                                                l4507 29B8  
                                              l4195 2E7E                                                l4099 264C  
                                              l4603 32A8                                                l4357 1C40  
                                              l4349 1C26                                                l4293 1A32  
                                              l4285 19E8                                                l4269 19A4  
                                              l4277 19C4                                                l4461 1374  
                                              l4453 1326                                                l4445 12DE  
                                              l4437 1254                                                l4429 1202  
                                              l4381 10BE                                                l4373 1088  
                                              l4365 105A                                                l4533 2A36  
                                              l4517 29E2                                                l4509 29BC  
                                              l4541 21D6                                                l4197 2E8E  
                                              l4605 32B0                                                l4701 1FEA  
                                              l4295 1A3A                                                l4287 1A02  
                                              l4279 19D4                                                l4471 13E2  
                                              l4455 1334                                                l4447 12FC  
                                              l4439 1270                                                l4391 10EA  
                                              l4383 10C4                                                l4375 1098  
                                              l4367 1068                                                l4535 2A46  
                                              l4527 2A0A                                                l4519 29EC  
                                              l4551 2254                                                l4543 21E4  
                                              l4199 2EA4                                                l4631 2E00  
                                              l4623 2DD2                                                l4607 32B8  
                                              l4711 2024                                                l4703 1FEC  
                                              l4297 1A4A                                                l4289 1A12  
                                              l4481 144A                                                l4465 139E  
                                              l4473 13E6                                                l4457 1338  
                                              l4449 1306                                                l4393 10FA  
                                              l4385 10CA                                                l4377 10A8  
                                              l4369 1076                                                l4529 2A16  
                                              l4561 22A8                                                l4553 225C  
                                              l4545 222A                                                l4641 2E36  
                                              l4633 2E06                                                l4625 2DD6  
                                              l4609 32C8                                                l4721 206A  
                                              l4713 2028                                                l4705 1FF2  
                                              l4299 1A5E                                                l4491 1474  
                                              l4483 145A                                                l4475 1400  
                                              l4467 13AA                                                l4459 1346  
                                              l4395 110A                                                l4387 10D8  
                                              l4379 10AE                                                l4571 231E  
                                              l4563 22E4                                                l4555 2268  
                                              l4547 2240                                                l4539 21C4  
                                              l4643 2E48                                                l4635 2E18  
                                              l4627 2DE8                                                l4651 30BA  
                                              l4731 2132                                                l4723 20E0  
                                              l4715 202C                                                l4707 2004  
                                              l4485 1468                                                l4477 1414  
                                              l4469 13B8                                                l4397 1110  
                                              l4389 10DA                                                l4581 2366  
                                              l4573 2322                                                l4565 22F0  
                                              l4557 229A                                                l4661 3552  
                                              l4645 2E4E                                                l4637 2E1E  
                                              l4629 2DEE                                                l4653 30BE  
                                              l4741 217E                                                l4733 2140  
                                              l4725 20FA                                                l4717 203A  
                                              l4709 201E                                                l4487 146A  
                                              l4479 142E                                                l4399 1130  
                                              l4495 2950                                                l4575 2346  
                                              l4567 22FE                                                l4559 229C  
                                              l4647 2E60                                                l4639 2E30  
                                              l4655 30E4                                                l4671 34FA  
                                              l4663 34E4                                                l4591 324A  
                                              l4743 2198                                                l4735 2158  
                                              l4727 2106                                                l4719 2048  
                                              l4489 1470                                                l4497 2968  
                                              l4577 2356                                                l4569 231C  
                                              l4681 285C                                                l4649 2E66  
                                              l4657 30EA                                                l4673 34FC  
                                              l4665 34EA                                                l4585 3212  
                                              l4745 219E                                                l4737 215E  
                                              l4729 2120                                                l4579 2364  
                                              l4691 292C                                                l4683 2872  
                                              l4659 3546                                                l4595 3530  
                                              l4667 34EE                                                l4675 3564  
                                              l4587 321A                                                l4739 2170  
                                              l4685 287A                                                l4693 2946  
                                              l4677 282C                                                l4597 353C  
                                              l4669 34F8                                                l3981 2EFE  
                                              l4589 322C                                                l4687 2886  
                                              l4679 283A                                                l4599 3540  
                                              l3991 2F34                                                l3983 2F10  
                                              l4689 28A0                                                l3977 351C  
                                              l3993 2F4A                                                l3985 2F18  
                                              l3995 2F52                                                l3987 2F20  
                                              l3979 2EF4                                                l4699 1FE6  
                                              l3997 2F54                                                l3989 2F2E  
                                              l3999 2F5A                                                STR_1 103F  
                                              STR_2 1031                                                STR_3 1056  
                                              STR_4 1056                                                STR_5 1051  
                                              STR_6 104A                                  LCD_WriteString@str 0071  
                                              _IOCB 0F7D                                                _LATA 0F89  
                                              _LATB 0F8A                                                _LATC 0F8B  
                                              u4000 31B6                                                _LATD 0F8C  
                                              u4001 31B2                                                _LATE 0F8D  
                                              u4100 19D4                                                u4101 19D0  
                                              u4110 1A4A                                                u4030 18CC  
                                              u4111 1A46                                                u4031 18C8  
                                              u4200 1B64                                                u4120 1A6C  
                                              u4040 18DE                                                u4201 1B60  
                                              u4121 1A68                                                u4041 18DA  
                                              u4210 1B78                                                u4130 1A96  
                                              u4050 18EE                                                u4211 1B74  
                                              u4131 1A92                                                u4051 18EA  
                                              u4220 1B92                                                u4140 1ABA  
                                              u4060 1932                                                u4300 10EA  
                                              u4221 1B8E                                                u4141 1AB6  
                                              u4061 192E                                                u4301 10E6  
                                              u4230 1BDA                                                u4150 1AD0  
                                              u4070 1944                                                u4310 10FA  
                                              u4231 1BD6                                                u4151 1ACC  
                                              u4071 1940                                                u4311 10F6  
                                              u4240 1C0A                                                u4160 1AEE  
                                              u4080 1954                                                u4400 139E  
                                              u4320 1130                                                u4241 1C06  
                                              u4161 1AEA                                                u4081 1950  
                                              u4401 139A                                                u4321 112C  
                                              u4250 1C38                                                u4170 1B0E  
                                              u4090 1994                                                u4410 13B8  
                                              u4330 1140                                                u4251 1C34  
                                              u4171 1B0A                                                u4091 1990  
                                              u4411 13B4                                                u4331 113C  
                                              u4180 1B20                                                u4420 1400  
                                              u4340 12BA                                                u4260 1076  
                                              u4500 2A26                                                u4181 1B1C  
                                              u4421 13FC                                                u4261 1072  
                                              u4501 2A22                                                u4190 1B4E  
                                              u4430 142E                                                u4350 1314  
                                              u4270 1088                                                u4510 2A36  
                                              u4191 1B4A                                                u4431 142A  
                                              u4351 1310                                                u4271 1084  
                                              u4511 2A32                                                u4440 1468  
                                              u4360 1334                                                u4280 1098  
                                              u4600 2356                                                u4520 21D6  
                                              u4441 1464                                                u4361 1330  
                                              u4345 12B0                                                u4281 1094  
                                              u4601 2352                                                u4521 21D2  
                                              u4370 1346                                                u4290 10D8  
                                              u4450 2968                                                u4610 2364  
                                              u4530 21E4                                                u3810 352E  
                                              u4371 1342                                                u4291 10D4  
                                              u4451 2964                                                u4611 2360  
                                              u4531 21E0                                                u3811 352A  
                                              u4380 1374                                                u4460 299C  
                                              u4540 2240                                                u4700 2872  
                                              u3820 2F10                                                u3900 2CA4  
                                              u4620 324A                                                u4381 1370  
                                              u4541 223C                                                u4701 286E  
                                              u3821 2F0C                                                u3901 2CA0  
                                              u4621 3246                                                u4390 138A  
                                              u4470 29CA                                                u4550 2296  
                                              u4710 28A0                                                u3830 2F2E  
                                              u3910 2CD6                                                u4391 1386  
                                              u4471 29C6                                                u4551 2292  
                                              u4711 289C                                                u3831 2F2A  
                                              u3911 2CD2                                                u4480 29DE  
                                              u4560 22E0                                                u3840 2F4A  
                                              u4481 29DA                                                u4465 2992  
                                              u4561 22DC                                                u3841 2F46  
                                              u4490 2A06                                                u4570 22FE  
                                              u3930 34DA                                                u3850 3068  
                                              u4491 2A02                                                u4571 22FA  
                                              u3931 34D6                                                u3851 3064  
                                              u4580 230E                                                u4660 30E0  
                                              u3940 34BC                                                u3860 3086  
                                              u4581 230A                                                u3941 34B8  
                                              u3861 3082                                                u4725 2056  
                                              u4590 231C                                                u4670 310C  
                                              u3870 309C                                                u3950 2552  
                                              u4591 2318                                                u4807 2DF6  
                                              u3871 3098                                                u3951 254E  
                                              u4680 311C                                                u3880 2C6E  
                                              u3960 2592                                                u4817 2E0E  
                                              u4681 3118                                                u3881 2C6A  
                                              u3961 258E                                                u4737 2010  
                                              i2l34 3278                                                u3890 2C7E  
                                              u3970 2616                                                u4827 2E26  
                                              u4667 30D6                                                u3891 2C7A  
                                              u3971 2612                                                u4747 214C  
                                              u3980 2626                                                i2l37 3298  
                                              u4837 2E3E                                                u4677 3102  
                                              u3981 2622                                                u4757 218A  
                                              u3990 265E                                                u4695 2848  
                                              u4847 2E56                                                u3991 265A  
                                              u4767 21AA                                                u4857 2E6E  
                                              u4777 2F98                                                u4867 2EAC  
                                              u4787 2FD4                                                u4877 2EE8  
                                              u4797 2DDE                                                u4887 2938  
                                              u4897 319E                                                _TMR1 0FCE  
                                              _WPUB 0F7C                                   MCP23S09_Write@reg 006E  
                                              _dbuf 0100                                                _main 1FE6  
                                              _prec 00C6                                                fsr0h 0FEA  
                                              fsr1h 0FE2                                  i2___lwdiv@quotient 0006  
                                              indf0 0FEF                                                fsr2h 0FDA  
                                              fsr0l 0FE9                                                indf2 0FDF  
                                              fsr1l 0FE1                                                fsr2l 0FD9  
                                              btemp 005E                                        main@adcValue 012C  
                         ?_INT2_SetInterruptHandler 006C                                                prodh 0FF4  
                                              prodl 0FF3                                                start 0072  
                _EUSART_DefaultOverrunErrorCallback 0000                                        i2___fltol@f1 0041  
                                   ___fldiv@new_exp 008B                                     __end_ofi2_fputc 2DD2  
                                   __end_ofi2_putch 35A2                                       _LCD_WriteChar 2F6A  
                                      ___param_bank 0000                                               ??_ISR 0060  
                                        i2_vfprintf 32DA                                    __end_of_LCD_Init 2E7A  
                              _lastTime@heart$F1512 00CC                                       ?_EUSART_Write 0001  
                                        _Heart_Init 3546                                       ___fltol@sign1 00B4  
                                             ?_main 0001                                     __end_of___fldiv 1C4C  
                                   __end_of___flmul 1486                                     __end_of___fltol 2A58  
                                             _T1CON 0FCD                                     __end_of___lwdiv 2F6A  
                                   __end_of___lwmod 30BA                                               i2l321 3402  
                                             i2l317 33D0                                               i2l361 2C5A  
                                             i2l366 003E                                               i2l448 3210  
                                             i2l298 359C                                               i2l775 2B5C  
                                             i2l976 3052                                               i2l969 304A  
                                             i2l986 3180                                               i2l979 3178  
                                             _RCREG 0FAE                                               _RCSTA 0FAB  
                                             _UART1 1001                                        vfpfcnvrt@fmt 0075  
                                             _TMR0H 0FD7                                               _TMR0L 0FD6  
                                             _SPBRG 0FAF                               ??_Timer0_UserCallback 004B  
                                             _TRISA 0F92                                               _TRISB 0F93  
                                             _TRISC 0F94                                               _TRISD 0F95  
                                             _TRISE 0F96                                               _TXREG 0FAD  
                                             _TXSTA 0FAC                                  MCP23S09_Write@data 006D  
                                             _flags 005D                                               _fputc 2C5C  
                                     i2___fldiv@grs 0022                                       i2___fldiv@rem 001B  
                                             _width 00C4                                               _putch 359E  
                                  __end_of_SPI_Init 3564                            _INT1_SetInterruptHandler 3578  
                                             pclath 0FFA                                               pclatu 0FFB  
                                             tablat 0FF5                                               ttemp5 005F  
                                             ttemp6 0062                                               ttemp7 0066  
                                             status 0FD8                                               wtemp8 005F  
                                   __end_of_sprintf 32DA                                       i2___flmul@grs 0035  
                                    ?_LCD_WriteChar 0001                                     __initialization 3460  
                                      __end_of_main 21C0                          Timer0_SetCallback@callback 006C  
                                    ??_EUSART_Write 0001                                         i2_vfpfcnvrt 26B0  
                                     i2vfpfcnvrt@ap 000B                                       i2vfpfcnvrt@cp 0011  
                                     i2vfpfcnvrt@fp 0009                                              ??_main 00C1  
                                     __activetblptr 0003                                          i2sprintf@f 001D  
                                        i2sprintf@s 0017                                     _bpm@heart$F1514 00C8  
                                       ?i2___xxtofl 0001  EUSART_OverrunErrorCallbackRegister@callbackHandler 006C  
EUSART_FramingErrorCallbackRegister@callbackHandler 006C                                              _ADCON0 0FC2  
                                            _ADCON1 0FC1                                              _ADCON2 0FC0  
                        _EUSART_OverrunErrorHandler 00D6                                              ?_fputc 006C  
                                            _ADRESH 0FC4                                              _ADRESL 0FC3  
                             __end_of_MCP23S09_Init 3460                                              ?_putch 0001  
                                            _ANSELH 0F7F                                  _EUSART_WriteString 33CC  
                                            i2l1101 17B8                                              i2l1102 17A6  
                                            i2l1200 3318                                              i2l1060 1FE4  
                                            i2l1140 2466                                              i2l1212 2DD0  
                                            i2l1109 1870                                              i2l1133 23CE  
                                            i2l1062 1E44                                              i2l1071 1E8A  
                                            i2l1223 35A0                                              i2l1136 252A  
                                            i2l3001 1F74                                              i2l1073 1F02  
                                            i2l1065 1E08                                              i2l1074 1EF0  
                                            i2l3011 1FD2                                              i2l3003 1F8A  
                                            i2l1147 24C2                                              i2l1092 154A  
                                            i2l1156 3390                                              i2l3013 1FD8  
                                            i2l3005 1FA4                                              i2l3101 16FA  
                                            i2l3015 1FDA                                              i2l3007 1FC0  
                                            i2l3111 1750                                              i2l3103 1708  
                                            i2l3031 14B2                                              i2l3023 1486  
                                            i2l1096 18AE                                              i2l3009 1FC4  
                                            i2l3113 175E                                              i2l3105 1726  
                                            i2l3041 14EE                                              i2l3033 14C2  
                                            i2l3025 1492                                              i2l1193 282A  
                                            i2l3123 17C8                                              i2l3131 1810  
                                            i2l3115 1762                                              i2l1099 1740  
                                            i2l3107 1730                                              i2l3051 1524  
                                            i2l3043 14F4                                              i2l3035 14D2  
                                            i2l3027 14A0                                              i2l3141 1884  
                                            i2l3133 182A                                              i2l3125 17D4  
                                            i2l3117 1770                                              i2l3109 173E  
                                            i2l3053 1534                                              i2l3045 1502  
                                            i2l3037 14D8                                              i2l3029 14A2  
                                            i2l3143 1892                                              i2l3135 183E  
                                            i2l3127 17E2                                              i2l3119 179E  
                                            i2l3071 15B6                                              i2l3063 157E  
                                            i2l3055 153A                                              i2l3047 1504  
                                            i2l3039 14E8                                              i2l4031 32DA  
                                            i2l3145 1894                                              i2l3137 1858  
                                            i2l3129 180C                                              i2l3081 1600  
                                            i2l3073 15CE                                              i2l3065 158A  
                                            i2l3057 155A                                              i2l3049 1514  
                                            i2l3161 23F4                                              i2l3153 237A  
                                            i2l4033 32E2                                              i2l4121 3372  
                                            i2l3139 1874                                              i2l3147 189A  
                                            i2l3091 1656                                              i2l3083 1610  
                                            i2l3075 15DA                                              i2l3067 1594  
                                            i2l3059 156A                                              i2l3171 244E  
                                            i2l3155 238A                                              i2l4035 32F2  
                                            i2l4123 3382                                              i2l4115 3356  
                                            i2l3149 189E                                              i2l3093 1672  
                                            i2l3085 161C                                              i2l3077 15E6  
                                            i2l3069 15AA                                              i2l3181 24B2  
                                            i2l3173 2450                                              i2l3165 2408  
                                            i2l3157 2398                                              i2l4037 3310  
                                            i2l4117 3362                                              i2l3095 167E  
                                            i2l3087 162C                                              i2l3079 15F4  
                                            i2l3191 250A                                              i2l3183 24D0  
                                            i2l3175 245C                                              i2l3167 2410  
                                            i2l3159 23DE                                              i2l4119 336A  
                                            i2l3097 169A                                              i2l3089 1646  
                                            i2l3193 2518                                              i2l3185 24D2  
                                            i2l3177 2498                                              i2l3169 241C  
                                            i2l3099 16C4                                              i2l3195 251A  
                                            i2l3187 24D6                                              i2l3179 24A4  
                                            i2l2901 1CA2                                              i2l3189 24FA  
                                            i2l4181 2B7E                                              i2l2831 326A  
                                            i2l2911 1CCE                                              i2l2903 1CB2  
                                            i2l4191 2C3A                                              i2l4183 2B8C  
                                            i2l4175 2B5E                                              i2l2681 3598  
                                            i2l2761 33CC                                              i2l2833 326C  
                                            i2l2913 1CDE                                              i2l2921 1D08  
                                            i2l2905 1CB8                                              i2l2841 2A58  
                                            i2l4193 2C42                                              i2l4185 2BAC  
                                            i2l4177 2B62                                              i2l2763 33DE  
                                            i2l2835 3276                                              i2l2931 1D4A  
                                            i2l2923 1D18                                              i2l2915 1CEE  
                                            i2l2907 1CBE                                              i2l2851 2AAE  
                                            i2l2843 2A6E                                              i2l4187 2C22  
                                            i2l4179 2B76                                              i2l2765 33EA  
                                            i2l2837 3286                                              i2l2829 3258  
                                            i2l2925 1D2E                                              i2l2917 1CFE  
                                            i2l2909 1CCC                                              i2l2853 2ABE  
                                            i2l3901 311E                                              i2l4189 2C26  
                                            i2l4621 31F8                                              i2l4613 31CC  
                                            i2l2767 33EC                                              i2l2951 1DCC  
                                            i2l2943 1D82                                              i2l2927 1D3E  
                                            i2l2935 1D5E                                              i2l2919 1D00  
                                            i2l2863 2AE8                                              i2l2855 2AC2  
                                            i2l2847 2A82                                              i2l3911 3164  
                                            i2l3903 3130                                              i2l4615 31DA  
                                            i2l2961 1E12                                              i2l2953 1DD4  
                                            i2l2945 1D9C                                              i2l2937 1D6E  
                                            i2l2929 1D46                                              i2l2881 2B4C  
                                            i2l2873 2B10                                              i2l2865 2AF2  
                                            i2l2857 2AD0                                              i2l2849 2AAC  
                                            i2l3913 316C                                              i2l3905 3138  
                                            i2l3921 2D38                                              i2l4617 31DC  
                                            i2l2971 1E6A                                              i2l2963 1E30  
                                            i2l2955 1DE4                                              i2l2947 1DAC  
                                            i2l2939 1D6E                                              i2l2891 1C68  
                                            i2l2875 2B1C                                              i2l2867 2AFC  
                                            i2l3915 3172                                              i2l3907 3140  
                                            i2l3923 2D42                                              i2l3931 26B0  
                                            i2l4619 31E4                                              i2l2981 1EA8  
                                            i2l2973 1E70                                              i2l2965 1E32  
                                            i2l2957 1DF8                                              i2l2949 1DBC  
                                            i2l2893 1C78                                              i2l2885 1C4C  
                                            i2l2877 2B2C                                              i2l3909 314E  
                                            i2l3925 2D5E                                              i2l3917 2D18  
                                            i2l3941 26F8                                              i2l3933 26D4  
                                            i2l2991 1F12                                              i2l2983 1EAC  
                                            i2l2975 1E7A                                              i2l2967 1E42  
                                            i2l2959 1E06                                              i2l2895 1C88  
                                            i2l2887 1C58                                              i2l2879 2B3C  
                                            i2l3927 2D90                                              i2l3919 2D28  
                                            i2l3951 2768                                              i2l3943 2716  
                                            i2l3935 26DC                                              i2l2993 1F1E  
                                            i2l2985 1EBA                                              i2l2977 1E88  
                                            i2l2969 1E54                                              i2l2897 1C98  
                                            i2l2889 1C66                                              i2l3881 2FE8  
                                            i2l3961 27CA                                              i2l3953 2784  
                                            i2l3945 272E                                              i2l3937 26EA  
                                            i2l2995 1F2C                                              i2l2987 1EE8  
                                            i2l2979 1E9A                                              i2l2899 1C9A  
                                            i2l3891 301E                                              i2l3883 2FFA  
                                            i2l3955 2796                                              i2l3947 273C  
                                            i2l3939 26EE                                              i2l3971 2806  
                                            i2l2997 1F56                                              i2l3893 3034  
                                            i2l3885 3002                                              i2l3957 27AA  
                                            i2l3949 2740                                              i2l3965 27E0  
                                            i2l2999 1F5A                                              i2l3895 303C  
                                            i2l3887 300A                                              i2l3879 2FE0  
                                            i2l3959 27C8                                              i2l3967 27FA  
                                            i2l3897 303E                                              i2l3889 3018  
                                            i2l4697 003A                                              i2l3899 3044  
                                         ??i2_fputc 0004                                              _OSCCON 0FD3  
                                         ??i2_putch 0001                                              _TMR1IF 7CF0  
                                            _SPBRGH 0FB0                                              _SSPBUF 0FC9  
                                  __end_of___xxtofl 2378                                 ?_EUSART_WriteString 0002  
                                        _Timer0_ISR 31CC                                        vfprintf@cfmt 0081  
                                     i2vfprintf@fmt 0014                                           ??___fldiv 0082  
                                         ??___flmul 009B                                           ??___fltol 00B0  
                                         ??___lwdiv 0070                                           ??___lwmod 0070  
                                       ?i2_vfprintf 0013                                         ?_Heart_Init 0001  
                                            clear_0 3466                                              clear_1 3472  
                                    i2___fldiv@aexp 0027                                      i2___fldiv@bexp 0026  
                                            isa$std 0001                                      i2___fldiv@sign 001F  
                                 ?_CLOCK_Initialize 0001                                   __end_of_SPI_Write 3530  
                                            fputc@c 006C                        _INT2_DefaultInterruptHandler 0000  
                              ??_EUSART_WriteString 0003                                   __end_ofi2___fldiv 1FE6  
                                 __end_ofi2___flmul 18B0                                  ??_CLOCK_Initialize 006C  
                                 __end_ofi2___fltol 2B5E                                   __end_ofi2___lwdiv 3054  
                                      __mediumconst 0000                                   __end_ofi2___lwmod 3182  
                                            tblptrh 0FF7                                              tblptrl 0FF6  
                                            tblptru 0FF8                            ADC_GetConversion@channel 0070  
                                            putch@c 0001                                    __end_of_vfprintf 3256  
          INT2_SetInterruptHandler@InterruptHandler 006C            INT1_SetInterruptHandler@InterruptHandler 006C  
          INT0_SetInterruptHandler@InterruptHandler 006C                                           ??_sprintf 0087  
                                    i2___flmul@aexp 0039                                      i2___flmul@bexp 003A  
                            Timer0_UserCallback@res 0056                              Timer0_UserCallback@str 004E  
                                    i2___flmul@sign 0034                                      i2___flmul@temp 003F  
                                    i2___flmul@prod 003B                                        ___xxtofl@arg 0076  
                                      ___xxtofl@exp 0075                                   _SYSTEM_Initialize 3530  
                                      ___xxtofl@val 006C                                          __accesstop 0060  
                           __end_of__initialization 347E                                      i2___fltol@exp1 004A  
                                         ?_LCD_Init 0001                                     ??_LCD_WriteChar 006F  
                                ?_SYSTEM_Initialize 0001                                       ___rparam_used 0001  
                                        ___fltol@f1 00AC                                   __end_ofi2_sprintf 3392  
                                     __end_of_UART1 1031                                  i2___lwmod@dividend 0001  
                                    __pcstackCOMRAM 0001                                 ??_SYSTEM_Initialize 006E  
                                   _LCD_WriteString 30BA                                       __end_of_fputc 2D18  
                                     __end_of_putch 35A0                                           ?_SPI_Init 0001  
                                     _Calculate_bpm 282C                                      _MCP23S09_Write 3488  
                  __end_of_INT2_SetInterruptHandler 3578                                      i2vfpfcnvrt@fmt 000A  
                                           ??_fputc 006F                           __end_of_SYSTEM_Initialize 3546  
                                           ??_putch 006C                                          __pbssBANK0 00C4  
                                        __pbssBANK1 0100                                         i2sprintf@ap 001C  
                              __end_of_EUSART_Write 359E                                          ??_LCD_Init 0071  
                             _INT0_InterruptHandler 00E0                                     _Timer0_Callback 00CE  
                                       ?_Timer0_ISR 0001                                _EUSART_AutoBaudQuery 0000  
                                           _BAUDCON 0FB8                                          ??_SPI_Init 006C  
                            __end_of_MCP23S09_Write 34A8                                      ?_Calculate_bpm 00B6  
                                   _EUSART_IsTxDone 0000                          ??_INT1_SetInterruptHandler 006E  
                                         ?___xxtofl 006C                                     _EUSART_ErrorGet 0000  
                                           _OSCTUNE 0F9B                                             _SSPCON1 0FC6  
                                           _SSPSTAT 0FC7                                             i2_fputc 2D18  
                                           i2_putch 35A0                           ?_INT0_SetInterruptHandler 006C  
                           __end_of_LCD_WriteString 311E                                             __Hparam 0000  
                                     SPI_Write@data 006C                                             __Lparam 0000  
                                 LCD_WriteChar@data 0070                                             ___fldiv 18B0  
                                           ___flmul 105A                                             ___fltol 2950  
                                 _Timer0_Initialize 34E4                                             ___lwdiv 2EF4  
                                           ___lwmod 3054                                           ?_vfprintf 007E  
                                    i2vfprintf@cfmt 0016                                        __psmallconst 1000  
                       __end_of_Timer0_UserCallback 2C5C                                        ?i2_vfpfcnvrt 0009  
                                           __pcinit 3460                                  ?_Timer0_Initialize 0001  
                                           __ramtop 1000                                             __ptext0 1FE6  
                                           __ptext1 329A                                             __ptext2 3212  
                                           __ptext3 252C                                             __ptext4 2C5C  
                                           __ptext5 359E                                             __ptext6 3054  
                                           __ptext7 2EF4                                             __ptext8 3564  
                                           __ptext9 34E4                                           _T0CONbits 0FD5  
                                   ?_MCP23S09_Write 006D                                        ??i2___xxtofl 0005  
                                        ??___xxtofl 0070                            ??_PIN_MANAGER_Initialize 006C  
                               ??_Timer0_Initialize 006C                                             main@bpm 0132  
                                           _sprintf 329A                                             main@res 012E  
                                           main@str 0120                                end_of_initialization 347E  
                          _INT2_SetInterruptHandler 356E                                             fputc@fp 006E  
                                    LCD_Command@cmd 0070                                      i2___xxtofl@arg 000B  
                                    i2___xxtofl@exp 000A                                      i2___xxtofl@val 0001  
                                 _EUSART_Initialize 331A                           __end_of_Timer0_Initialize 3500  
                                ?_EUSART_Initialize 0001                                   __end_of_vfpfcnvrt 26B0  
                                         _RCSTAbits 0FAB                                  __end_ofi2___xxtofl 252C  
                                           postdec2 0FDD                                             postinc0 0FEE  
                                           postinc1 0FE6                                             postinc2 0FDE  
                                  vfpfcnvrt@convarg 0078                                        ??i2_vfprintf 0016  
                                        ??_vfprintf 0081                                        ??_Heart_Init 006C  
                                   ??_Calculate_bpm 00B8                                 ??_EUSART_Initialize 006E  
                             _INT1_InterruptHandler 00DE                             Timer0_UserCallback@temp 0058  
                                     ___xxtofl@sign 0074                                           _TRISCbits 0F94  
                                         _TRISDbits 0F95                                 i2_ADC_GetConversion 3256  
                                       ___fldiv@grs 008D                                         ___fldiv@rem 0086  
                                   i2___fltol@sign1 0049                                           _SPI_Write 3518  
                               _EUSART_Deinitialize 0000                                           i2___fldiv 1C4C  
                                         i2___flmul 1486                                           i2___fltol 2A58  
                                 i2___lwdiv@divisor 0003                                           i2___lwdiv 2FE0  
                                         i2___lwmod 311E                                   i2___lwdiv@counter 0005  
                                       ___flmul@grs 00A1                           __end_of_EUSART_Initialize 3356  
                                __end_ofi2_vfprintf 331A                                          main@bpmstr 0126  
                                __end_of_Heart_Init 3556                                           _TXSTAbits 0FAC  
                                  ?_LCD_WriteString 0071                                ?i2_ADC_GetConversion 0001  
                                         i2_sprintf 3356                        __end_of_INTERRUPT_Initialize 33CC  
                                     ??_LCD_Command 006F                        _INT0_DefaultInterruptHandler 0000  
                                       vfpfcnvrt@ap 0076                                         vfpfcnvrt@cp 007C  
                                       vfpfcnvrt@fp 0074                                         _BAUDCONbits 0FB8  
                                      _EUSART_Write 3596                                      _ADC_Initialize 3500  
                                         i2fputc@fp 0003                          __end_of_Timer0_SetCallback 356E  
                             Calculate_bpm@adcValue 00BB                                 start_initialization 3460  
                                       __end_of_ISR 0072                                          ?_SPI_Write 0001  
                                        ?i2___fldiv 000F                                          ?i2___flmul 0028  
                                        ?i2___fltol 0041                                        i2vfpfcnvrt@c 0012  
                                        ?i2___lwdiv 0001                                          ?i2___lwmod 0001  
                             __end_of_LCD_WriteChar 2FE0                                        ??_Timer0_ISR 005B  
                             ??i2_ADC_GetConversion 0003                                         vfprintf@fmt 007F  
                                      i2vfprintf@ap 0015                                        i2vfprintf@fp 0013  
                        _EUSART_FramingErrorHandler 00D8                                          ?i2_sprintf 0017  
                            __end_of_ADC_Initialize 3518                                           ___fldiv@a 007E  
                                         ___fldiv@b 007A                                 __end_of_LCD_Command 2EF4  
                                      i2sprintf@fmt 0019                                           ___flmul@a 0097  
                                         ___flmul@b 0093                                         __pbssCOMRAM 005B  
                  __end_of_INT0_SetInterruptHandler 358C                                       __pcstackBANK0 0060  
                                     __pcstackBANK1 0120                                   i2___lwmod@divisor 0003  
                                 i2___lwmod@counter 0005                                  __end_of_Timer0_ISR 3212  
                                     _MCP23S09_Init 3434                                            ?i2_fputc 0001  
                                          ?i2_putch 0001                               _INT2_InterruptHandler 00DC  
                     Timer0_UserCallback@temp_uint8 005A                                   Calculate_bpm@res1 00BD  
                                  ___lwdiv@dividend 006C                              _PIN_MANAGER_Initialize 3404  
                       Timer0_UserCallback@adcValue 0054                                           __pintcode 0008  
                                          ?___fldiv 007A                                    ??_MCP23S09_Write 006E  
                                          ?___flmul 0093                                            ?___fltol 00AC  
                                          ?___lwdiv 006C                                            ?___lwmod 006C  
                                   ?_ADC_Initialize 0001                                         __smallconst 1000  
                        ??_INT2_SetInterruptHandler 006E                              _EUSART_TransmitDisable 0000  
                                       ??_SPI_Write 006C                                    ___lwdiv@quotient 0071  
                                       ??i2___fldiv 0017                                            ?_sprintf 0082  
                                       ??i2___flmul 0030                                         ??i2___fltol 0045  
                                    ?_MCP23S09_Init 0001                                         ??i2___lwdiv 0005  
                                       ??i2___lwmod 0005                                    _EUSART_IsRxReady 0000  
                              _INTERRUPT_Initialize 3392                                    _EUSART_IsTxReady 0000  
                                  _CLOCK_Initialize 358C                                            _LCD_Init 2DD2  
                                          _LATDbits 0F8C                           ?_INT1_SetInterruptHandler 006C  
                                 _eusartRxLastError 00DA                                            i2u221_40 3286  
                                          i2u221_41 3282                                            i2u214_40 33DE  
                                          i2u230_40 1C78                                            i2u222_40 2A6E  
                                          i2u214_41 33DA                                            i2u230_41 1C74  
                                          i2u222_41 2A6A                                            i2u215_40 3402  
                                          i2u231_40 1C88                                            i2u223_40 2AA2  
                                          i2u215_41 33FE                                            i2u231_41 1C84  
                                          i2u223_45 2A98                                            i2u240_40 1E54  
                                          i2u232_40 1CCC                                            i2u224_40 2AD0  
                                          i2u240_41 1E50                                            i2u232_41 1CC8  
                                          i2u224_41 2ACC                                            i2u241_40 1E6A  
                                          i2u233_40 1CDE                                            i2u225_40 2AE4  
                                          i2u401_40 2B76                                            i2u241_41 1E66  
                                          i2u233_41 1CDA                                            i2u225_41 2AE0  
                                          i2u401_41 2B72                                            i2u250_40 1FA4  
                                          i2u242_40 1E88                                            i2u234_40 1CEE  
                                          i2u226_40 2B0C                                            i2u250_41 1FA0  
                                          i2u242_41 1E84                                            i2u234_41 1CEA  
                                          i2u226_41 2B08                                            i2u402_45 2B98  
                                          i2u251_40 1FD2                                            i2u243_40 1EA8  
                                          i2u235_40 1D2E                                            i2u227_40 2B2C  
                                          i2u251_41 1FCE                                            i2u243_41 1EA4  
                                          i2u235_41 1D2A                                            i2u227_41 2B28  
                                          i2u244_40 1EBA                                            i2u236_40 1D6E  
                                          i2u260_40 16E4                                            i2u252_40 14A0  
                                          i2u228_40 2B3C                                            i2u244_41 1EB6  
                                          i2u236_41 1D6A                                            i2u252_41 149C  
                                          i2u228_41 2B38                                            i2u260_45 16DA  
                                          i2u245_40 1EE8                                            i2u237_40 1DE4  
                                          i2u229_40 1C66                                            i2u261_40 173E  
                                          i2u253_40 14B2                                            i2u245_41 1EE4  
                                          i2u237_41 1DE0                                            i2u229_41 1C62  
                                          i2u261_41 173A                                            i2u253_41 14AE  
                                          i2u246_40 1EFE                                            i2u238_40 1E06  
                                          i2u270_40 1892                                            i2u262_40 175E  
                                          i2u254_40 14C2                                            i2u246_41 1EFA  
                                          i2u238_41 1E02                                            i2u270_41 188E  
                                          i2u262_41 175A                                            i2u254_41 14BE  
                                          i2u247_40 1F12                                            i2u239_40 1E30  
                                          i2u263_40 1770                                            i2u255_40 1502  
                                          i2u271_40 238A                                            i2u247_41 1F0E  
                                          i2u239_41 1E2C                                            i2u263_41 176C  
                                          i2u255_41 14FE                                            i2u271_41 2386  
                                          i2u248_40 1F2C                                            i2u264_40 179E  
                                          i2u256_40 1514                                            i2u280_40 2518  
                                          i2u272_40 2398                                            i2u248_41 1F28  
                                          i2u264_41 179A                                            i2u256_41 1510  
                                          i2u280_41 2514                                            i2u272_41 2394  
                                          i2u249_40 1F74                                            i2u265_40 17B4  
                                          i2u257_40 1524                                            i2u273_40 23F4  
                                          i2u249_41 1F70                                            i2u265_41 17B0  
                                          i2u257_41 1520                                            i2u273_41 23F0  
                                          _PIR1bits 0F9E                                            i2u266_40 17C8  
                                          i2u258_40 155A                                            i2u274_40 244A  
                                          i2u370_40 314E                                            i2u266_41 17C4  
                                          i2u258_41 1556                                            i2u274_41 2446  
                                          i2u370_41 314A                                            i2u267_40 17E2  
                                          i2u259_40 156A                                            i2u275_40 2494  
                                          i2u371_40 3164                                            i2u267_41 17DE  
                                          i2u259_41 1566                                            i2u275_41 2490  
                                          i2u371_41 3160                                            i2u268_40 182A  
                                          i2u276_40 24B2                                            i2u372_40 2D28  
                                          i2u380_40 27DC                                            i2u268_41 1826  
                                          i2u276_41 24AE                                            i2u372_41 2D24  
                                          i2u380_41 27D8                                            i2u269_40 1858  
                                          i2u277_40 24C2                                            i2u373_40 2D38  
                                          i2u269_41 1854                                            i2u277_41 24BE  
                                          i2u373_41 2D34                                            i2u278_40 24D0  
                                          i2u366_40 2FFA                                            i2u374_40 2D5E  
                                          i2u278_41 24CC                                            i2u366_41 2FF6  
                                          i2u374_41 2D5A                                            i2u279_40 250A  
                                          i2u367_40 3018                                            i2u375_40 2D90  
                                          i2u463_40 31DA                                            i2u279_41 2506  
                                          i2u367_41 3014                                            i2u375_41 2D8C  
                                          i2u463_41 31D6                                            i2u368_40 3034  
                                          i2u376_40 26D4                                            i2u392_40 3310  
                                          i2u464_40 31F8                                            i2u368_41 3030  
                                          i2u376_41 26D0                                            i2u392_41 330C  
                                          i2u464_41 31F4                                            i2u369_40 3130  
                                          i2u377_40 2716                                            i2u369_41 312C  
                                          i2u377_41 2712                                            i2u378_40 2796  
                                          i2u465_48 31FE                                            i2u378_41 2792  
                                          i2u465_49 3210                                            i2u490_47 2C4C  
                                          i2u379_40 27A6                                            i2u379_41 27A2  
                                          i2u491_47 326E                                            _RCONbits 0FD0  
                                 i2___fldiv@new_exp 0020                                         ??i2_sprintf 001C  
                                       _LCD_Command 2E7A                                           _vfpfcnvrt 252C  
                                          _SPI_Init 3556                                          _ADCON0bits 0FC2  
                                       _EUSART_Read 0000                                          vfpfcnvrt@c 007D  
                                       _INTCON2bits 0FF1                                         _INTCON3bits 0FF0  
                                          i2fputc@c 0001                               ?_INTERRUPT_Initialize 0001  
                          _INT0_SetInterruptHandler 3582                                            __Hrparam 0000  
                                        vfprintf@ap 0080                                            __Lrparam 0000  
                                        vfprintf@fp 007E                                   _ADC_GetConversion 3182  
                                ?_ADC_GetConversion 006C                                          ?_vfpfcnvrt 0074  
                             __end_of_Calculate_bpm 2950                                  i2vfpfcnvrt@convarg 000D  
                               ??_ADC_GetConversion 006E                                          sprintf@fmt 0084  
                                       _currentTime 00D2                                            ___xxtofl 21C0  
                                   ___lwdiv@divisor 006E                                     ??_MCP23S09_Init 006F  
                                _EUSART_AutoBaudSet 0000                                     ___lwdiv@counter 0070  
                                          __ptext10 3530                                            __ptext11 3404  
                                          __ptext20 3500                                            __ptext12 3392  
                                          __ptext21 30BA                                            __ptext13 356E  
                                          __ptext30 282C                                            __ptext22 2F6A  
                                          __ptext14 3578                                            __ptext31 21C0  
                                          __ptext23 2DD2                                            __ptext15 3582  
                                          __ptext40 32DA                                            __ptext32 2950  
                                          __ptext24 3434                                            __ptext16 331A  
                                          __ptext41 26B0                                            __ptext33 105A  
                                          __ptext25 3556                                            __ptext17 34A8  
                                          __ptext50 3256                                            __ptext42 2D18  
                                          __ptext34 18B0                                            __ptext26 2E7A  
                                          __ptext18 34C6                                            __ptext51 33CC  
                                          __ptext43 35A0                                            __ptext35 3182  
                                          __ptext27 3488                                            __ptext19 358C  
                                          __ptext52 3596                                            __ptext44 311E  
                                          __ptext28 3518                                            __ptext45 2FE0  
                                          __ptext37 31CC                                            __ptext29 3546  
                                          __ptext46 2378                                            __ptext38 2B5E  
                                          __ptext47 2A58                                            __ptext39 3356  
                                          __ptext48 1486                                            __ptext49 1C4C  
                             _EUSART_TransmitEnable 0000                                  _Timer0_SetCallback 3564  
                                          _lastTime 00D4                           __end_of_ADC_GetConversion 31CC  
                               ?_Timer0_SetCallback 006C                                            isa$xinst 0000  
                                          int$flags 005E                                            _vfprintf 3212  
       __end_of_EUSART_FramingErrorCallbackRegister 34E4               ??_EUSART_FramingErrorCallbackRegister 006E  
              ?_EUSART_FramingErrorCallbackRegister 006C                 _EUSART_FramingErrorCallbackRegister 34C6  
                                          main@temp 0130                        _INT1_DefaultInterruptHandler 0000  
                        __end_of_EUSART_WriteString 3404                                      _overflow_count 005B  
                                        _INTCONbits 0FF2                                ??_Timer0_SetCallback 006E  
                            ??_INTERRUPT_Initialize 006E                                            intlevel2 0000  
                                         sprintf@ap 0087                         __end_ofi2_ADC_GetConversion 329A  
                                   i2___xxtofl@sign 0009                                    ___lwmod@dividend 006C  
                           ?_PIN_MANAGER_Initialize 0001                  _EUSART_DefaultFramingErrorCallback 0000  
                                  ??_ADC_Initialize 006C                                       ??i2_vfpfcnvrt 000C  
                                       ??_vfpfcnvrt 0077                         Calculate_bpm@timeDifference 00BF  
                          __end_of_CLOCK_Initialize 3596                                            sprintf@f 0088  
                                          sprintf@s 0082                                     ___lwmod@divisor 006E  
                           _currentTime@heart$F1513 00CA                                     ___lwmod@counter 0070  
                  __end_of_INT1_SetInterruptHandler 3582                          i2ADC_GetConversion@channel 0005  
                                EUSART_Write@txData 0001                      __end_of_PIN_MANAGER_Initialize 3434  
                               _Timer0_UserCallback 2B5E  
