

Microchip MPLAB XC8 Assembler V2.46 build 20240104201356 
                                                                                               Sat Jul 06 18:43:05 2024

Microchip MPLAB XC8 C Compiler v2.46 (Free license) build 20240104201356 Og1 
     1                           	processor	18F46K20
     2                           	fnconf	rparam,??,?,0
     3                           	pagewidth 120
     4                           	opt	flic
     5                           	psect	smallconst,global,reloc=2,class=SMALLCONST,delta=1,noexec
     6                           	psect	cinit,global,reloc=2,class=CODE,delta=1
     7                           	psect	bssCOMRAM,global,class=COMRAM,space=1,delta=1,lowdata,noexec
     8                           	psect	bssBANK0,global,class=BANK0,space=1,delta=1,lowdata,noexec
     9                           	psect	cstackCOMRAM,global,class=COMRAM,space=1,delta=1,lowdata,noexec
    10                           	psect	text0,global,reloc=2,class=CODE,delta=1
    11                           	psect	text1,global,reloc=2,class=CODE,delta=1,group=3
    12                           	psect	text2,global,reloc=2,class=CODE,delta=1,group=1
    13                           	psect	text3,global,reloc=2,class=CODE,delta=1,group=1
    14                           	psect	text4,global,reloc=2,class=CODE,delta=1,group=3
    15                           	psect	text5,global,reloc=2,class=CODE,delta=1,group=3
    16                           	psect	text6,global,reloc=2,class=CODE,delta=1,group=2
    17                           	psect	text7,global,reloc=2,class=CODE,delta=1,group=2
    18                           	psect	text8,global,reloc=2,class=CODE,delta=1,group=2
    19                           	psect	text9,global,reloc=2,class=CODE,delta=1,group=2
    20                           	psect	text10,global,reloc=2,class=CODE,delta=1,group=2
    21                           	psect	text11,global,reloc=2,class=CODE,delta=1,group=2
    22                           	psect	text12,global,reloc=2,class=CODE,delta=1
    23                           	psect	text13,global,reloc=2,class=CODE,delta=1
    24                           	psect	text14,global,reloc=2,class=CODE,delta=1
    25                           	psect	text15,global,reloc=2,class=CODE,delta=1
    26                           	psect	text16,global,reloc=2,class=CODE,delta=1
    27                           	psect	text17,global,reloc=2,class=CODE,delta=1
    28                           	psect	text18,global,reloc=2,class=CODE,delta=1
    29                           	psect	text19,global,reloc=2,class=CODE,delta=1
    30                           	psect	text20,global,reloc=2,class=CODE,delta=1
    31                           	psect	text21,global,reloc=2,class=CODE,delta=1
    32                           	psect	text22,global,reloc=2,class=CODE,delta=1
    33                           	psect	text23,global,reloc=2,class=CODE,delta=1
    34                           	psect	text24,global,reloc=2,class=CODE,delta=1
    35                           	psect	text25,global,reloc=2,class=CODE,delta=1
    36                           	psect	text26,global,reloc=2,class=CODE,delta=1
    37                           	psect	text27,global,reloc=2,class=CODE,delta=1
    38                           	psect	text28,global,reloc=2,class=CODE,delta=1
    39                           	psect	text29,global,reloc=2,class=CODE,delta=1
    40                           	psect	text30,global,reloc=2,class=CODE,delta=1
    41                           	psect	text31,global,reloc=2,class=CODE,delta=1
    42                           	psect	intsave_regs,global,class=BIGRAM,space=1,delta=1,noexec
    43                           	psect	rparam,global,class=COMRAM,space=1,delta=1,noexec
    44                           	psect	config,global,abs,ovrld,class=CONFIG,space=4,delta=1,noexec
    45   000000                     
    46                           ; Generated 12/10/2023 GMT
    47                           ; 
    48                           ; Copyright © 2023, Microchip Technology Inc. and its subsidiaries ("Microchip")
    49                           ; All rights reserved.
    50                           ; 
    51                           ; This software is developed by Microchip Technology Inc. and its subsidiaries ("Microch
      +                          ip").
    52                           ; 
    53                           ; Redistribution and use in source and binary forms, with or without modification, are
    54                           ; permitted provided that the following conditions are met:
    55                           ; 
    56                           ;     1. Redistributions of source code must retain the above copyright notice, this lis
      +                          t of
    57                           ;        conditions and the following disclaimer.
    58                           ; 
    59                           ;     2. Redistributions in binary form must reproduce the above copyright notice, this 
      +                          list
    60                           ;        of conditions and the following disclaimer in the documentation and/or other
    61                           ;        materials provided with the distribution. Publication is not required when
    62                           ;        this file is used in an embedded application.
    63                           ; 
    64                           ;     3. Microchip's name may not be used to endorse or promote products derived from th
      +                          is
    65                           ;        software without specific prior written permission.
    66                           ; 
    67                           ; THIS SOFTWARE IS PROVIDED BY MICROCHIP "AS IS" AND ANY EXPRESS OR IMPLIED WARRANTIES,
    68                           ; INCLUDING, BUT NOT LIMITED TO, THE IMPLIED WARRANTIES OF MERCHANTABILITY AND FITNESS F
      +                          OR
    69                           ; PURPOSE ARE DISCLAIMED.  IN NO EVENT SHALL MICROCHIP BE LIABLE FOR ANY DIRECT, INDIREC
      +                          T,
    70                           ; INCIDENTAL, SPECIAL, EXEMPLARY, OR CONSEQUENTIAL DAMAGES (INCLUDING BUT NOT LIMITED TO
    71                           ; PROCUREMENT OF SUBSTITUTE GOODS OR SERVICES; LOSS OF USE, DATA OR PROFITS; OR BUSINESS
    72                           ; INTERRUPTION) HOWSOEVER CAUSED AND ON ANY THEORY OF LIABILITY, WHETHER IN CONTRACT, ST
      +                          RICT
    73                           ; LIABILITY, OR TORT (INCLUDING NEGLIGENCE OR OTHERWISE) ARISING IN ANY WAY OUT OF THE U
      +                          SE OF
    74                           ; THIS SOFTWARE, EVEN IF ADVISED OF THE POSSIBILITY OF SUCH DAMAGE.
    75                           ; 
    76                           ; 
    77                           ; Code-generator required, PIC18F46K20 Definitions
    78                           ; 
    79                           ; SFR Addresses
    80   000000                     
    81 ;; Function _INT0_DefaultInterruptHandler is unused but had its address taken
    82   000000                     
    83 ;; Function _INT1_DefaultInterruptHandler is unused but had its address taken
    84   000000                     
    85 ;; Function _INT2_DefaultInterruptHandler is unused but had its address taken
    86   000000                     
    87 ;; Function _EUSART_Deinitialize is unused but had its address taken
    88   000000                     
    89 ;; Function _EUSART_TransmitEnable is unused but had its address taken
    90   000000                     
    91 ;; Function _EUSART_TransmitDisable is unused but had its address taken
    92   000000                     
    93 ;; Function _EUSART_AutoBaudSet is unused but had its address taken
    94   000000                     
    95 ;; Function _EUSART_AutoBaudQuery is unused but had its address taken
    96   000000                     
    97 ;; Function _EUSART_IsRxReady is unused but had its address taken
    98   000000                     
    99 ;; Function _EUSART_IsTxReady is unused but had its address taken
   100   000000                     
   101 ;; Function _EUSART_IsTxDone is unused but had its address taken
   102   000000                     
   103 ;; Function _EUSART_ErrorGet is unused but had its address taken
   104   000000                     
   105 ;; Function _EUSART_Read is unused but had its address taken
   106   000000                     
   107 ;; Function _EUSART_Write is unused but had its address taken
   108   000000                     
   109 ;; Function _EUSART_DefaultFramingErrorCallback is unused but had its address taken
   110   000000                     
   111 ;; Function _EUSART_DefaultOverrunErrorCallback is unused but had its address taken
   112   000000                     
   113                           	psect	smallconst
   114   001000                     __psmallconst:
   115                           	callstack 0
   116   001000  00                 	db	0
   117   001001                     _UART1:
   118                           	callstack 0
   119   001001  70                 	db	low _EUSART_Initialize
   120   001002  21                 	db	high _EUSART_Initialize
   121   001003  00                 	db	0
   122   001004  00                 	db	0
   123   001005  00                 	db	0
   124   001006  00                 	db	0
   125   001007  00                 	db	0
   126   001008  00                 	db	0
   127   001009  00                 	db	0
   128   00100A  00                 	db	0
   129   00100B  00                 	db	0
   130   00100C  00                 	db	0
   131   00100D  00                 	db	0
   132   00100E  00                 	db	0
   133   00100F  00                 	db	0
   134   001010  00                 	db	0
   135   001011  00                 	db	0
   136   001012  00                 	db	0
   137   001013  00                 	db	0
   138   001014  00                 	db	0
   139   001015  00                 	db	0
   140   001016  00                 	db	0
   141   001017  00                 	db	0
   142   001018  00                 	db	0
   143   001019  00                 	db	0
   144   00101A  00                 	db	0
   145   00101B  00                 	db	0
   146   00101C  00                 	db	0
   147   00101D  00                 	db	0
   148   00101E  00                 	db	0
   149   00101F  00                 	db	0
   150   001020  00                 	db	0
   151   001021  00                 	db	0
   152   001022  00                 	db	0
   153   001023  00                 	db	0
   154   001024  00                 	db	0
   155   001025  00                 	db	0
   156   001026  00                 	db	0
   157   001027  00                 	db	0
   158   001028  00                 	db	0
   159   001029  9E                 	db	low _EUSART_FramingErrorCallbackRegister
   160   00102A  22                 	db	high _EUSART_FramingErrorCallbackRegister
   161   00102B  82                 	db	low _EUSART_OverrunErrorCallbackRegister
   162   00102C  22                 	db	high _EUSART_OverrunErrorCallbackRegister
   163   00102D  00                 	db	0
   164   00102E  00                 	db	0
   165   00102F  00                 	db	0
   166   001030  00                 	db	0
   167   001031                     __end_of_UART1:
   168                           	callstack 0
   169   000000                     _TXREG	set	4013
   170   000000                     _RCREG	set	4014
   171   000000                     _SPBRG	set	4015
   172   000000                     _TXSTA	set	4012
   173   000000                     _ADCON0	set	4034
   174   000000                     _ADRESL	set	4035
   175   000000                     _BAUDCONbits	set	4024
   176   000000                     _TXSTAbits	set	4012
   177   000000                     _RCSTAbits	set	4011
   178   000000                     _LATDbits	set	3980
   179   000000                     _TRISDbits	set	3989
   180   000000                     _SSPSTATbits	set	4039
   181   000000                     _TRISCbits	set	3988
   182   000000                     _ADCON0bits	set	4034
   183   000000                     _WPUB	set	3964
   184   000000                     _ANSELH	set	3967
   185   000000                     _LATA	set	3977
   186   000000                     _PIR1bits	set	3998
   187   000000                     _ADCON2	set	4032
   188   000000                     _ADCON1	set	4033
   189   000000                     _SSPCON1	set	4038
   190   000000                     _RCONbits	set	4048
   191   000000                     _INTCONbits	set	4082
   192   000000                     _ADRESH	set	4036
   193   000000                     _RCSTA	set	4011
   194   000000                     _BAUDCON	set	4024
   195   000000                     _TRISA	set	3986
   196   000000                     _LATE	set	3981
   197   000000                     _LATD	set	3980
   198   000000                     _LATC	set	3979
   199   000000                     _LATB	set	3978
   200   000000                     _OSCTUNE	set	3995
   201   000000                     _TRISE	set	3990
   202   000000                     _TRISD	set	3989
   203   000000                     _TRISC	set	3988
   204   000000                     _TRISB	set	3987
   205   000000                     _IOCB	set	3965
   206   000000                     _OSCCON	set	4051
   207   000000                     _INTCON3bits	set	4080
   208   000000                     _INTCON2bits	set	4081
   209   000000                     _SSPBUF	set	4041
   210   000000                     _SSPSTAT	set	4039
   211   000000                     _SPBRGH	set	4016
   212   001031                     STR_1:
   213   001031  4D                 	db	77	;'M'
   214   001032  6F                 	db	111	;'o'
   215   001033  6E                 	db	110	;'n'
   216   001034  69                 	db	105	;'i'
   217   001035  74                 	db	116	;'t'
   218   001036  6F                 	db	111	;'o'
   219   001037  72                 	db	114	;'r'
   220   001038  20                 	db	32
   221   001039  53                 	db	83	;'S'
   222   00103A  74                 	db	116	;'t'
   223   00103B  61                 	db	97	;'a'
   224   00103C  72                 	db	114	;'r'
   225   00103D  74                 	db	116	;'t'
   226   00103E  00                 	db	0
   227   00103F                     STR_3:
   228   00103F  54                 	db	84	;'T'
   229   001040  20                 	db	32
   230   001041  3A                 	db	58	;':'
   231   001042  20                 	db	32
   232   001043  00                 	db	0
   233   001044                     STR_2:
   234   001044  25                 	db	37
   235   001045  75                 	db	117	;'u'
   236   001046  00                 	db	0
   237   001047  00                 	db	0	; dummy byte at the end
   238   000000                     
   239                           ; #config settings
   240                           
   241                           	psect	cinit
   242   002266                     __pcinit:
   243                           	callstack 0
   244   002266                     start_initialization:
   245                           	callstack 0
   246   002266                     __initialization:
   247                           	callstack 0
   248                           
   249                           ; Clear objects allocated to BANK0 (44 bytes)
   250   002266  EE00  F060         	lfsr	0,__pbssBANK0
   251   00226A  0E2C               	movlw	44
   252   00226C                     clear_0:
   253   00226C  6AEE               	clrf	postinc0,c
   254   00226E  06E8               	decf	wreg,f,c
   255   002270  E1FD               	bnz	clear_0
   256                           
   257                           ; Clear objects allocated to COMRAM (5 bytes)
   258   002272  6A5E               	clrf	(__pbssCOMRAM+4)& (0+255),c
   259   002274  6A5D               	clrf	(__pbssCOMRAM+3)& (0+255),c
   260   002276  6A5C               	clrf	(__pbssCOMRAM+2)& (0+255),c
   261   002278  6A5B               	clrf	(__pbssCOMRAM+1)& (0+255),c
   262   00227A  6A5A               	clrf	__pbssCOMRAM& (0+255),c
   263   00227C                     end_of_initialization:
   264                           	callstack 0
   265   00227C                     __end_of__initialization:
   266                           	callstack 0
   267   00227C  0100               	movlb	0
   268   00227E  EF9A  F00D         	goto	_main	;jump to C main() function
   269                           
   270                           	psect	bssCOMRAM
   271   00005A                     __pbssCOMRAM:
   272                           	callstack 0
   273   00005A                     _INT1_InterruptHandler:
   274                           	callstack 0
   275   00005A                     	ds	2
   276   00005C                     _INT0_InterruptHandler:
   277                           	callstack 0
   278   00005C                     	ds	2
   279   00005E                     _flags:
   280                           	callstack 0
   281   00005E                     	ds	1
   282                           
   283                           	psect	bssBANK0
   284   000060                     __pbssBANK0:
   285                           	callstack 0
   286   000060                     _dbuf:
   287                           	callstack 0
   288   000060                     	ds	32
   289   000080                     _width:
   290                           	callstack 0
   291   000080                     	ds	2
   292   000082                     _prec:
   293                           	callstack 0
   294   000082                     	ds	2
   295   000084                     _EUSART_OverrunErrorHandler:
   296                           	callstack 0
   297   000084                     	ds	2
   298   000086                     _EUSART_FramingErrorHandler:
   299                           	callstack 0
   300   000086                     	ds	2
   301   000088                     _eusartRxLastError:
   302                           	callstack 0
   303   000088                     	ds	2
   304   00008A                     _INT2_InterruptHandler:
   305                           	callstack 0
   306   00008A                     	ds	2
   307                           
   308                           	psect	cstackCOMRAM
   309   000001                     __pcstackCOMRAM:
   310                           	callstack 0
   311   000001                     ?_ADC_GetConversion:
   312                           	callstack 0
   313   000001                     ?___lwdiv:
   314                           	callstack 0
   315   000001                     ?___lwmod:
   316                           	callstack 0
   317   000001                     ?___xxtofl:
   318                           	callstack 0
   319   000001                     SPI_Write@data:
   320                           	callstack 0
   321   000001                     INT0_SetInterruptHandler@InterruptHandler:
   322                           	callstack 0
   323   000001                     INT1_SetInterruptHandler@InterruptHandler:
   324                           	callstack 0
   325   000001                     INT2_SetInterruptHandler@InterruptHandler:
   326                           	callstack 0
   327   000001                     EUSART_FramingErrorCallbackRegister@callbackHandler:
   328                           	callstack 0
   329   000001                     EUSART_OverrunErrorCallbackRegister@callbackHandler:
   330                           	callstack 0
   331   000001                     ___lwdiv@dividend:
   332                           	callstack 0
   333   000001                     ___lwmod@dividend:
   334                           	callstack 0
   335   000001                     fputc@c:
   336                           	callstack 0
   337   000001                     ___xxtofl@val:
   338                           	callstack 0
   339                           
   340                           ; 4 bytes @ 0x0
   341   000001                     	ds	1
   342   000002                     MCP23S09_Write@data:
   343                           	callstack 0
   344                           
   345                           ; 1 bytes @ 0x1
   346   000002                     	ds	1
   347   000003                     ??_ADC_GetConversion:
   348   000003                     MCP23S09_Write@reg:
   349                           	callstack 0
   350   000003                     fputc@fp:
   351                           	callstack 0
   352   000003                     ___lwdiv@divisor:
   353                           	callstack 0
   354   000003                     ___lwmod@divisor:
   355                           	callstack 0
   356                           
   357                           ; 2 bytes @ 0x2
   358   000003                     	ds	1
   359   000004                     ??_LCD_Command:
   360   000004                     ??_fputc:
   361   000004                     ??_LCD_WriteChar:
   362                           
   363                           ; 1 bytes @ 0x3
   364   000004                     	ds	1
   365   000005                     ??___xxtofl:
   366   000005                     ADC_GetConversion@channel:
   367                           	callstack 0
   368   000005                     LCD_Command@cmd:
   369                           	callstack 0
   370   000005                     LCD_WriteChar@data:
   371                           	callstack 0
   372   000005                     ___lwmod@counter:
   373                           	callstack 0
   374   000005                     ___lwdiv@quotient:
   375                           	callstack 0
   376                           
   377                           ; 2 bytes @ 0x4
   378   000005                     	ds	1
   379   000006                     ??_LCD_Init:
   380   000006                     LCD_WriteString@str:
   381                           	callstack 0
   382                           
   383                           ; 2 bytes @ 0x5
   384   000006                     	ds	1
   385   000007                     ___lwdiv@counter:
   386                           	callstack 0
   387                           
   388                           ; 1 bytes @ 0x6
   389   000007                     	ds	1
   390   000008                     
   391                           ; 1 bytes @ 0x7
   392   000008                     	ds	1
   393   000009                     ___xxtofl@sign:
   394                           	callstack 0
   395   000009                     vfpfcnvrt@fp:
   396                           	callstack 0
   397                           
   398                           ; 1 bytes @ 0x8
   399   000009                     	ds	1
   400   00000A                     ___xxtofl@exp:
   401                           	callstack 0
   402   00000A                     vfpfcnvrt@fmt:
   403                           	callstack 0
   404                           
   405                           ; 1 bytes @ 0x9
   406   00000A                     	ds	1
   407   00000B                     vfpfcnvrt@ap:
   408                           	callstack 0
   409   00000B                     ___xxtofl@arg:
   410                           	callstack 0
   411                           
   412                           ; 4 bytes @ 0xA
   413   00000B                     	ds	1
   414   00000C                     ??_vfpfcnvrt:
   415                           
   416                           ; 1 bytes @ 0xB
   417   00000C                     	ds	1
   418   00000D                     vfpfcnvrt@convarg:
   419                           	callstack 0
   420                           
   421                           ; 4 bytes @ 0xC
   422   00000D                     	ds	2
   423   00000F                     ?___fldiv:
   424                           	callstack 0
   425   00000F                     ___fldiv@b:
   426                           	callstack 0
   427                           
   428                           ; 4 bytes @ 0xE
   429   00000F                     	ds	2
   430   000011                     vfpfcnvrt@cp:
   431                           	callstack 0
   432                           
   433                           ; 1 bytes @ 0x10
   434   000011                     	ds	1
   435   000012                     vfpfcnvrt@c:
   436                           	callstack 0
   437                           
   438                           ; 1 bytes @ 0x11
   439   000012                     	ds	1
   440   000013                     ?_vfprintf:
   441                           	callstack 0
   442   000013                     vfprintf@fp:
   443                           	callstack 0
   444   000013                     ___fldiv@a:
   445                           	callstack 0
   446                           
   447                           ; 4 bytes @ 0x12
   448   000013                     	ds	1
   449   000014                     vfprintf@fmt:
   450                           	callstack 0
   451                           
   452                           ; 1 bytes @ 0x13
   453   000014                     	ds	1
   454   000015                     vfprintf@ap:
   455                           	callstack 0
   456                           
   457                           ; 1 bytes @ 0x14
   458   000015                     	ds	1
   459   000016                     vfprintf@cfmt:
   460                           	callstack 0
   461                           
   462                           ; 1 bytes @ 0x15
   463   000016                     	ds	1
   464   000017                     ??___fldiv:
   465   000017                     ?_sprintf:
   466                           	callstack 0
   467   000017                     sprintf@s:
   468                           	callstack 0
   469                           
   470                           ; 1 bytes @ 0x16
   471   000017                     	ds	1
   472   000018                     sprintf@fmt:
   473                           	callstack 0
   474                           
   475                           ; 1 bytes @ 0x17
   476   000018                     	ds	3
   477   00001B                     sprintf@ap:
   478                           	callstack 0
   479   00001B                     ___fldiv@rem:
   480                           	callstack 0
   481                           
   482                           ; 4 bytes @ 0x1A
   483   00001B                     	ds	1
   484   00001C                     sprintf@f:
   485                           	callstack 0
   486                           
   487                           ; 12 bytes @ 0x1B
   488   00001C                     	ds	3
   489   00001F                     ___fldiv@sign:
   490                           	callstack 0
   491                           
   492                           ; 1 bytes @ 0x1E
   493   00001F                     	ds	1
   494   000020                     ___fldiv@new_exp:
   495                           	callstack 0
   496                           
   497                           ; 2 bytes @ 0x1F
   498   000020                     	ds	2
   499   000022                     ___fldiv@grs:
   500                           	callstack 0
   501                           
   502                           ; 4 bytes @ 0x21
   503   000022                     	ds	4
   504   000026                     ___fldiv@bexp:
   505                           	callstack 0
   506                           
   507                           ; 1 bytes @ 0x25
   508   000026                     	ds	1
   509   000027                     ___fldiv@aexp:
   510                           	callstack 0
   511                           
   512                           ; 1 bytes @ 0x26
   513   000027                     	ds	1
   514   000028                     ?___flmul:
   515                           	callstack 0
   516   000028                     ___flmul@b:
   517                           	callstack 0
   518                           
   519                           ; 4 bytes @ 0x27
   520   000028                     	ds	4
   521   00002C                     ___flmul@a:
   522                           	callstack 0
   523                           
   524                           ; 4 bytes @ 0x2B
   525   00002C                     	ds	4
   526   000030                     ??___flmul:
   527                           
   528                           ; 1 bytes @ 0x2F
   529   000030                     	ds	4
   530   000034                     ___flmul@sign:
   531                           	callstack 0
   532                           
   533                           ; 1 bytes @ 0x33
   534   000034                     	ds	1
   535   000035                     ___flmul@grs:
   536                           	callstack 0
   537                           
   538                           ; 4 bytes @ 0x34
   539   000035                     	ds	4
   540   000039                     ___flmul@aexp:
   541                           	callstack 0
   542                           
   543                           ; 1 bytes @ 0x38
   544   000039                     	ds	1
   545   00003A                     ___flmul@bexp:
   546                           	callstack 0
   547                           
   548                           ; 1 bytes @ 0x39
   549   00003A                     	ds	1
   550   00003B                     ___flmul@prod:
   551                           	callstack 0
   552                           
   553                           ; 4 bytes @ 0x3A
   554   00003B                     	ds	4
   555   00003F                     ___flmul@temp:
   556                           	callstack 0
   557                           
   558                           ; 2 bytes @ 0x3E
   559   00003F                     	ds	2
   560   000041                     ?___fltol:
   561                           	callstack 0
   562   000041                     ___fltol@f1:
   563                           	callstack 0
   564                           
   565                           ; 4 bytes @ 0x40
   566   000041                     	ds	4
   567   000045                     ??___fltol:
   568                           
   569                           ; 1 bytes @ 0x44
   570   000045                     	ds	4
   571   000049                     ___fltol@sign1:
   572                           	callstack 0
   573                           
   574                           ; 1 bytes @ 0x48
   575   000049                     	ds	1
   576   00004A                     ___fltol@exp1:
   577                           	callstack 0
   578                           
   579                           ; 1 bytes @ 0x49
   580   00004A                     	ds	1
   581   00004B                     ??_main:
   582                           
   583                           ; 1 bytes @ 0x4A
   584   00004B                     	ds	3
   585   00004E                     main@str:
   586                           	callstack 0
   587                           
   588                           ; 6 bytes @ 0x4D
   589   00004E                     	ds	6
   590   000054                     main@adcValue:
   591                           	callstack 0
   592                           
   593                           ; 2 bytes @ 0x53
   594   000054                     	ds	2
   595   000056                     main@res:
   596                           	callstack 0
   597                           
   598                           ; 2 bytes @ 0x55
   599   000056                     	ds	2
   600   000058                     main@temp:
   601                           	callstack 0
   602                           
   603                           ; 2 bytes @ 0x57
   604   000058                     	ds	2
   605                           
   606 ;;
   607 ;;Main: autosize = 0, tempsize = 3, incstack = 0, save=0
   608 ;;
   609 ;; *************** function _main *****************
   610 ;; Defined at:
   611 ;;		line 45 in file "main.c"
   612 ;; Parameters:    Size  Location     Type
   613 ;;		None
   614 ;; Auto vars:     Size  Location     Type
   615 ;;  temp            2   87[COMRAM] int 
   616 ;;  res             2   85[COMRAM] unsigned short 
   617 ;;  adcValue        2   83[COMRAM] unsigned short 
   618 ;;  str             6   77[COMRAM] unsigned char [6]
   619 ;; Return value:  Size  Location     Type
   620 ;;                  2  186[None  ] int 
   621 ;; Registers used:
   622 ;;		wreg, fsr0l, fsr0h, fsr1l, fsr1h, fsr2l, fsr2h, status,2, status,0, tblptrl, tblptrh, tblptru, prodl, prodh, cstack
   623 ;; Tracked objects:
   624 ;;		On entry : 0/0
   625 ;;		On exit  : 0/0
   626 ;;		Unchanged: 0/0
   627 ;; Data sizes:     COMRAM   BANK0   BANK1   BANK2   BANK3   BANK4   BANK5   BANK6   BANK7   BANK8   BANK9  BANK10  BANK1
      +1  BANK12  BANK13  BANK14  BANK15
   628 ;;      Params:         0       0       0       0       0       0       0       0       0       0       0       0       
      +0       0       0       0       0
   629 ;;      Locals:        12       0       0       0       0       0       0       0       0       0       0       0       
      +0       0       0       0       0
   630 ;;      Temps:          3       0       0       0       0       0       0       0       0       0       0       0       
      +0       0       0       0       0
   631 ;;      Totals:        15       0       0       0       0       0       0       0       0       0       0       0       
      +0       0       0       0       0
   632 ;;Total ram usage:       15 bytes
   633 ;; Hardware stack levels required when called: 5
   634 ;; This function calls:
   635 ;;		_ADC_GetConversion
   636 ;;		_LCD_Command
   637 ;;		_LCD_Init
   638 ;;		_LCD_WriteString
   639 ;;		_SYSTEM_Initialize
   640 ;;		___fldiv
   641 ;;		___flmul
   642 ;;		___fltol
   643 ;;		___xxtofl
   644 ;;		_sprintf
   645 ;; This function is called by:
   646 ;;		Startup code after reset
   647 ;; This function uses a non-reentrant model
   648 ;;
   649                           
   650                           	psect	text0
   651   001B34                     __ptext0:
   652                           	callstack 0
   653   001B34                     _main:
   654                           	callstack 26
   655   001B34                     
   656                           ;main.c: 47:     SYSTEM_Initialize();
   657   001B34  EC76  F011         	call	_SYSTEM_Initialize	;wreg free
   658                           
   659                           ;main.c: 66:    LCD_Init();
   660   001B38  EC17  F00F         	call	_LCD_Init	;wreg free
   661   001B3C                     
   662                           ;main.c: 68: LCD_WriteString("Monitor Start");
   663   001B3C  0E31               	movlw	low STR_1
   664   001B3E  6E06               	movwf	LCD_WriteString@str^0,c
   665   001B40  5006               	movf	LCD_WriteString@str^0,w,c
   666   001B42  A4D8               	btfss	status,2,c
   667   001B44  0E10               	movlw	high __smallconst
   668   001B46  6E07               	movwf	(LCD_WriteString@str+1)^0,c
   669   001B48  EC45  F010         	call	_LCD_WriteString	;wreg free
   670   001B4C                     
   671                           ;main.c: 69: _delay((unsigned long)((400)*(16000000/4000.0)));
   672   001B4C  0E09               	movlw	9
   673   001B4E  6E4C               	movwf	(??_main+1)^0,c
   674   001B50  0E1E               	movlw	30
   675   001B52  6E4B               	movwf	??_main^0,c
   676   001B54  0EE4               	movlw	228
   677   001B56                     u1897:
   678   001B56  2EE8               	decfsz	wreg,f,c
   679   001B58  D7FE               	bra	u1897
   680   001B5A  2E4B               	decfsz	??_main^0,f,c
   681   001B5C  D7FC               	bra	u1897
   682   001B5E  2E4C               	decfsz	(??_main+1)^0,f,c
   683   001B60  D7FA               	bra	u1897
   684   001B62  F000 F000          	nop2	
   685   001B66                     
   686                           ;main.c: 70:    LCD_Command(0x01);
   687   001B66  0E01               	movlw	1
   688   001B68  ECA5  F00F         	call	_LCD_Command
   689   001B6C                     l2530:
   690                           
   691                           ;main.c: 75:     {;main.c: 76:        adc_result_t adcValue = ADC_GetConversion(0);
   692   001B6C  0E00               	movlw	0
   693   001B6E  EC76  F010         	call	_ADC_GetConversion
   694   001B72  C001  F054         	movff	?_ADC_GetConversion,main@adcValue
   695   001B76  C002  F055         	movff	?_ADC_GetConversion+1,main@adcValue+1
   696   001B7A                     
   697                           ;main.c: 77:        uint16_t res =adcValue>>6;
   698   001B7A  C054  F04B         	movff	main@adcValue,??_main
   699   001B7E  C055  F04C         	movff	main@adcValue+1,??_main+1
   700   001B82  0E06               	movlw	6
   701   001B84  6E4D               	movwf	(??_main+2)^0,c
   702   001B86                     u1825:
   703   001B86  90D8               	bcf	status,0,c
   704   001B88  324C               	rrcf	(??_main+1)^0,f,c
   705   001B8A  324B               	rrcf	??_main^0,f,c
   706   001B8C  2E4D               	decfsz	(??_main+2)^0,f,c
   707   001B8E  EFC3  F00D         	goto	u1825
   708   001B92  C04B  F056         	movff	??_main,main@res
   709   001B96  C04C  F057         	movff	??_main+1,main@res+1
   710   001B9A                     
   711                           ;main.c: 78:        int temp = (int)((float)res / 1023.0 * 500);
   712   001B9A  0E00               	movlw	0
   713   001B9C  6E2C               	movwf	___flmul@a^0,c
   714   001B9E  0E00               	movlw	0
   715   001BA0  6E2D               	movwf	(___flmul@a+1)^0,c
   716   001BA2  0EFA               	movlw	250
   717   001BA4  6E2E               	movwf	(___flmul@a+2)^0,c
   718   001BA6  0E43               	movlw	67
   719   001BA8  6E2F               	movwf	(___flmul@a+3)^0,c
   720   001BAA  0E00               	movlw	0
   721   001BAC  6E13               	movwf	___fldiv@a^0,c
   722   001BAE  0EC0               	movlw	192
   723   001BB0  6E14               	movwf	(___fldiv@a+1)^0,c
   724   001BB2  0E7F               	movlw	127
   725   001BB4  6E15               	movwf	(___fldiv@a+2)^0,c
   726   001BB6  0E44               	movlw	68
   727   001BB8  6E16               	movwf	(___fldiv@a+3)^0,c
   728   001BBA  C056  F001         	movff	main@res,___xxtofl@val
   729   001BBE  C057  F002         	movff	main@res+1,___xxtofl@val+1
   730   001BC2  6A03               	clrf	(___xxtofl@val+2)^0,c
   731   001BC4  6A04               	clrf	(___xxtofl@val+3)^0,c
   732   001BC6  0E00               	movlw	0
   733   001BC8  EC06  F00C         	call	___xxtofl
   734   001BCC  C001  F00F         	movff	?___xxtofl,___fldiv@b
   735   001BD0  C002  F010         	movff	?___xxtofl+1,___fldiv@b+1
   736   001BD4  C003  F011         	movff	?___xxtofl+2,___fldiv@b+2
   737   001BD8  C004  F012         	movff	?___xxtofl+3,___fldiv@b+3
   738   001BDC  EC39  F00A         	call	___fldiv	;wreg free
   739   001BE0  C00F  F028         	movff	?___fldiv,___flmul@b
   740   001BE4  C010  F029         	movff	?___fldiv+1,___flmul@b+1
   741   001BE8  C011  F02A         	movff	?___fldiv+2,___flmul@b+2
   742   001BEC  C012  F02B         	movff	?___fldiv+3,___flmul@b+3
   743   001BF0  EC24  F008         	call	___flmul	;wreg free
   744   001BF4  C028  F041         	movff	?___flmul,___fltol@f1
   745   001BF8  C029  F042         	movff	?___flmul+1,___fltol@f1+1
   746   001BFC  C02A  F043         	movff	?___flmul+2,___fltol@f1+2
   747   001C00  C02B  F044         	movff	?___flmul+3,___fltol@f1+3
   748   001C04  EC3F  F00E         	call	___fltol	;wreg free
   749   001C08  C041  F058         	movff	?___fltol,main@temp
   750   001C0C  C042  F059         	movff	?___fltol+1,main@temp+1
   751   001C10                     
   752                           ;main.c: 82:         sprintf(str, "%u",temp);
   753   001C10  0E4E               	movlw	low main@str
   754   001C12  6E17               	movwf	sprintf@s^0,c
   755   001C14  0E44               	movlw	low STR_2
   756   001C16  6E18               	movwf	sprintf@fmt^0,c
   757   001C18  C058  F019         	movff	main@temp,?_sprintf+2
   758   001C1C  C059  F01A         	movff	main@temp+1,?_sprintf+3
   759   001C20  ECD4  F010         	call	_sprintf	;wreg free
   760   001C24                     
   761                           ;main.c: 85:         LCD_WriteString("T : ");
   762   001C24  0E3F               	movlw	low STR_3
   763   001C26  6E06               	movwf	LCD_WriteString@str^0,c
   764   001C28  5006               	movf	LCD_WriteString@str^0,w,c
   765   001C2A  A4D8               	btfss	status,2,c
   766   001C2C  0E10               	movlw	high __smallconst
   767   001C2E  6E07               	movwf	(LCD_WriteString@str+1)^0,c
   768   001C30  EC45  F010         	call	_LCD_WriteString	;wreg free
   769   001C34                     
   770                           ;main.c: 86:         LCD_WriteString(str);
   771   001C34  0E4E               	movlw	low main@str
   772   001C36  6E06               	movwf	LCD_WriteString@str^0,c
   773   001C38  6A07               	clrf	(LCD_WriteString@str+1)^0,c
   774   001C3A  EC45  F010         	call	_LCD_WriteString	;wreg free
   775   001C3E                     
   776                           ;main.c: 88:     _delay((unsigned long)((1000)*(16000000/4000.0)));
   777   001C3E  0E15               	movlw	21
   778   001C40  6E4C               	movwf	(??_main+1)^0,c
   779   001C42  0E4B               	movlw	75
   780   001C44  6E4B               	movwf	??_main^0,c
   781   001C46  0EBE               	movlw	190
   782   001C48                     u1907:
   783   001C48  2EE8               	decfsz	wreg,f,c
   784   001C4A  D7FE               	bra	u1907
   785   001C4C  2E4B               	decfsz	??_main^0,f,c
   786   001C4E  D7FC               	bra	u1907
   787   001C50  2E4C               	decfsz	(??_main+1)^0,f,c
   788   001C52  D7FA               	bra	u1907
   789   001C54  F000 F000          	nop2	
   790   001C58                     
   791                           ;main.c: 89:     LCD_Command(0x01);
   792   001C58  0E01               	movlw	1
   793   001C5A  ECA5  F00F         	call	_LCD_Command
   794   001C5E                     
   795                           ;main.c: 90:     _delay((unsigned long)((100)*(16000000/4000.0)));
   796   001C5E  0E03               	movlw	3
   797   001C60  6E4C               	movwf	(??_main+1)^0,c
   798   001C62  0E08               	movlw	8
   799   001C64  6E4B               	movwf	??_main^0,c
   800   001C66  0E77               	movlw	119
   801   001C68                     u1917:
   802   001C68  2EE8               	decfsz	wreg,f,c
   803   001C6A  D7FE               	bra	u1917
   804   001C6C  2E4B               	decfsz	??_main^0,f,c
   805   001C6E  D7FC               	bra	u1917
   806   001C70  2E4C               	decfsz	(??_main+1)^0,f,c
   807   001C72  D7FA               	bra	u1917
   808   001C74  0000               	nop	
   809   001C76  EFB6  F00D         	goto	l2530
   810   001C7A  EF00  F000         	goto	start
   811   001C7E                     __end_of_main:
   812                           	callstack 0
   813                           
   814 ;; *************** function _sprintf *****************
   815 ;; Defined at:
   816 ;;		line 9 in file "C:\Program Files\Microchip\xc8\v2.46\pic\sources\c99\common\nf_sprintf.c"
   817 ;; Parameters:    Size  Location     Type
   818 ;;  s               1   22[COMRAM] PTR unsigned char 
   819 ;;		 -> main@str(6), 
   820 ;;  fmt             1   23[COMRAM] PTR const unsigned char 
   821 ;;		 -> STR_2(3), 
   822 ;; Auto vars:     Size  Location     Type
   823 ;;  f              12   27[COMRAM] struct _IO_FILE
   824 ;;  ret             2    0        int 
   825 ;;  ap              1   26[COMRAM] PTR void [1]
   826 ;;		 -> ?_sprintf(2), 
   827 ;; Return value:  Size  Location     Type
   828 ;;                  2   22[COMRAM] int 
   829 ;; Registers used:
   830 ;;		wreg, fsr1l, fsr1h, fsr2l, fsr2h, status,2, status,0, tblptrl, tblptrh, tblptru, cstack
   831 ;; Tracked objects:
   832 ;;		On entry : 0/0
   833 ;;		On exit  : 0/0
   834 ;;		Unchanged: 0/0
   835 ;; Data sizes:     COMRAM   BANK0   BANK1   BANK2   BANK3   BANK4   BANK5   BANK6   BANK7   BANK8   BANK9  BANK10  BANK1
      +1  BANK12  BANK13  BANK14  BANK15
   836 ;;      Params:         4       0       0       0       0       0       0       0       0       0       0       0       
      +0       0       0       0       0
   837 ;;      Locals:        13       0       0       0       0       0       0       0       0       0       0       0       
      +0       0       0       0       0
   838 ;;      Temps:          0       0       0       0       0       0       0       0       0       0       0       0       
      +0       0       0       0       0
   839 ;;      Totals:        17       0       0       0       0       0       0       0       0       0       0       0       
      +0       0       0       0       0
   840 ;;Total ram usage:       17 bytes
   841 ;; Hardware stack levels used: 1
   842 ;; Hardware stack levels required when called: 4
   843 ;; This function calls:
   844 ;;		_vfprintf
   845 ;; This function is called by:
   846 ;;		_main
   847 ;; This function uses a non-reentrant model
   848 ;;
   849                           
   850                           	psect	text1
   851   0021A8                     __ptext1:
   852                           	callstack 0
   853   0021A8                     _sprintf:
   854                           	callstack 26
   855   0021A8  0E19               	movlw	low (?_sprintf+2)
   856   0021AA  6E1B               	movwf	sprintf@ap^0,c
   857   0021AC  C017  F01C         	movff	sprintf@s,sprintf@f
   858   0021B0  0E00               	movlw	0
   859   0021B2  6E20               	movwf	(sprintf@f+4)^0,c
   860   0021B4  0E00               	movlw	0
   861   0021B6  6E1F               	movwf	(sprintf@f+3)^0,c
   862   0021B8  0E00               	movlw	0
   863   0021BA  6E27               	movwf	(sprintf@f+11)^0,c
   864   0021BC  0E00               	movlw	0
   865   0021BE  6E26               	movwf	(sprintf@f+10)^0,c
   866   0021C0  0E1C               	movlw	low sprintf@f
   867   0021C2  6E13               	movwf	vfprintf@fp^0,c
   868   0021C4  C018  F014         	movff	sprintf@fmt,vfprintf@fmt
   869   0021C8  0E1B               	movlw	low sprintf@ap
   870   0021CA  6E15               	movwf	vfprintf@ap^0,c
   871   0021CC  EC98  F010         	call	_vfprintf	;wreg free
   872   0021D0  5017               	movf	sprintf@s^0,w,c
   873   0021D2  241F               	addwf	(sprintf@f+3)^0,w,c
   874   0021D4  6ED9               	movwf	fsr2l,c
   875   0021D6  6ADA               	clrf	fsr2h,c
   876   0021D8  6ADF               	clrf	indf2,c
   877   0021DA  0012               	return		;funcret
   878   0021DC                     __end_of_sprintf:
   879                           	callstack 0
   880                           
   881 ;; *************** function _vfprintf *****************
   882 ;; Defined at:
   883 ;;		line 1817 in file "C:\Program Files\Microchip\xc8\v2.46\pic\sources\c99\common\doprnt.c"
   884 ;; Parameters:    Size  Location     Type
   885 ;;  fp              1   18[COMRAM] PTR struct _IO_FILE
   886 ;;		 -> sprintf@f(12), 
   887 ;;  fmt             1   19[COMRAM] PTR const unsigned char 
   888 ;;		 -> STR_2(3), 
   889 ;;  ap              1   20[COMRAM] PTR PTR void 
   890 ;;		 -> sprintf@ap(1), 
   891 ;; Auto vars:     Size  Location     Type
   892 ;;  cfmt            1   21[COMRAM] PTR unsigned char 
   893 ;;		 -> STR_2(3), 
   894 ;; Return value:  Size  Location     Type
   895 ;;                  2   18[COMRAM] int 
   896 ;; Registers used:
   897 ;;		wreg, fsr1l, fsr1h, fsr2l, fsr2h, status,2, status,0, tblptrl, tblptrh, tblptru, cstack
   898 ;; Tracked objects:
   899 ;;		On entry : 0/0
   900 ;;		On exit  : 0/0
   901 ;;		Unchanged: 0/0
   902 ;; Data sizes:     COMRAM   BANK0   BANK1   BANK2   BANK3   BANK4   BANK5   BANK6   BANK7   BANK8   BANK9  BANK10  BANK1
      +1  BANK12  BANK13  BANK14  BANK15
   903 ;;      Params:         3       0       0       0       0       0       0       0       0       0       0       0       
      +0       0       0       0       0
   904 ;;      Locals:         1       0       0       0       0       0       0       0       0       0       0       0       
      +0       0       0       0       0
   905 ;;      Temps:          0       0       0       0       0       0       0       0       0       0       0       0       
      +0       0       0       0       0
   906 ;;      Totals:         4       0       0       0       0       0       0       0       0       0       0       0       
      +0       0       0       0       0
   907 ;;Total ram usage:        4 bytes
   908 ;; Hardware stack levels used: 1
   909 ;; Hardware stack levels required when called: 3
   910 ;; This function calls:
   911 ;;		_vfpfcnvrt
   912 ;; This function is called by:
   913 ;;		_sprintf
   914 ;; This function uses a non-reentrant model
   915 ;;
   916                           
   917                           	psect	text2
   918   002130                     __ptext2:
   919                           	callstack 0
   920   002130                     _vfprintf:
   921                           	callstack 26
   922   002130                     
   923                           ;C:\Program Files\Microchip\xc8\v2.46\pic\sources\c99\common\doprnt.c: 1817: int vfprint
      +                          f(FILE *fp, const char *fmt, va_list ap);C:\Program Files\Microchip\xc8\v2.46\pic\source
      +                          s\c99\common\doprnt.c: 1818: {;C:\Program Files\Microchip\xc8\v2.46\pic\sources\c99\comm
      +                          on\doprnt.c: 1820:     char *cfmt;;C:\Program Files\Microchip\xc8\v2.46\pic\sources\c99\
      +                          common\doprnt.c: 1822:     cfmt = (char *)fmt;
   924   002130  C014  F016         	movff	vfprintf@fmt,vfprintf@cfmt
   925                           
   926                           ;C:\Program Files\Microchip\xc8\v2.46\pic\sources\c99\common\doprnt.c: 1826:     while (
      +                          *cfmt) {
   927   002134  EFA4  F010         	goto	l2084
   928   002138                     l2082:
   929                           
   930                           ;C:\Program Files\Microchip\xc8\v2.46\pic\sources\c99\common\doprnt.c: 1830:    vfpfcnvr
      +                          t(fp, &cfmt, ap);
   931   002138  C013  F009         	movff	vfprintf@fp,vfpfcnvrt@fp
   932   00213C  0E16               	movlw	low vfprintf@cfmt
   933   00213E  6E0A               	movwf	vfpfcnvrt@fmt^0,c
   934   002140  C015  F00B         	movff	vfprintf@ap,vfpfcnvrt@ap
   935   002144  ECE0  F00C         	call	_vfpfcnvrt	;wreg free
   936   002148                     l2084:
   937                           
   938                           ;C:\Program Files\Microchip\xc8\v2.46\pic\sources\c99\common\doprnt.c: 1826:     while (
      +                          *cfmt) {
   939   002148  C016  FFF6         	movff	vfprintf@cfmt,tblptrl
   940   00214C                     	if	1	;There is more than 1 active tblptr byte
   941   00214C  0E10               	movlw	high __smallconst
   942   00214E  6EF7               	movwf	tblptrh,c
   943   002150                     	endif
   944   002150                     	if	1	;Program memory is < 0x10000, tblptru is always zero
   945   002150  6AF8               	clrf	tblptru,c
   946   002152                     	endif
   947   002152                     	if	0	;tblptru may be non-zero
   948   002152                     	endif
   949   002152  0008               	tblrd		*
   950   002154  50F5               	movf	tablat,w,c
   951   002156  0900               	iorlw	0
   952   002158  A4D8               	btfss	status,2,c
   953   00215A  EFB1  F010         	goto	u1161
   954   00215E  EFB3  F010         	goto	u1160
   955   002162                     u1161:
   956   002162  EF9C  F010         	goto	l2082
   957   002166                     u1160:
   958   002166                     
   959                           ;C:\Program Files\Microchip\xc8\v2.46\pic\sources\c99\common\doprnt.c: 1835:  return 0;
   960   002166  0E00               	movlw	0
   961   002168  6E14               	movwf	(?_vfprintf+1)^0,c
   962   00216A  0E00               	movlw	0
   963   00216C  6E13               	movwf	?_vfprintf^0,c
   964   00216E  0012               	return		;funcret
   965   002170                     __end_of_vfprintf:
   966                           	callstack 0
   967                           
   968 ;; *************** function _vfpfcnvrt *****************
   969 ;; Defined at:
   970 ;;		line 1177 in file "C:\Program Files\Microchip\xc8\v2.46\pic\sources\c99\common\doprnt.c"
   971 ;; Parameters:    Size  Location     Type
   972 ;;  fp              1    8[COMRAM] PTR struct _IO_FILE
   973 ;;		 -> sprintf@f(12), 
   974 ;;  fmt             1    9[COMRAM] PTR PTR unsigned char 
   975 ;;		 -> vfprintf@cfmt(1), 
   976 ;;  ap              1   10[COMRAM] PTR PTR void 
   977 ;;		 -> sprintf@ap(1), 
   978 ;; Auto vars:     Size  Location     Type
   979 ;;  convarg         4   12[COMRAM] struct .
   980 ;;  c               1   17[COMRAM] unsigned char 
   981 ;;  cp              1   16[COMRAM] PTR unsigned char 
   982 ;;		 -> STR_2(3), 
   983 ;;  done            1    0        _Bool 
   984 ;; Return value:  Size  Location     Type
   985 ;;                  1    wreg      void 
   986 ;; Registers used:
   987 ;;		wreg, fsr1l, fsr1h, fsr2l, fsr2h, status,2, status,0, tblptrl, tblptrh, tblptru, cstack
   988 ;; Tracked objects:
   989 ;;		On entry : 0/0
   990 ;;		On exit  : 0/0
   991 ;;		Unchanged: 0/0
   992 ;; Data sizes:     COMRAM   BANK0   BANK1   BANK2   BANK3   BANK4   BANK5   BANK6   BANK7   BANK8   BANK9  BANK10  BANK1
      +1  BANK12  BANK13  BANK14  BANK15
   993 ;;      Params:         3       0       0       0       0       0       0       0       0       0       0       0       
      +0       0       0       0       0
   994 ;;      Locals:         6       0       0       0       0       0       0       0       0       0       0       0       
      +0       0       0       0       0
   995 ;;      Temps:          1       0       0       0       0       0       0       0       0       0       0       0       
      +0       0       0       0       0
   996 ;;      Totals:        10       0       0       0       0       0       0       0       0       0       0       0       
      +0       0       0       0       0
   997 ;;Total ram usage:       10 bytes
   998 ;; Hardware stack levels used: 1
   999 ;; Hardware stack levels required when called: 2
  1000 ;; This function calls:
  1001 ;;		___lwdiv
  1002 ;;		___lwmod
  1003 ;;		_fputc
  1004 ;; This function is called by:
  1005 ;;		_vfprintf
  1006 ;; This function uses a non-reentrant model
  1007 ;;
  1008                           
  1009                           	psect	text3
  1010   0019C0                     __ptext3:
  1011                           	callstack 0
  1012   0019C0                     _vfpfcnvrt:
  1013                           	callstack 26
  1014   0019C0                     
  1015                           ;C:\Program Files\Microchip\xc8\v2.46\pic\sources\c99\common\doprnt.c: 1177: vfpfcnvrt(F
      +                          ILE *fp, char *fmt[], va_list ap);C:\Program Files\Microchip\xc8\v2.46\pic\sources\c99\c
      +                          ommon\doprnt.c: 1178: {;C:\Program Files\Microchip\xc8\v2.46\pic\sources\c99\common\dopr
      +                          nt.c: 1179:     char c, *cp;;C:\Program Files\Microchip\xc8\v2.46\pic\sources\c99\common
      +                          \doprnt.c: 1180:     _Bool done;;C:\Program Files\Microchip\xc8\v2.46\pic\sources\c99\co
      +                          mmon\doprnt.c: 1188:  } convarg;;C:\Program Files\Microchip\xc8\v2.46\pic\sources\c99\co
      +                          mmon\doprnt.c: 1201:     if ((*fmt)[0] == '%') {
  1016   0019C0  500A               	movf	vfpfcnvrt@fmt^0,w,c
  1017   0019C2  6ED9               	movwf	fsr2l,c
  1018   0019C4  6ADA               	clrf	fsr2h,c
  1019   0019C6  CFDF FFF6          	movff	indf2,tblptrl
  1020   0019CA                     	if	1	;There is more than 1 active tblptr byte
  1021   0019CA  0E10               	movlw	high __smallconst
  1022   0019CC  6EF7               	movwf	tblptrh,c
  1023   0019CE                     	endif
  1024   0019CE                     	if	1	;Program memory is < 0x10000, tblptru is always zero
  1025   0019CE  6AF8               	clrf	tblptru,c
  1026   0019D0                     	endif
  1027   0019D0                     	if	0	;tblptru may be non-zero
  1028   0019D0                     	endif
  1029   0019D0  0008               	tblrd		*
  1030   0019D2  50F5               	movf	tablat,w,c
  1031   0019D4  0A25               	xorlw	37
  1032   0019D6  A4D8               	btfss	status,2,c
  1033   0019D8  EFF0  F00C         	goto	u1111
  1034   0019DC  EFF2  F00C         	goto	u1110
  1035   0019E0                     u1111:
  1036   0019E0  EF87  F00D         	goto	l2024
  1037   0019E4                     u1110:
  1038   0019E4                     
  1039                           ;C:\Program Files\Microchip\xc8\v2.46\pic\sources\c99\common\doprnt.c: 1202:         ++*
      +                          fmt;
  1040   0019E4  500A               	movf	vfpfcnvrt@fmt^0,w,c
  1041   0019E6  6ED9               	movwf	fsr2l,c
  1042   0019E8  6ADA               	clrf	fsr2h,c
  1043   0019EA  2ADF               	incf	indf2,f,c
  1044   0019EC                     
  1045                           ;C:\Program Files\Microchip\xc8\v2.46\pic\sources\c99\common\doprnt.c: 1204:         fla
      +                          gs = width = 0;
  1046   0019EC  0E00               	movlw	0
  1047   0019EE  0100               	movlb	0	; () banked
  1048   0019F0  6F81               	movwf	(_width+1)& (0+255),b
  1049   0019F2  0E00               	movlw	0
  1050   0019F4  6F80               	movwf	_width& (0+255),b
  1051   0019F6  C080  F05E         	movff	_width,_flags
  1052   0019FA                     
  1053                           ; BSR set to: 0
  1054                           ;C:\Program Files\Microchip\xc8\v2.46\pic\sources\c99\common\doprnt.c: 1205:         pre
      +                          c = -1;
  1055   0019FA  6982               	setf	_prec& (0+255),b
  1056   0019FC  6983               	setf	(_prec+1)& (0+255),b
  1057   0019FE                     
  1058                           ; BSR set to: 0
  1059                           ;C:\Program Files\Microchip\xc8\v2.46\pic\sources\c99\common\doprnt.c: 1439:   if (0
  1060   0019FE  500A               	movf	vfpfcnvrt@fmt^0,w,c
  1061   001A00  6ED9               	movwf	fsr2l,c
  1062   001A02  6ADA               	clrf	fsr2h,c
  1063   001A04  50DF               	movf	indf2,w,c
  1064   001A06  6E11               	movwf	vfpfcnvrt@cp^0,c
  1065   001A08                     
  1066                           ; BSR set to: 0
  1067   001A08  C011  FFF6         	movff	vfpfcnvrt@cp,tblptrl
  1068   001A0C                     	if	1	;There is more than 1 active tblptr byte
  1069   001A0C  0E10               	movlw	high __smallconst
  1070   001A0E  6EF7               	movwf	tblptrh,c
  1071   001A10                     	endif
  1072   001A10                     	if	1	;Program memory is < 0x10000, tblptru is always zero
  1073   001A10  6AF8               	clrf	tblptru,c
  1074   001A12                     	endif
  1075   001A12                     	if	0	;tblptru may be non-zero
  1076   001A12                     	endif
  1077   001A12  0008               	tblrd		*
  1078   001A14  50F5               	movf	tablat,w,c
  1079   001A16  0A75               	xorlw	117
  1080   001A18  A4D8               	btfss	status,2,c
  1081   001A1A  EF11  F00D         	goto	u1121
  1082   001A1E  EF13  F00D         	goto	u1120
  1083   001A22                     u1121:
  1084   001A22  EF81  F00D         	goto	l2020
  1085   001A26                     u1120:
  1086   001A26                     
  1087                           ; BSR set to: 0
  1088                           ;C:\Program Files\Microchip\xc8\v2.46\pic\sources\c99\common\doprnt.c: 1452:     ) {;C:\
      +                          Program Files\Microchip\xc8\v2.46\pic\sources\c99\common\doprnt.c: 1495:    convarg.uint
      +                           = (vfpf_uint_t)(unsigned int)(*(unsigned int *)__va_arg(*(unsigned int **)ap, (unsigned
      +                           int)0));
  1089   001A26  500B               	movf	vfpfcnvrt@ap^0,w,c
  1090   001A28  6ED9               	movwf	fsr2l,c
  1091   001A2A  6ADA               	clrf	fsr2h,c
  1092   001A2C  0E02               	movlw	2
  1093   001A2E  26DF               	addwf	indf2,f,c
  1094   001A30  5CDF               	subwf	indf2,w,c
  1095   001A32  6ED9               	movwf	fsr2l,c
  1096   001A34  6ADA               	clrf	fsr2h,c
  1097   001A36  CFDE F00D          	movff	postinc2,vfpfcnvrt@convarg
  1098   001A3A  CFDE F00E          	movff	postinc2,vfpfcnvrt@convarg+1
  1099   001A3E                     
  1100                           ; BSR set to: 0
  1101                           ;C:\Program Files\Microchip\xc8\v2.46\pic\sources\c99\common\doprnt.c: 1497:    *fmt = c
      +                          p+1;
  1102   001A3E  500A               	movf	vfpfcnvrt@fmt^0,w,c
  1103   001A40  6ED9               	movwf	fsr2l,c
  1104   001A42  6ADA               	clrf	fsr2h,c
  1105   001A44  2811               	incf	vfpfcnvrt@cp^0,w,c
  1106   001A46  6EDF               	movwf	indf2,c
  1107                           
  1108                           ;C:\Program Files\Microchip\xc8\v2.46\pic\sources\c99\common\doprnt.c: 1498:    switch (
      +                          *cp) {
  1109   001A48  EF74  F00D         	goto	l2018
  1110   001A4C                     l2000:
  1111                           
  1112                           ; BSR set to: 0
  1113                           ;C:\Program Files\Microchip\xc8\v2.46\pic\sources\c99\common\doprnt.c: 1525:      c = si
      +                          zeof(dbuf);
  1114   001A4C  0E20               	movlw	32
  1115   001A4E  6E12               	movwf	vfpfcnvrt@c^0,c
  1116   001A50                     l2002:
  1117                           
  1118                           ;C:\Program Files\Microchip\xc8\v2.46\pic\sources\c99\common\doprnt.c: 1527:       dbuf[
      +                          --c] = (convarg.uint % 10) + '0';
  1119   001A50  0612               	decf	vfpfcnvrt@c^0,f,c
  1120   001A52  5012               	movf	vfpfcnvrt@c^0,w,c
  1121   001A54  0F60               	addlw	low _dbuf
  1122   001A56  6ED9               	movwf	fsr2l,c
  1123   001A58  6ADA               	clrf	fsr2h,c
  1124   001A5A  C00D  F001         	movff	vfpfcnvrt@convarg,___lwmod@dividend
  1125   001A5E  C00E  F002         	movff	vfpfcnvrt@convarg+1,___lwmod@dividend+1
  1126   001A62  0E00               	movlw	0
  1127   001A64  6E04               	movwf	(___lwmod@divisor+1)^0,c
  1128   001A66  0E0A               	movlw	10
  1129   001A68  6E03               	movwf	___lwmod@divisor^0,c
  1130   001A6A  EC13  F010         	call	___lwmod	;wreg free
  1131   001A6E  5001               	movf	?___lwmod^0,w,c
  1132   001A70  0F30               	addlw	48
  1133   001A72  6EDF               	movwf	indf2,c
  1134   001A74                     
  1135                           ;C:\Program Files\Microchip\xc8\v2.46\pic\sources\c99\common\doprnt.c: 1528:       conva
      +                          rg.uint /= 10;
  1136   001A74  C00D  F001         	movff	vfpfcnvrt@convarg,___lwdiv@dividend
  1137   001A78  C00E  F002         	movff	vfpfcnvrt@convarg+1,___lwdiv@dividend+1
  1138   001A7C  0E00               	movlw	0
  1139   001A7E  6E04               	movwf	(___lwdiv@divisor+1)^0,c
  1140   001A80  0E0A               	movlw	10
  1141   001A82  6E03               	movwf	___lwdiv@divisor^0,c
  1142   001A84  EC6B  F00F         	call	___lwdiv	;wreg free
  1143   001A88  C001  F00D         	movff	?___lwdiv,vfpfcnvrt@convarg
  1144   001A8C  C002  F00E         	movff	?___lwdiv+1,vfpfcnvrt@convarg+1
  1145   001A90                     
  1146                           ;C:\Program Files\Microchip\xc8\v2.46\pic\sources\c99\common\doprnt.c: 1532:      } whil
      +                          e (convarg.uint != 0 && c != 0);
  1147   001A90  500D               	movf	vfpfcnvrt@convarg^0,w,c
  1148   001A92  100E               	iorwf	(vfpfcnvrt@convarg+1)^0,w,c
  1149   001A94  B4D8               	btfsc	status,2,c
  1150   001A96  EF4F  F00D         	goto	u1131
  1151   001A9A  EF51  F00D         	goto	u1130
  1152   001A9E                     u1131:
  1153   001A9E  EF69  F00D         	goto	l2014
  1154   001AA2                     u1130:
  1155   001AA2  5012               	movf	vfpfcnvrt@c^0,w,c
  1156   001AA4  A4D8               	btfss	status,2,c
  1157   001AA6  EF57  F00D         	goto	u1141
  1158   001AAA  EF59  F00D         	goto	u1140
  1159   001AAE                     u1141:
  1160   001AAE  EF28  F00D         	goto	l2002
  1161   001AB2                     u1140:
  1162   001AB2  EF69  F00D         	goto	l2014
  1163   001AB6                     l2010:
  1164                           
  1165                           ;C:\Program Files\Microchip\xc8\v2.46\pic\sources\c99\common\doprnt.c: 1534:       fputc
      +                          (dbuf[c++], fp);
  1166   001AB6  5012               	movf	vfpfcnvrt@c^0,w,c
  1167   001AB8  0F60               	addlw	low _dbuf
  1168   001ABA  6ED9               	movwf	fsr2l,c
  1169   001ABC  6ADA               	clrf	fsr2h,c
  1170   001ABE  50DF               	movf	indf2,w,c
  1171   001AC0  6E0C               	movwf	??_vfpfcnvrt^0,c
  1172   001AC2  500C               	movf	??_vfpfcnvrt^0,w,c
  1173   001AC4  6E01               	movwf	fputc@c^0,c
  1174   001AC6  6A02               	clrf	(fputc@c+1)^0,c
  1175   001AC8  C009  F003         	movff	vfpfcnvrt@fp,fputc@fp
  1176   001ACC  ECC2  F00E         	call	_fputc	;wreg free
  1177   001AD0  2A12               	incf	vfpfcnvrt@c^0,f,c
  1178   001AD2                     l2014:
  1179                           
  1180                           ;C:\Program Files\Microchip\xc8\v2.46\pic\sources\c99\common\doprnt.c: 1533:      while 
      +                          (c != sizeof(dbuf)) {
  1181   001AD2  0E20               	movlw	32
  1182   001AD4  1812               	xorwf	vfpfcnvrt@c^0,w,c
  1183   001AD6  A4D8               	btfss	status,2,c
  1184   001AD8  EF70  F00D         	goto	u1151
  1185   001ADC  EF72  F00D         	goto	u1150
  1186   001AE0                     u1151:
  1187   001AE0  EF5B  F00D         	goto	l2010
  1188   001AE4                     u1150:
  1189   001AE4  EF99  F00D         	goto	l1108
  1190   001AE8                     l2018:
  1191                           
  1192                           ; BSR set to: 0
  1193   001AE8  C011  FFF6         	movff	vfpfcnvrt@cp,tblptrl
  1194   001AEC                     	if	1	;There is more than 1 active tblptr byte
  1195   001AEC  0E10               	movlw	high __smallconst
  1196   001AEE  6EF7               	movwf	tblptrh,c
  1197   001AF0                     	endif
  1198   001AF0                     	if	1	;Program memory is < 0x10000, tblptru is always zero
  1199   001AF0  6AF8               	clrf	tblptru,c
  1200   001AF2                     	endif
  1201   001AF2                     	if	0	;tblptru may be non-zero
  1202   001AF2                     	endif
  1203   001AF2  0008               	tblrd		*
  1204   001AF4  50F5               	movf	tablat,w,c
  1205                           
  1206                           ; Switch size 1, requested type "simple"
  1207                           ; Number of cases is 1, Range of values is 117 to 117
  1208                           ; switch strategies available:
  1209                           ; Name         Instructions Cycles
  1210                           ; simple_byte            4     3 (average)
  1211                           ;	Chosen strategy is simple_byte
  1212   001AF6  0A75               	xorlw	117	; case 117
  1213   001AF8  B4D8               	btfsc	status,2,c
  1214   001AFA  EF26  F00D         	goto	l2000
  1215   001AFE  EF81  F00D         	goto	l2020
  1216   001B02                     l2020:
  1217                           
  1218                           ;C:\Program Files\Microchip\xc8\v2.46\pic\sources\c99\common\doprnt.c: 1806:         ++*
      +                          fmt;
  1219   001B02  500A               	movf	vfpfcnvrt@fmt^0,w,c
  1220   001B04  6ED9               	movwf	fsr2l,c
  1221   001B06  6ADA               	clrf	fsr2h,c
  1222   001B08  2ADF               	incf	indf2,f,c
  1223   001B0A  EF99  F00D         	goto	l1108
  1224   001B0E                     l2024:
  1225                           
  1226                           ;C:\Program Files\Microchip\xc8\v2.46\pic\sources\c99\common\doprnt.c: 1811:     fputc((
      +                          int)(*fmt)[0], fp);
  1227   001B0E  500A               	movf	vfpfcnvrt@fmt^0,w,c
  1228   001B10  6ED9               	movwf	fsr2l,c
  1229   001B12  6ADA               	clrf	fsr2h,c
  1230   001B14  CFDF FFF6          	movff	indf2,tblptrl
  1231   001B18                     	if	1	;There is more than 1 active tblptr byte
  1232   001B18  0E10               	movlw	high __smallconst
  1233   001B1A  6EF7               	movwf	tblptrh,c
  1234   001B1C                     	endif
  1235   001B1C                     	if	1	;Program memory is < 0x10000, tblptru is always zero
  1236   001B1C  6AF8               	clrf	tblptru,c
  1237   001B1E                     	endif
  1238   001B1E                     	if	0	;tblptru may be non-zero
  1239   001B1E                     	endif
  1240   001B1E  0008               	tblrd		*
  1241   001B20  50F5               	movf	tablat,w,c
  1242   001B22  6E01               	movwf	fputc@c^0,c
  1243   001B24  6A02               	clrf	(fputc@c+1)^0,c
  1244   001B26  C009  F003         	movff	vfpfcnvrt@fp,fputc@fp
  1245   001B2A  ECC2  F00E         	call	_fputc	;wreg free
  1246   001B2E  EF81  F00D         	goto	l2020
  1247   001B32                     l1108:
  1248   001B32  0012               	return		;funcret
  1249   001B34                     __end_of_vfpfcnvrt:
  1250                           	callstack 0
  1251                           
  1252 ;; *************** function _fputc *****************
  1253 ;; Defined at:
  1254 ;;		line 8 in file "C:\Program Files\Microchip\xc8\v2.46\pic\sources\c99\common\nf_fputc.c"
  1255 ;; Parameters:    Size  Location     Type
  1256 ;;  c               2    0[COMRAM] int 
  1257 ;;  fp              1    2[COMRAM] PTR struct _IO_FILE
  1258 ;;		 -> sprintf@f(12), 
  1259 ;; Auto vars:     Size  Location     Type
  1260 ;;		None
  1261 ;; Return value:  Size  Location     Type
  1262 ;;                  2    0[COMRAM] int 
  1263 ;; Registers used:
  1264 ;;		wreg, fsr1l, fsr1h, fsr2l, fsr2h, status,2, status,0, cstack
  1265 ;; Tracked objects:
  1266 ;;		On entry : 0/0
  1267 ;;		On exit  : 0/0
  1268 ;;		Unchanged: 0/0
  1269 ;; Data sizes:     COMRAM   BANK0   BANK1   BANK2   BANK3   BANK4   BANK5   BANK6   BANK7   BANK8   BANK9  BANK10  BANK1
      +1  BANK12  BANK13  BANK14  BANK15
  1270 ;;      Params:         3       0       0       0       0       0       0       0       0       0       0       0       
      +0       0       0       0       0
  1271 ;;      Locals:         0       0       0       0       0       0       0       0       0       0       0       0       
      +0       0       0       0       0
  1272 ;;      Temps:          5       0       0       0       0       0       0       0       0       0       0       0       
      +0       0       0       0       0
  1273 ;;      Totals:         8       0       0       0       0       0       0       0       0       0       0       0       
      +0       0       0       0       0
  1274 ;;Total ram usage:        8 bytes
  1275 ;; Hardware stack levels used: 1
  1276 ;; Hardware stack levels required when called: 1
  1277 ;; This function calls:
  1278 ;;		_putch
  1279 ;; This function is called by:
  1280 ;;		_vfpfcnvrt
  1281 ;; This function uses a non-reentrant model
  1282 ;;
  1283                           
  1284                           	psect	text4
  1285   001D84                     __ptext4:
  1286                           	callstack 0
  1287   001D84                     _fputc:
  1288                           	callstack 26
  1289   001D84  5003               	movf	fputc@fp^0,w,c
  1290   001D86  B4D8               	btfsc	status,2,c
  1291   001D88  EFC8  F00E         	goto	u1051
  1292   001D8C  EFCA  F00E         	goto	u1050
  1293   001D90                     u1051:
  1294   001D90  EFD2  F00E         	goto	l1950
  1295   001D94                     u1050:
  1296   001D94  5003               	movf	fputc@fp^0,w,c
  1297   001D96  A4D8               	btfss	status,2,c
  1298   001D98  EFD0  F00E         	goto	u1061
  1299   001D9C  EFD2  F00E         	goto	u1060
  1300   001DA0                     u1061:
  1301   001DA0  EFD7  F00E         	goto	l1952
  1302   001DA4                     u1060:
  1303   001DA4                     l1950:
  1304   001DA4  5001               	movf	fputc@c^0,w,c
  1305   001DA6  ECA7  F011         	call	_putch
  1306   001DAA  EF16  F00F         	goto	l1127
  1307   001DAE                     l1952:
  1308   001DAE  5003               	movf	fputc@fp^0,w,c
  1309   001DB0  6ED9               	movwf	fsr2l,c
  1310   001DB2  6ADA               	clrf	fsr2h,c
  1311   001DB4  0E0A               	movlw	10
  1312   001DB6  26D9               	addwf	fsr2l,f,c
  1313   001DB8  50DE               	movf	postinc2,w,c
  1314   001DBA  10DE               	iorwf	postinc2,w,c
  1315   001DBC  B4D8               	btfsc	status,2,c
  1316   001DBE  EFE3  F00E         	goto	u1071
  1317   001DC2  EFE5  F00E         	goto	u1070
  1318   001DC6                     u1071:
  1319   001DC6  EFFE  F00E         	goto	l1956
  1320   001DCA                     u1070:
  1321   001DCA  5003               	movf	fputc@fp^0,w,c
  1322   001DCC  6ED9               	movwf	fsr2l,c
  1323   001DCE  6ADA               	clrf	fsr2h,c
  1324   001DD0  0E0A               	movlw	10
  1325   001DD2  26D9               	addwf	fsr2l,f,c
  1326   001DD4  5003               	movf	fputc@fp^0,w,c
  1327   001DD6  6EE1               	movwf	fsr1l,c
  1328   001DD8  6AE2               	clrf	fsr1h,c
  1329   001DDA  0E03               	movlw	3
  1330   001DDC  26E1               	addwf	fsr1l,f,c
  1331   001DDE  50DE               	movf	postinc2,w,c
  1332   001DE0  5CE6               	subwf	postinc1,w,c
  1333   001DE2  50E6               	movf	postinc1,w,c
  1334   001DE4  0A80               	xorlw	128
  1335   001DE6  6E08               	movwf	(??_fputc+4)^0,c
  1336   001DE8  50DE               	movf	postinc2,w,c
  1337   001DEA  0A80               	xorlw	128
  1338   001DEC  5808               	subwfb	(??_fputc+4)^0,w,c
  1339   001DEE  B0D8               	btfsc	status,0,c
  1340   001DF0  EFFC  F00E         	goto	u1081
  1341   001DF4  EFFE  F00E         	goto	u1080
  1342   001DF8                     u1081:
  1343   001DF8  EF16  F00F         	goto	l1127
  1344   001DFC                     u1080:
  1345   001DFC                     l1956:
  1346   001DFC  5003               	movf	fputc@fp^0,w,c
  1347   001DFE  6ED9               	movwf	fsr2l,c
  1348   001E00  6ADA               	clrf	fsr2h,c
  1349   001E02  0E03               	movlw	3
  1350   001E04  26D9               	addwf	fsr2l,f,c
  1351   001E06  50DF               	movf	indf2,w,c
  1352   001E08  6E04               	movwf	??_fputc^0,c
  1353   001E0A  5003               	movf	fputc@fp^0,w,c
  1354   001E0C  6ED9               	movwf	fsr2l,c
  1355   001E0E  6ADA               	clrf	fsr2h,c
  1356   001E10  50DF               	movf	indf2,w,c
  1357   001E12  2404               	addwf	??_fputc^0,w,c
  1358   001E14  6ED9               	movwf	fsr2l,c
  1359   001E16  6ADA               	clrf	fsr2h,c
  1360   001E18  C001  FFDF         	movff	fputc@c,indf2
  1361   001E1C  5003               	movf	fputc@fp^0,w,c
  1362   001E1E  6ED9               	movwf	fsr2l,c
  1363   001E20  6ADA               	clrf	fsr2h,c
  1364   001E22  0E03               	movlw	3
  1365   001E24  26D9               	addwf	fsr2l,f,c
  1366   001E26  2ADE               	incf	postinc2,f,c
  1367   001E28  0E00               	movlw	0
  1368   001E2A  22DD               	addwfc	postdec2,f,c
  1369   001E2C                     l1127:
  1370   001E2C  0012               	return		;funcret
  1371   001E2E                     __end_of_fputc:
  1372                           	callstack 0
  1373                           
  1374 ;; *************** function _putch *****************
  1375 ;; Defined at:
  1376 ;;		line 7 in file "C:\Program Files\Microchip\xc8\v2.46\pic\sources\c99\common\putch.c"
  1377 ;; Parameters:    Size  Location     Type
  1378 ;;  c               1    wreg     unsigned char 
  1379 ;; Auto vars:     Size  Location     Type
  1380 ;;  c               1    0[COMRAM] unsigned char 
  1381 ;; Return value:  Size  Location     Type
  1382 ;;                  1    wreg      void 
  1383 ;; Registers used:
  1384 ;;		wreg
  1385 ;; Tracked objects:
  1386 ;;		On entry : 0/0
  1387 ;;		On exit  : 0/0
  1388 ;;		Unchanged: 0/0
  1389 ;; Data sizes:     COMRAM   BANK0   BANK1   BANK2   BANK3   BANK4   BANK5   BANK6   BANK7   BANK8   BANK9  BANK10  BANK1
      +1  BANK12  BANK13  BANK14  BANK15
  1390 ;;      Params:         0       0       0       0       0       0       0       0       0       0       0       0       
      +0       0       0       0       0
  1391 ;;      Locals:         0       0       0       0       0       0       0       0       0       0       0       0       
      +0       0       0       0       0
  1392 ;;      Temps:          0       0       0       0       0       0       0       0       0       0       0       0       
      +0       0       0       0       0
  1393 ;;      Totals:         0       0       0       0       0       0       0       0       0       0       0       0       
      +0       0       0       0       0
  1394 ;;Total ram usage:        0 bytes
  1395 ;; Hardware stack levels used: 1
  1396 ;; This function calls:
  1397 ;;		Nothing
  1398 ;; This function is called by:
  1399 ;;		_fputc
  1400 ;; This function uses a non-reentrant model
  1401 ;;
  1402                           
  1403                           	psect	text5
  1404   00234E                     __ptext5:
  1405                           	callstack 0
  1406   00234E                     _putch:
  1407                           	callstack 26
  1408   00234E  0012               	return		;funcret
  1409   002350                     __end_of_putch:
  1410                           	callstack 0
  1411                           
  1412 ;; *************** function ___lwmod *****************
  1413 ;; Defined at:
  1414 ;;		line 7 in file "C:\Program Files\Microchip\xc8\v2.46\pic\sources\c99\common\lwmod.c"
  1415 ;; Parameters:    Size  Location     Type
  1416 ;;  dividend        2    0[COMRAM] unsigned int 
  1417 ;;  divisor         2    2[COMRAM] unsigned int 
  1418 ;; Auto vars:     Size  Location     Type
  1419 ;;  counter         1    4[COMRAM] unsigned char 
  1420 ;; Return value:  Size  Location     Type
  1421 ;;                  2    0[COMRAM] unsigned int 
  1422 ;; Registers used:
  1423 ;;		wreg, status,2, status,0
  1424 ;; Tracked objects:
  1425 ;;		On entry : 0/0
  1426 ;;		On exit  : 0/0
  1427 ;;		Unchanged: 0/0
  1428 ;; Data sizes:     COMRAM   BANK0   BANK1   BANK2   BANK3   BANK4   BANK5   BANK6   BANK7   BANK8   BANK9  BANK10  BANK1
      +1  BANK12  BANK13  BANK14  BANK15
  1429 ;;      Params:         4       0       0       0       0       0       0       0       0       0       0       0       
      +0       0       0       0       0
  1430 ;;      Locals:         1       0       0       0       0       0       0       0       0       0       0       0       
      +0       0       0       0       0
  1431 ;;      Temps:          0       0       0       0       0       0       0       0       0       0       0       0       
      +0       0       0       0       0
  1432 ;;      Totals:         5       0       0       0       0       0       0       0       0       0       0       0       
      +0       0       0       0       0
  1433 ;;Total ram usage:        5 bytes
  1434 ;; Hardware stack levels used: 1
  1435 ;; This function calls:
  1436 ;;		Nothing
  1437 ;; This function is called by:
  1438 ;;		_vfpfcnvrt
  1439 ;; This function uses a non-reentrant model
  1440 ;;
  1441                           
  1442                           	psect	text6
  1443   002026                     __ptext6:
  1444                           	callstack 0
  1445   002026                     ___lwmod:
  1446                           	callstack 27
  1447   002026  5003               	movf	___lwmod@divisor^0,w,c
  1448   002028  1004               	iorwf	(___lwmod@divisor+1)^0,w,c
  1449   00202A  B4D8               	btfsc	status,2,c
  1450   00202C  EF1A  F010         	goto	u1021
  1451   002030  EF1C  F010         	goto	u1020
  1452   002034                     u1021:
  1453   002034  EF40  F010         	goto	l894
  1454   002038                     u1020:
  1455   002038  0E01               	movlw	1
  1456   00203A  6E05               	movwf	___lwmod@counter^0,c
  1457   00203C  EF24  F010         	goto	l1936
  1458   002040                     l1934:
  1459   002040  90D8               	bcf	status,0,c
  1460   002042  3603               	rlcf	___lwmod@divisor^0,f,c
  1461   002044  3604               	rlcf	(___lwmod@divisor+1)^0,f,c
  1462   002046  2A05               	incf	___lwmod@counter^0,f,c
  1463   002048                     l1936:
  1464   002048  AE04               	btfss	(___lwmod@divisor+1)^0,7,c
  1465   00204A  EF29  F010         	goto	u1031
  1466   00204E  EF2B  F010         	goto	u1030
  1467   002052                     u1031:
  1468   002052  EF20  F010         	goto	l1934
  1469   002056                     u1030:
  1470   002056                     l1938:
  1471   002056  5003               	movf	___lwmod@divisor^0,w,c
  1472   002058  5C01               	subwf	___lwmod@dividend^0,w,c
  1473   00205A  5004               	movf	(___lwmod@divisor+1)^0,w,c
  1474   00205C  5802               	subwfb	(___lwmod@dividend+1)^0,w,c
  1475   00205E  A0D8               	btfss	status,0,c
  1476   002060  EF34  F010         	goto	u1041
  1477   002064  EF36  F010         	goto	u1040
  1478   002068                     u1041:
  1479   002068  EF3A  F010         	goto	l1942
  1480   00206C                     u1040:
  1481   00206C  5003               	movf	___lwmod@divisor^0,w,c
  1482   00206E  5E01               	subwf	___lwmod@dividend^0,f,c
  1483   002070  5004               	movf	(___lwmod@divisor+1)^0,w,c
  1484   002072  5A02               	subwfb	(___lwmod@dividend+1)^0,f,c
  1485   002074                     l1942:
  1486   002074  90D8               	bcf	status,0,c
  1487   002076  3204               	rrcf	(___lwmod@divisor+1)^0,f,c
  1488   002078  3203               	rrcf	___lwmod@divisor^0,f,c
  1489   00207A  2E05               	decfsz	___lwmod@counter^0,f,c
  1490   00207C  EF2B  F010         	goto	l1938
  1491   002080                     l894:
  1492   002080  C001  F001         	movff	___lwmod@dividend,?___lwmod
  1493   002084  C002  F002         	movff	___lwmod@dividend+1,?___lwmod+1
  1494   002088  0012               	return		;funcret
  1495   00208A                     __end_of___lwmod:
  1496                           	callstack 0
  1497                           
  1498 ;; *************** function ___lwdiv *****************
  1499 ;; Defined at:
  1500 ;;		line 7 in file "C:\Program Files\Microchip\xc8\v2.46\pic\sources\c99\common\lwdiv.c"
  1501 ;; Parameters:    Size  Location     Type
  1502 ;;  dividend        2    0[COMRAM] unsigned int 
  1503 ;;  divisor         2    2[COMRAM] unsigned int 
  1504 ;; Auto vars:     Size  Location     Type
  1505 ;;  quotient        2    4[COMRAM] unsigned int 
  1506 ;;  counter         1    6[COMRAM] unsigned char 
  1507 ;; Return value:  Size  Location     Type
  1508 ;;                  2    0[COMRAM] unsigned int 
  1509 ;; Registers used:
  1510 ;;		wreg, status,2, status,0
  1511 ;; Tracked objects:
  1512 ;;		On entry : 0/0
  1513 ;;		On exit  : 0/0
  1514 ;;		Unchanged: 0/0
  1515 ;; Data sizes:     COMRAM   BANK0   BANK1   BANK2   BANK3   BANK4   BANK5   BANK6   BANK7   BANK8   BANK9  BANK10  BANK1
      +1  BANK12  BANK13  BANK14  BANK15
  1516 ;;      Params:         4       0       0       0       0       0       0       0       0       0       0       0       
      +0       0       0       0       0
  1517 ;;      Locals:         3       0       0       0       0       0       0       0       0       0       0       0       
      +0       0       0       0       0
  1518 ;;      Temps:          0       0       0       0       0       0       0       0       0       0       0       0       
      +0       0       0       0       0
  1519 ;;      Totals:         7       0       0       0       0       0       0       0       0       0       0       0       
      +0       0       0       0       0
  1520 ;;Total ram usage:        7 bytes
  1521 ;; Hardware stack levels used: 1
  1522 ;; This function calls:
  1523 ;;		Nothing
  1524 ;; This function is called by:
  1525 ;;		_vfpfcnvrt
  1526 ;; This function uses a non-reentrant model
  1527 ;;
  1528                           
  1529                           	psect	text7
  1530   001ED6                     __ptext7:
  1531                           	callstack 0
  1532   001ED6                     ___lwdiv:
  1533                           	callstack 27
  1534   001ED6  0E00               	movlw	0
  1535   001ED8  6E06               	movwf	(___lwdiv@quotient+1)^0,c
  1536   001EDA  0E00               	movlw	0
  1537   001EDC  6E05               	movwf	___lwdiv@quotient^0,c
  1538   001EDE  5003               	movf	___lwdiv@divisor^0,w,c
  1539   001EE0  1004               	iorwf	(___lwdiv@divisor+1)^0,w,c
  1540   001EE2  B4D8               	btfsc	status,2,c
  1541   001EE4  EF76  F00F         	goto	u991
  1542   001EE8  EF78  F00F         	goto	u990
  1543   001EEC                     u991:
  1544   001EEC  EFA0  F00F         	goto	l884
  1545   001EF0                     u990:
  1546   001EF0  0E01               	movlw	1
  1547   001EF2  6E07               	movwf	___lwdiv@counter^0,c
  1548   001EF4  EF80  F00F         	goto	l1916
  1549   001EF8                     l1914:
  1550   001EF8  90D8               	bcf	status,0,c
  1551   001EFA  3603               	rlcf	___lwdiv@divisor^0,f,c
  1552   001EFC  3604               	rlcf	(___lwdiv@divisor+1)^0,f,c
  1553   001EFE  2A07               	incf	___lwdiv@counter^0,f,c
  1554   001F00                     l1916:
  1555   001F00  AE04               	btfss	(___lwdiv@divisor+1)^0,7,c
  1556   001F02  EF85  F00F         	goto	u1001
  1557   001F06  EF87  F00F         	goto	u1000
  1558   001F0A                     u1001:
  1559   001F0A  EF7C  F00F         	goto	l1914
  1560   001F0E                     u1000:
  1561   001F0E                     l1918:
  1562   001F0E  90D8               	bcf	status,0,c
  1563   001F10  3605               	rlcf	___lwdiv@quotient^0,f,c
  1564   001F12  3606               	rlcf	(___lwdiv@quotient+1)^0,f,c
  1565   001F14  5003               	movf	___lwdiv@divisor^0,w,c
  1566   001F16  5C01               	subwf	___lwdiv@dividend^0,w,c
  1567   001F18  5004               	movf	(___lwdiv@divisor+1)^0,w,c
  1568   001F1A  5802               	subwfb	(___lwdiv@dividend+1)^0,w,c
  1569   001F1C  A0D8               	btfss	status,0,c
  1570   001F1E  EF93  F00F         	goto	u1011
  1571   001F22  EF95  F00F         	goto	u1010
  1572   001F26                     u1011:
  1573   001F26  EF9A  F00F         	goto	l1926
  1574   001F2A                     u1010:
  1575   001F2A  5003               	movf	___lwdiv@divisor^0,w,c
  1576   001F2C  5E01               	subwf	___lwdiv@dividend^0,f,c
  1577   001F2E  5004               	movf	(___lwdiv@divisor+1)^0,w,c
  1578   001F30  5A02               	subwfb	(___lwdiv@dividend+1)^0,f,c
  1579   001F32  8005               	bsf	___lwdiv@quotient^0,0,c
  1580   001F34                     l1926:
  1581   001F34  90D8               	bcf	status,0,c
  1582   001F36  3204               	rrcf	(___lwdiv@divisor+1)^0,f,c
  1583   001F38  3203               	rrcf	___lwdiv@divisor^0,f,c
  1584   001F3A  2E07               	decfsz	___lwdiv@counter^0,f,c
  1585   001F3C  EF87  F00F         	goto	l1918
  1586   001F40                     l884:
  1587   001F40  C005  F001         	movff	___lwdiv@quotient,?___lwdiv
  1588   001F44  C006  F002         	movff	___lwdiv@quotient+1,?___lwdiv+1
  1589   001F48  0012               	return		;funcret
  1590   001F4A                     __end_of___lwdiv:
  1591                           	callstack 0
  1592                           
  1593 ;; *************** function ___xxtofl *****************
  1594 ;; Defined at:
  1595 ;;		line 10 in file "C:\Program Files\Microchip\xc8\v2.46\pic\sources\c99\common\xxtofl.c"
  1596 ;; Parameters:    Size  Location     Type
  1597 ;;  sign            1    wreg     unsigned char 
  1598 ;;  val             4    0[COMRAM] long 
  1599 ;; Auto vars:     Size  Location     Type
  1600 ;;  sign            1    8[COMRAM] unsigned char 
  1601 ;;  arg             4   10[COMRAM] unsigned long 
  1602 ;;  exp             1    9[COMRAM] unsigned char 
  1603 ;; Return value:  Size  Location     Type
  1604 ;;                  4    0[COMRAM] unsigned char 
  1605 ;; Registers used:
  1606 ;;		wreg, status,2, status,0
  1607 ;; Tracked objects:
  1608 ;;		On entry : 0/0
  1609 ;;		On exit  : 0/0
  1610 ;;		Unchanged: 0/0
  1611 ;; Data sizes:     COMRAM   BANK0   BANK1   BANK2   BANK3   BANK4   BANK5   BANK6   BANK7   BANK8   BANK9  BANK10  BANK1
      +1  BANK12  BANK13  BANK14  BANK15
  1612 ;;      Params:         4       0       0       0       0       0       0       0       0       0       0       0       
      +0       0       0       0       0
  1613 ;;      Locals:         6       0       0       0       0       0       0       0       0       0       0       0       
      +0       0       0       0       0
  1614 ;;      Temps:          4       0       0       0       0       0       0       0       0       0       0       0       
      +0       0       0       0       0
  1615 ;;      Totals:        14       0       0       0       0       0       0       0       0       0       0       0       
      +0       0       0       0       0
  1616 ;;Total ram usage:       14 bytes
  1617 ;; Hardware stack levels used: 1
  1618 ;; This function calls:
  1619 ;;		Nothing
  1620 ;; This function is called by:
  1621 ;;		_main
  1622 ;; This function uses a non-reentrant model
  1623 ;;
  1624                           
  1625                           	psect	text8
  1626   00180C                     __ptext8:
  1627                           	callstack 0
  1628   00180C                     ___xxtofl:
  1629                           	callstack 30
  1630                           
  1631                           ;incstack = 0
  1632                           ;___xxtofl@sign stored from wreg
  1633   00180C  6E09               	movwf	___xxtofl@sign^0,c
  1634   00180E  5009               	movf	___xxtofl@sign^0,w,c
  1635   001810  B4D8               	btfsc	status,2,c
  1636   001812  EF0D  F00C         	goto	u1701
  1637   001816  EF0F  F00C         	goto	u1700
  1638   00181A                     u1701:
  1639   00181A  EF31  F00C         	goto	l1048
  1640   00181E                     u1700:
  1641   00181E  BE04               	btfsc	(___xxtofl@val+3)^0,7,c
  1642   001820  EF16  F00C         	goto	u1710
  1643   001824  EF14  F00C         	goto	u1711
  1644   001828                     u1711:
  1645   001828  EF31  F00C         	goto	l1048
  1646   00182C                     u1710:
  1647   00182C  C001  F005         	movff	___xxtofl@val,??___xxtofl
  1648   001830  C002  F006         	movff	___xxtofl@val+1,??___xxtofl+1
  1649   001834  C003  F007         	movff	___xxtofl@val+2,??___xxtofl+2
  1650   001838  C004  F008         	movff	___xxtofl@val+3,??___xxtofl+3
  1651   00183C  1E05               	comf	??___xxtofl^0,f,c
  1652   00183E  1E06               	comf	(??___xxtofl+1)^0,f,c
  1653   001840  1E07               	comf	(??___xxtofl+2)^0,f,c
  1654   001842  1E08               	comf	(??___xxtofl+3)^0,f,c
  1655   001844  2A05               	incf	??___xxtofl^0,f,c
  1656   001846  0E00               	movlw	0
  1657   001848  2206               	addwfc	(??___xxtofl+1)^0,f,c
  1658   00184A  2207               	addwfc	(??___xxtofl+2)^0,f,c
  1659   00184C  2208               	addwfc	(??___xxtofl+3)^0,f,c
  1660   00184E  C005  F00B         	movff	??___xxtofl,___xxtofl@arg
  1661   001852  C006  F00C         	movff	??___xxtofl+1,___xxtofl@arg+1
  1662   001856  C007  F00D         	movff	??___xxtofl+2,___xxtofl@arg+2
  1663   00185A  C008  F00E         	movff	??___xxtofl+3,___xxtofl@arg+3
  1664   00185E  EF39  F00C         	goto	l2474
  1665   001862                     l1048:
  1666   001862  C001  F00B         	movff	___xxtofl@val,___xxtofl@arg
  1667   001866  C002  F00C         	movff	___xxtofl@val+1,___xxtofl@arg+1
  1668   00186A  C003  F00D         	movff	___xxtofl@val+2,___xxtofl@arg+2
  1669   00186E  C004  F00E         	movff	___xxtofl@val+3,___xxtofl@arg+3
  1670   001872                     l2474:
  1671   001872  5001               	movf	___xxtofl@val^0,w,c
  1672   001874  1002               	iorwf	(___xxtofl@val+1)^0,w,c
  1673   001876  1003               	iorwf	(___xxtofl@val+2)^0,w,c
  1674   001878  1004               	iorwf	(___xxtofl@val+3)^0,w,c
  1675   00187A  A4D8               	btfss	status,2,c
  1676   00187C  EF42  F00C         	goto	u1721
  1677   001880  EF44  F00C         	goto	u1720
  1678   001884                     u1721:
  1679   001884  EF4E  F00C         	goto	l2480
  1680   001888                     u1720:
  1681   001888  0E00               	movlw	0
  1682   00188A  6E01               	movwf	?___xxtofl^0,c
  1683   00188C  0E00               	movlw	0
  1684   00188E  6E02               	movwf	(?___xxtofl+1)^0,c
  1685   001890  0E00               	movlw	0
  1686   001892  6E03               	movwf	(?___xxtofl+2)^0,c
  1687   001894  0E00               	movlw	0
  1688   001896  6E04               	movwf	(?___xxtofl+3)^0,c
  1689   001898  EFDF  F00C         	goto	l1051
  1690   00189C                     l2480:
  1691   00189C  0E96               	movlw	150
  1692   00189E  6E0A               	movwf	___xxtofl@exp^0,c
  1693   0018A0  EF58  F00C         	goto	l2484
  1694   0018A4                     l2482:
  1695   0018A4  2A0A               	incf	___xxtofl@exp^0,f,c
  1696   0018A6  90D8               	bcf	status,0,c
  1697   0018A8  320E               	rrcf	(___xxtofl@arg+3)^0,f,c
  1698   0018AA  320D               	rrcf	(___xxtofl@arg+2)^0,f,c
  1699   0018AC  320C               	rrcf	(___xxtofl@arg+1)^0,f,c
  1700   0018AE  320B               	rrcf	___xxtofl@arg^0,f,c
  1701   0018B0                     l2484:
  1702   0018B0  0E00               	movlw	0
  1703   0018B2  140B               	andwf	___xxtofl@arg^0,w,c
  1704   0018B4  6E05               	movwf	??___xxtofl^0,c
  1705   0018B6  0E00               	movlw	0
  1706   0018B8  140C               	andwf	(___xxtofl@arg+1)^0,w,c
  1707   0018BA  6E06               	movwf	(??___xxtofl+1)^0,c
  1708   0018BC  0E00               	movlw	0
  1709   0018BE  140D               	andwf	(___xxtofl@arg+2)^0,w,c
  1710   0018C0  6E07               	movwf	(??___xxtofl+2)^0,c
  1711   0018C2  0EFE               	movlw	254
  1712   0018C4  140E               	andwf	(___xxtofl@arg+3)^0,w,c
  1713   0018C6  6E08               	movwf	(??___xxtofl+3)^0,c
  1714   0018C8  5005               	movf	??___xxtofl^0,w,c
  1715   0018CA  1006               	iorwf	(??___xxtofl+1)^0,w,c
  1716   0018CC  1007               	iorwf	(??___xxtofl+2)^0,w,c
  1717   0018CE  1008               	iorwf	(??___xxtofl+3)^0,w,c
  1718   0018D0  A4D8               	btfss	status,2,c
  1719   0018D2  EF6D  F00C         	goto	u1731
  1720   0018D6  EF6F  F00C         	goto	u1730
  1721   0018DA                     u1731:
  1722   0018DA  EF52  F00C         	goto	l2482
  1723   0018DE                     u1730:
  1724   0018DE  EF7D  F00C         	goto	l1055
  1725   0018E2                     l2486:
  1726   0018E2  2A0A               	incf	___xxtofl@exp^0,f,c
  1727   0018E4  0E01               	movlw	1
  1728   0018E6  260B               	addwf	___xxtofl@arg^0,f,c
  1729   0018E8  0E00               	movlw	0
  1730   0018EA  220C               	addwfc	(___xxtofl@arg+1)^0,f,c
  1731   0018EC  220D               	addwfc	(___xxtofl@arg+2)^0,f,c
  1732   0018EE  220E               	addwfc	(___xxtofl@arg+3)^0,f,c
  1733   0018F0  90D8               	bcf	status,0,c
  1734   0018F2  320E               	rrcf	(___xxtofl@arg+3)^0,f,c
  1735   0018F4  320D               	rrcf	(___xxtofl@arg+2)^0,f,c
  1736   0018F6  320C               	rrcf	(___xxtofl@arg+1)^0,f,c
  1737   0018F8  320B               	rrcf	___xxtofl@arg^0,f,c
  1738   0018FA                     l1055:
  1739   0018FA  0E00               	movlw	0
  1740   0018FC  140B               	andwf	___xxtofl@arg^0,w,c
  1741   0018FE  6E05               	movwf	??___xxtofl^0,c
  1742   001900  0E00               	movlw	0
  1743   001902  140C               	andwf	(___xxtofl@arg+1)^0,w,c
  1744   001904  6E06               	movwf	(??___xxtofl+1)^0,c
  1745   001906  0E00               	movlw	0
  1746   001908  140D               	andwf	(___xxtofl@arg+2)^0,w,c
  1747   00190A  6E07               	movwf	(??___xxtofl+2)^0,c
  1748   00190C  0EFF               	movlw	255
  1749   00190E  140E               	andwf	(___xxtofl@arg+3)^0,w,c
  1750   001910  6E08               	movwf	(??___xxtofl+3)^0,c
  1751   001912  5005               	movf	??___xxtofl^0,w,c
  1752   001914  1006               	iorwf	(??___xxtofl+1)^0,w,c
  1753   001916  1007               	iorwf	(??___xxtofl+2)^0,w,c
  1754   001918  1008               	iorwf	(??___xxtofl+3)^0,w,c
  1755   00191A  A4D8               	btfss	status,2,c
  1756   00191C  EF92  F00C         	goto	u1741
  1757   001920  EF94  F00C         	goto	u1740
  1758   001924                     u1741:
  1759   001924  EF71  F00C         	goto	l2486
  1760   001928                     u1740:
  1761   001928  EF9C  F00C         	goto	l2494
  1762   00192C                     l2492:
  1763   00192C  060A               	decf	___xxtofl@exp^0,f,c
  1764   00192E  90D8               	bcf	status,0,c
  1765   001930  360B               	rlcf	___xxtofl@arg^0,f,c
  1766   001932  360C               	rlcf	(___xxtofl@arg+1)^0,f,c
  1767   001934  360D               	rlcf	(___xxtofl@arg+2)^0,f,c
  1768   001936  360E               	rlcf	(___xxtofl@arg+3)^0,f,c
  1769   001938                     l2494:
  1770   001938  BE0D               	btfsc	(___xxtofl@arg+2)^0,7,c
  1771   00193A  EFA1  F00C         	goto	u1751
  1772   00193E  EFA3  F00C         	goto	u1750
  1773   001942                     u1751:
  1774   001942  EFAB  F00C         	goto	l1062
  1775   001946                     u1750:
  1776   001946  0E02               	movlw	2
  1777   001948  600A               	cpfslt	___xxtofl@exp^0,c
  1778   00194A  EFA9  F00C         	goto	u1761
  1779   00194E  EFAB  F00C         	goto	u1760
  1780   001952                     u1761:
  1781   001952  EF96  F00C         	goto	l2492
  1782   001956                     u1760:
  1783   001956                     l1062:
  1784   001956  B00A               	btfsc	___xxtofl@exp^0,0,c
  1785   001958  EFB0  F00C         	goto	u1771
  1786   00195C  EFB2  F00C         	goto	u1770
  1787   001960                     u1771:
  1788   001960  EFB3  F00C         	goto	l2500
  1789   001964                     u1770:
  1790   001964  9E0D               	bcf	(___xxtofl@arg+2)^0,7,c
  1791   001966                     l2500:
  1792   001966  90D8               	bcf	status,0,c
  1793   001968  320A               	rrcf	___xxtofl@exp^0,f,c
  1794   00196A  C00A  F005         	movff	___xxtofl@exp,??___xxtofl
  1795   00196E  6A06               	clrf	(??___xxtofl+1)^0,c
  1796   001970  6A07               	clrf	(??___xxtofl+2)^0,c
  1797   001972  6A08               	clrf	(??___xxtofl+3)^0,c
  1798   001974  C005  F008         	movff	??___xxtofl,??___xxtofl+3
  1799   001978  6A07               	clrf	(??___xxtofl+2)^0,c
  1800   00197A  6A06               	clrf	(??___xxtofl+1)^0,c
  1801   00197C  6A05               	clrf	??___xxtofl^0,c
  1802   00197E  5005               	movf	??___xxtofl^0,w,c
  1803   001980  120B               	iorwf	___xxtofl@arg^0,f,c
  1804   001982  5006               	movf	(??___xxtofl+1)^0,w,c
  1805   001984  120C               	iorwf	(___xxtofl@arg+1)^0,f,c
  1806   001986  5007               	movf	(??___xxtofl+2)^0,w,c
  1807   001988  120D               	iorwf	(___xxtofl@arg+2)^0,f,c
  1808   00198A  5008               	movf	(??___xxtofl+3)^0,w,c
  1809   00198C  120E               	iorwf	(___xxtofl@arg+3)^0,f,c
  1810   00198E  5009               	movf	___xxtofl@sign^0,w,c
  1811   001990  B4D8               	btfsc	status,2,c
  1812   001992  EFCD  F00C         	goto	u1781
  1813   001996  EFCF  F00C         	goto	u1780
  1814   00199A                     u1781:
  1815   00199A  EFD7  F00C         	goto	l2510
  1816   00199E                     u1780:
  1817   00199E  BE04               	btfsc	(___xxtofl@val+3)^0,7,c
  1818   0019A0  EFD6  F00C         	goto	u1790
  1819   0019A4  EFD4  F00C         	goto	u1791
  1820   0019A8                     u1791:
  1821   0019A8  EFD7  F00C         	goto	l2510
  1822   0019AC                     u1790:
  1823   0019AC  8E0E               	bsf	(___xxtofl@arg+3)^0,7,c
  1824   0019AE                     l2510:
  1825   0019AE  C00B  F001         	movff	___xxtofl@arg,?___xxtofl
  1826   0019B2  C00C  F002         	movff	___xxtofl@arg+1,?___xxtofl+1
  1827   0019B6  C00D  F003         	movff	___xxtofl@arg+2,?___xxtofl+2
  1828   0019BA  C00E  F004         	movff	___xxtofl@arg+3,?___xxtofl+3
  1829   0019BE                     l1051:
  1830   0019BE  0012               	return		;funcret
  1831   0019C0                     __end_of___xxtofl:
  1832                           	callstack 0
  1833                           
  1834 ;; *************** function ___fltol *****************
  1835 ;; Defined at:
  1836 ;;		line 43 in file "C:\Program Files\Microchip\xc8\v2.46\pic\sources\c99\common\fltol.c"
  1837 ;; Parameters:    Size  Location     Type
  1838 ;;  f1              4   64[COMRAM] unsigned char 
  1839 ;; Auto vars:     Size  Location     Type
  1840 ;;  exp1            1   73[COMRAM] unsigned char 
  1841 ;;  sign1           1   72[COMRAM] unsigned char 
  1842 ;; Return value:  Size  Location     Type
  1843 ;;                  4   64[COMRAM] long 
  1844 ;; Registers used:
  1845 ;;		wreg, status,2, status,0
  1846 ;; Tracked objects:
  1847 ;;		On entry : 0/0
  1848 ;;		On exit  : 0/0
  1849 ;;		Unchanged: 0/0
  1850 ;; Data sizes:     COMRAM   BANK0   BANK1   BANK2   BANK3   BANK4   BANK5   BANK6   BANK7   BANK8   BANK9  BANK10  BANK1
      +1  BANK12  BANK13  BANK14  BANK15
  1851 ;;      Params:         4       0       0       0       0       0       0       0       0       0       0       0       
      +0       0       0       0       0
  1852 ;;      Locals:         2       0       0       0       0       0       0       0       0       0       0       0       
      +0       0       0       0       0
  1853 ;;      Temps:          4       0       0       0       0       0       0       0       0       0       0       0       
      +0       0       0       0       0
  1854 ;;      Totals:        10       0       0       0       0       0       0       0       0       0       0       0       
      +0       0       0       0       0
  1855 ;;Total ram usage:       10 bytes
  1856 ;; Hardware stack levels used: 1
  1857 ;; This function calls:
  1858 ;;		Nothing
  1859 ;; This function is called by:
  1860 ;;		_main
  1861 ;; This function uses a non-reentrant model
  1862 ;;
  1863                           
  1864                           	psect	text9
  1865   001C7E                     __ptext9:
  1866                           	callstack 0
  1867   001C7E                     ___fltol:
  1868                           	callstack 30
  1869   001C7E  3443               	rlcf	(___fltol@f1+2)^0,w,c
  1870   001C80  3444               	rlcf	(___fltol@f1+3)^0,w,c
  1871   001C82  6E4A               	movwf	___fltol@exp1^0,c
  1872   001C84  504A               	movf	___fltol@exp1^0,w,c
  1873   001C86  A4D8               	btfss	status,2,c
  1874   001C88  EF48  F00E         	goto	u1631
  1875   001C8C  EF4A  F00E         	goto	u1630
  1876   001C90                     u1631:
  1877   001C90  EF54  F00E         	goto	l2430
  1878   001C94                     u1630:
  1879   001C94                     l2426:
  1880   001C94  0E00               	movlw	0
  1881   001C96  6E41               	movwf	?___fltol^0,c
  1882   001C98  0E00               	movlw	0
  1883   001C9A  6E42               	movwf	(?___fltol+1)^0,c
  1884   001C9C  0E00               	movlw	0
  1885   001C9E  6E43               	movwf	(?___fltol+2)^0,c
  1886   001CA0  0E00               	movlw	0
  1887   001CA2  6E44               	movwf	(?___fltol+3)^0,c
  1888   001CA4  EFC1  F00E         	goto	l690
  1889   001CA8                     l2430:
  1890   001CA8  C041  F045         	movff	___fltol@f1,??___fltol
  1891   001CAC  C042  F046         	movff	___fltol@f1+1,??___fltol+1
  1892   001CB0  C043  F047         	movff	___fltol@f1+2,??___fltol+2
  1893   001CB4  C044  F048         	movff	___fltol@f1+3,??___fltol+3
  1894   001CB8  0E20               	movlw	32
  1895   001CBA  EF64  F00E         	goto	u1640
  1896   001CBE                     u1645:
  1897   001CBE  90D8               	bcf	status,0,c
  1898   001CC0  3248               	rrcf	(??___fltol+3)^0,f,c
  1899   001CC2  3247               	rrcf	(??___fltol+2)^0,f,c
  1900   001CC4  3246               	rrcf	(??___fltol+1)^0,f,c
  1901   001CC6  3245               	rrcf	??___fltol^0,f,c
  1902   001CC8                     u1640:
  1903   001CC8  2EE8               	decfsz	wreg,f,c
  1904   001CCA  EF5F  F00E         	goto	u1645
  1905   001CCE  5045               	movf	??___fltol^0,w,c
  1906   001CD0  6E49               	movwf	___fltol@sign1^0,c
  1907   001CD2  8E43               	bsf	(___fltol@f1+2)^0,7,c
  1908   001CD4  0EFF               	movlw	255
  1909   001CD6  1641               	andwf	___fltol@f1^0,f,c
  1910   001CD8  0EFF               	movlw	255
  1911   001CDA  1642               	andwf	(___fltol@f1+1)^0,f,c
  1912   001CDC  0EFF               	movlw	255
  1913   001CDE  1643               	andwf	(___fltol@f1+2)^0,f,c
  1914   001CE0  0E00               	movlw	0
  1915   001CE2  1644               	andwf	(___fltol@f1+3)^0,f,c
  1916   001CE4  0E96               	movlw	150
  1917   001CE6  5E4A               	subwf	___fltol@exp1^0,f,c
  1918   001CE8  BE4A               	btfsc	___fltol@exp1^0,7,c
  1919   001CEA  EF7B  F00E         	goto	u1650
  1920   001CEE  EF79  F00E         	goto	u1651
  1921   001CF2                     u1651:
  1922   001CF2  EF91  F00E         	goto	l2450
  1923   001CF6                     u1650:
  1924   001CF6  504A               	movf	___fltol@exp1^0,w,c
  1925   001CF8  0A80               	xorlw	128
  1926   001CFA  0F97               	addlw	151
  1927   001CFC  B0D8               	btfsc	status,0,c
  1928   001CFE  EF83  F00E         	goto	u1661
  1929   001D02  EF85  F00E         	goto	u1660
  1930   001D06                     u1661:
  1931   001D06  EF87  F00E         	goto	l2446
  1932   001D0A                     u1660:
  1933   001D0A  EF4A  F00E         	goto	l2426
  1934   001D0E                     l2446:
  1935   001D0E  90D8               	bcf	status,0,c
  1936   001D10  3244               	rrcf	(___fltol@f1+3)^0,f,c
  1937   001D12  3243               	rrcf	(___fltol@f1+2)^0,f,c
  1938   001D14  3242               	rrcf	(___fltol@f1+1)^0,f,c
  1939   001D16  3241               	rrcf	___fltol@f1^0,f,c
  1940   001D18  3E4A               	incfsz	___fltol@exp1^0,f,c
  1941   001D1A  EF87  F00E         	goto	l2446
  1942   001D1E  EFA9  F00E         	goto	l2460
  1943   001D22                     l2450:
  1944   001D22  0E1F               	movlw	31
  1945   001D24  644A               	cpfsgt	___fltol@exp1^0,c
  1946   001D26  EF97  F00E         	goto	u1671
  1947   001D2A  EF99  F00E         	goto	u1670
  1948   001D2E                     u1671:
  1949   001D2E  EFA1  F00E         	goto	l2458
  1950   001D32                     u1670:
  1951   001D32  EF4A  F00E         	goto	l2426
  1952   001D36                     l2456:
  1953   001D36  90D8               	bcf	status,0,c
  1954   001D38  3641               	rlcf	___fltol@f1^0,f,c
  1955   001D3A  3642               	rlcf	(___fltol@f1+1)^0,f,c
  1956   001D3C  3643               	rlcf	(___fltol@f1+2)^0,f,c
  1957   001D3E  3644               	rlcf	(___fltol@f1+3)^0,f,c
  1958   001D40  064A               	decf	___fltol@exp1^0,f,c
  1959   001D42                     l2458:
  1960   001D42  504A               	movf	___fltol@exp1^0,w,c
  1961   001D44  A4D8               	btfss	status,2,c
  1962   001D46  EFA7  F00E         	goto	u1681
  1963   001D4A  EFA9  F00E         	goto	u1680
  1964   001D4E                     u1681:
  1965   001D4E  EF9B  F00E         	goto	l2456
  1966   001D52                     u1680:
  1967   001D52                     l2460:
  1968   001D52  5049               	movf	___fltol@sign1^0,w,c
  1969   001D54  B4D8               	btfsc	status,2,c
  1970   001D56  EFAF  F00E         	goto	u1691
  1971   001D5A  EFB1  F00E         	goto	u1690
  1972   001D5E                     u1691:
  1973   001D5E  EFB9  F00E         	goto	l2464
  1974   001D62                     u1690:
  1975   001D62  1E44               	comf	(___fltol@f1+3)^0,f,c
  1976   001D64  1E43               	comf	(___fltol@f1+2)^0,f,c
  1977   001D66  1E42               	comf	(___fltol@f1+1)^0,f,c
  1978   001D68  6C41               	negf	___fltol@f1^0,c
  1979   001D6A  0E00               	movlw	0
  1980   001D6C  2242               	addwfc	(___fltol@f1+1)^0,f,c
  1981   001D6E  2243               	addwfc	(___fltol@f1+2)^0,f,c
  1982   001D70  2244               	addwfc	(___fltol@f1+3)^0,f,c
  1983   001D72                     l2464:
  1984   001D72  C041  F041         	movff	___fltol@f1,?___fltol
  1985   001D76  C042  F042         	movff	___fltol@f1+1,?___fltol+1
  1986   001D7A  C043  F043         	movff	___fltol@f1+2,?___fltol+2
  1987   001D7E  C044  F044         	movff	___fltol@f1+3,?___fltol+3
  1988   001D82                     l690:
  1989   001D82  0012               	return		;funcret
  1990   001D84                     __end_of___fltol:
  1991                           	callstack 0
  1992                           
  1993 ;; *************** function ___flmul *****************
  1994 ;; Defined at:
  1995 ;;		line 8 in file "C:\Program Files\Microchip\xc8\v2.46\pic\sources\c99\common\sprcmul.c"
  1996 ;; Parameters:    Size  Location     Type
  1997 ;;  b               4   39[COMRAM] long 
  1998 ;;  a               4   43[COMRAM] long 
  1999 ;; Auto vars:     Size  Location     Type
  2000 ;;  prod            4   58[COMRAM] struct .
  2001 ;;  grs             4   52[COMRAM] unsigned long 
  2002 ;;  temp            2   62[COMRAM] struct .
  2003 ;;  bexp            1   57[COMRAM] unsigned char 
  2004 ;;  aexp            1   56[COMRAM] unsigned char 
  2005 ;;  sign            1   51[COMRAM] unsigned char 
  2006 ;; Return value:  Size  Location     Type
  2007 ;;                  4   39[COMRAM] unsigned char 
  2008 ;; Registers used:
  2009 ;;		wreg, status,2, status,0, prodl, prodh
  2010 ;; Tracked objects:
  2011 ;;		On entry : 0/0
  2012 ;;		On exit  : 0/0
  2013 ;;		Unchanged: 0/0
  2014 ;; Data sizes:     COMRAM   BANK0   BANK1   BANK2   BANK3   BANK4   BANK5   BANK6   BANK7   BANK8   BANK9  BANK10  BANK1
      +1  BANK12  BANK13  BANK14  BANK15
  2015 ;;      Params:         8       0       0       0       0       0       0       0       0       0       0       0       
      +0       0       0       0       0
  2016 ;;      Locals:        13       0       0       0       0       0       0       0       0       0       0       0       
      +0       0       0       0       0
  2017 ;;      Temps:          4       0       0       0       0       0       0       0       0       0       0       0       
      +0       0       0       0       0
  2018 ;;      Totals:        25       0       0       0       0       0       0       0       0       0       0       0       
      +0       0       0       0       0
  2019 ;;Total ram usage:       25 bytes
  2020 ;; Hardware stack levels used: 1
  2021 ;; This function calls:
  2022 ;;		Nothing
  2023 ;; This function is called by:
  2024 ;;		_main
  2025 ;; This function uses a non-reentrant model
  2026 ;;
  2027                           
  2028                           	psect	text10
  2029   001048                     __ptext10:
  2030                           	callstack 0
  2031   001048                     ___flmul:
  2032                           	callstack 30
  2033   001048  502B               	movf	(___flmul@b+3)^0,w,c
  2034   00104A  0B80               	andlw	128
  2035   00104C  6E34               	movwf	___flmul@sign^0,c
  2036   00104E  502B               	movf	(___flmul@b+3)^0,w,c
  2037   001050  242B               	addwf	(___flmul@b+3)^0,w,c
  2038   001052  6E3A               	movwf	___flmul@bexp^0,c
  2039   001054  AE2A               	btfss	(___flmul@b+2)^0,7,c
  2040   001056  EF2F  F008         	goto	u1441
  2041   00105A  EF31  F008         	goto	u1440
  2042   00105E                     u1441:
  2043   00105E  EF32  F008         	goto	l2300
  2044   001062                     u1440:
  2045   001062  803A               	bsf	___flmul@bexp^0,0,c
  2046   001064                     l2300:
  2047   001064  503A               	movf	___flmul@bexp^0,w,c
  2048   001066  B4D8               	btfsc	status,2,c
  2049   001068  EF38  F008         	goto	u1451
  2050   00106C  EF3A  F008         	goto	u1450
  2051   001070                     u1451:
  2052   001070  EF4D  F008         	goto	l2308
  2053   001074                     u1450:
  2054   001074  283A               	incf	___flmul@bexp^0,w,c
  2055   001076  A4D8               	btfss	status,2,c
  2056   001078  EF40  F008         	goto	u1461
  2057   00107C  EF42  F008         	goto	u1460
  2058   001080                     u1461:
  2059   001080  EF4A  F008         	goto	l2306
  2060   001084                     u1460:
  2061   001084  0E00               	movlw	0
  2062   001086  6E28               	movwf	___flmul@b^0,c
  2063   001088  0E00               	movlw	0
  2064   00108A  6E29               	movwf	(___flmul@b+1)^0,c
  2065   00108C  0E00               	movlw	0
  2066   00108E  6E2A               	movwf	(___flmul@b+2)^0,c
  2067   001090  0E00               	movlw	0
  2068   001092  6E2B               	movwf	(___flmul@b+3)^0,c
  2069   001094                     l2306:
  2070   001094  8E2A               	bsf	(___flmul@b+2)^0,7,c
  2071   001096  EF55  F008         	goto	l2310
  2072   00109A                     l2308:
  2073   00109A  0E00               	movlw	0
  2074   00109C  6E28               	movwf	___flmul@b^0,c
  2075   00109E  0E00               	movlw	0
  2076   0010A0  6E29               	movwf	(___flmul@b+1)^0,c
  2077   0010A2  0E00               	movlw	0
  2078   0010A4  6E2A               	movwf	(___flmul@b+2)^0,c
  2079   0010A6  0E00               	movlw	0
  2080   0010A8  6E2B               	movwf	(___flmul@b+3)^0,c
  2081   0010AA                     l2310:
  2082   0010AA  502F               	movf	(___flmul@a+3)^0,w,c
  2083   0010AC  0B80               	andlw	128
  2084   0010AE  1A34               	xorwf	___flmul@sign^0,f,c
  2085   0010B0  502F               	movf	(___flmul@a+3)^0,w,c
  2086   0010B2  242F               	addwf	(___flmul@a+3)^0,w,c
  2087   0010B4  6E39               	movwf	___flmul@aexp^0,c
  2088   0010B6  AE2E               	btfss	(___flmul@a+2)^0,7,c
  2089   0010B8  EF60  F008         	goto	u1471
  2090   0010BC  EF62  F008         	goto	u1470
  2091   0010C0                     u1471:
  2092   0010C0  EF63  F008         	goto	l2318
  2093   0010C4                     u1470:
  2094   0010C4  8039               	bsf	___flmul@aexp^0,0,c
  2095   0010C6                     l2318:
  2096   0010C6  5039               	movf	___flmul@aexp^0,w,c
  2097   0010C8  B4D8               	btfsc	status,2,c
  2098   0010CA  EF69  F008         	goto	u1481
  2099   0010CE  EF6B  F008         	goto	u1480
  2100   0010D2                     u1481:
  2101   0010D2  EF7E  F008         	goto	l2326
  2102   0010D6                     u1480:
  2103   0010D6  2839               	incf	___flmul@aexp^0,w,c
  2104   0010D8  A4D8               	btfss	status,2,c
  2105   0010DA  EF71  F008         	goto	u1491
  2106   0010DE  EF73  F008         	goto	u1490
  2107   0010E2                     u1491:
  2108   0010E2  EF7B  F008         	goto	l2324
  2109   0010E6                     u1490:
  2110   0010E6  0E00               	movlw	0
  2111   0010E8  6E2C               	movwf	___flmul@a^0,c
  2112   0010EA  0E00               	movlw	0
  2113   0010EC  6E2D               	movwf	(___flmul@a+1)^0,c
  2114   0010EE  0E00               	movlw	0
  2115   0010F0  6E2E               	movwf	(___flmul@a+2)^0,c
  2116   0010F2  0E00               	movlw	0
  2117   0010F4  6E2F               	movwf	(___flmul@a+3)^0,c
  2118   0010F6                     l2324:
  2119   0010F6  8E2E               	bsf	(___flmul@a+2)^0,7,c
  2120   0010F8  EF86  F008         	goto	l1007
  2121   0010FC                     l2326:
  2122   0010FC  0E00               	movlw	0
  2123   0010FE  6E2C               	movwf	___flmul@a^0,c
  2124   001100  0E00               	movlw	0
  2125   001102  6E2D               	movwf	(___flmul@a+1)^0,c
  2126   001104  0E00               	movlw	0
  2127   001106  6E2E               	movwf	(___flmul@a+2)^0,c
  2128   001108  0E00               	movlw	0
  2129   00110A  6E2F               	movwf	(___flmul@a+3)^0,c
  2130   00110C                     l1007:
  2131   00110C  5039               	movf	___flmul@aexp^0,w,c
  2132   00110E  B4D8               	btfsc	status,2,c
  2133   001110  EF8C  F008         	goto	u1501
  2134   001114  EF8E  F008         	goto	u1500
  2135   001118                     u1501:
  2136   001118  EF96  F008         	goto	l2330
  2137   00111C                     u1500:
  2138   00111C  503A               	movf	___flmul@bexp^0,w,c
  2139   00111E  A4D8               	btfss	status,2,c
  2140   001120  EF94  F008         	goto	u1511
  2141   001124  EF96  F008         	goto	u1510
  2142   001128                     u1511:
  2143   001128  EFA0  F008         	goto	l2334
  2144   00112C                     u1510:
  2145   00112C                     l2330:
  2146   00112C  0E00               	movlw	0
  2147   00112E  6E28               	movwf	?___flmul^0,c
  2148   001130  0E00               	movlw	0
  2149   001132  6E29               	movwf	(?___flmul+1)^0,c
  2150   001134  0E00               	movlw	0
  2151   001136  6E2A               	movwf	(?___flmul+2)^0,c
  2152   001138  0E00               	movlw	0
  2153   00113A  6E2B               	movwf	(?___flmul+3)^0,c
  2154   00113C  EF38  F00A         	goto	l1011
  2155   001140                     l2334:
  2156   001140  502E               	movf	(___flmul@a+2)^0,w,c
  2157   001142  0228               	mulwf	___flmul@b^0,c
  2158   001144  CFF3 F03F          	movff	prodl,___flmul@temp
  2159   001148  CFF4 F040          	movff	prodh,___flmul@temp+1
  2160   00114C  503F               	movf	___flmul@temp^0,w,c
  2161   00114E  6E35               	movwf	___flmul@grs^0,c
  2162   001150  6A36               	clrf	(___flmul@grs+1)^0,c
  2163   001152  6A37               	clrf	(___flmul@grs+2)^0,c
  2164   001154  6A38               	clrf	(___flmul@grs+3)^0,c
  2165   001156  5040               	movf	(___flmul@temp+1)^0,w,c
  2166   001158  6E3B               	movwf	___flmul@prod^0,c
  2167   00115A  6A3C               	clrf	(___flmul@prod+1)^0,c
  2168   00115C  6A3D               	clrf	(___flmul@prod+2)^0,c
  2169   00115E  6A3E               	clrf	(___flmul@prod+3)^0,c
  2170   001160  502D               	movf	(___flmul@a+1)^0,w,c
  2171   001162  0229               	mulwf	(___flmul@b+1)^0,c
  2172   001164  CFF3 F03F          	movff	prodl,___flmul@temp
  2173   001168  CFF4 F040          	movff	prodh,___flmul@temp+1
  2174   00116C  503F               	movf	___flmul@temp^0,w,c
  2175   00116E  2635               	addwf	___flmul@grs^0,f,c
  2176   001170  0E00               	movlw	0
  2177   001172  2236               	addwfc	(___flmul@grs+1)^0,f,c
  2178   001174  2237               	addwfc	(___flmul@grs+2)^0,f,c
  2179   001176  2238               	addwfc	(___flmul@grs+3)^0,f,c
  2180   001178  5040               	movf	(___flmul@temp+1)^0,w,c
  2181   00117A  263B               	addwf	___flmul@prod^0,f,c
  2182   00117C  0E00               	movlw	0
  2183   00117E  223C               	addwfc	(___flmul@prod+1)^0,f,c
  2184   001180  223D               	addwfc	(___flmul@prod+2)^0,f,c
  2185   001182  223E               	addwfc	(___flmul@prod+3)^0,f,c
  2186   001184  502C               	movf	___flmul@a^0,w,c
  2187   001186  022A               	mulwf	(___flmul@b+2)^0,c
  2188   001188  CFF3 F03F          	movff	prodl,___flmul@temp
  2189   00118C  CFF4 F040          	movff	prodh,___flmul@temp+1
  2190   001190  503F               	movf	___flmul@temp^0,w,c
  2191   001192  2635               	addwf	___flmul@grs^0,f,c
  2192   001194  0E00               	movlw	0
  2193   001196  2236               	addwfc	(___flmul@grs+1)^0,f,c
  2194   001198  2237               	addwfc	(___flmul@grs+2)^0,f,c
  2195   00119A  2238               	addwfc	(___flmul@grs+3)^0,f,c
  2196   00119C  5040               	movf	(___flmul@temp+1)^0,w,c
  2197   00119E  263B               	addwf	___flmul@prod^0,f,c
  2198   0011A0  0E00               	movlw	0
  2199   0011A2  223C               	addwfc	(___flmul@prod+1)^0,f,c
  2200   0011A4  223D               	addwfc	(___flmul@prod+2)^0,f,c
  2201   0011A6  223E               	addwfc	(___flmul@prod+3)^0,f,c
  2202   0011A8  C037  F038         	movff	___flmul@grs+2,___flmul@grs+3
  2203   0011AC  C036  F037         	movff	___flmul@grs+1,___flmul@grs+2
  2204   0011B0  C035  F036         	movff	___flmul@grs,___flmul@grs+1
  2205   0011B4  6A35               	clrf	___flmul@grs^0,c
  2206   0011B6  502C               	movf	___flmul@a^0,w,c
  2207   0011B8  0229               	mulwf	(___flmul@b+1)^0,c
  2208   0011BA  CFF3 F03F          	movff	prodl,___flmul@temp
  2209   0011BE  CFF4 F040          	movff	prodh,___flmul@temp+1
  2210   0011C2  503F               	movf	___flmul@temp^0,w,c
  2211   0011C4  2635               	addwf	___flmul@grs^0,f,c
  2212   0011C6  5040               	movf	(___flmul@temp+1)^0,w,c
  2213   0011C8  2236               	addwfc	(___flmul@grs+1)^0,f,c
  2214   0011CA  0E00               	movlw	0
  2215   0011CC  2237               	addwfc	(___flmul@grs+2)^0,f,c
  2216   0011CE  0E00               	movlw	0
  2217   0011D0  2238               	addwfc	(___flmul@grs+3)^0,f,c
  2218   0011D2  502D               	movf	(___flmul@a+1)^0,w,c
  2219   0011D4  0228               	mulwf	___flmul@b^0,c
  2220   0011D6  CFF3 F03F          	movff	prodl,___flmul@temp
  2221   0011DA  CFF4 F040          	movff	prodh,___flmul@temp+1
  2222   0011DE  503F               	movf	___flmul@temp^0,w,c
  2223   0011E0  2635               	addwf	___flmul@grs^0,f,c
  2224   0011E2  5040               	movf	(___flmul@temp+1)^0,w,c
  2225   0011E4  2236               	addwfc	(___flmul@grs+1)^0,f,c
  2226   0011E6  0E00               	movlw	0
  2227   0011E8  2237               	addwfc	(___flmul@grs+2)^0,f,c
  2228   0011EA  0E00               	movlw	0
  2229   0011EC  2238               	addwfc	(___flmul@grs+3)^0,f,c
  2230   0011EE  C037  F038         	movff	___flmul@grs+2,___flmul@grs+3
  2231   0011F2  C036  F037         	movff	___flmul@grs+1,___flmul@grs+2
  2232   0011F6  C035  F036         	movff	___flmul@grs,___flmul@grs+1
  2233   0011FA  6A35               	clrf	___flmul@grs^0,c
  2234   0011FC  502C               	movf	___flmul@a^0,w,c
  2235   0011FE  0228               	mulwf	___flmul@b^0,c
  2236   001200  CFF3 F03F          	movff	prodl,___flmul@temp
  2237   001204  CFF4 F040          	movff	prodh,___flmul@temp+1
  2238   001208  503F               	movf	___flmul@temp^0,w,c
  2239   00120A  2635               	addwf	___flmul@grs^0,f,c
  2240   00120C  5040               	movf	(___flmul@temp+1)^0,w,c
  2241   00120E  2236               	addwfc	(___flmul@grs+1)^0,f,c
  2242   001210  0E00               	movlw	0
  2243   001212  2237               	addwfc	(___flmul@grs+2)^0,f,c
  2244   001214  0E00               	movlw	0
  2245   001216  2238               	addwfc	(___flmul@grs+3)^0,f,c
  2246   001218  502E               	movf	(___flmul@a+2)^0,w,c
  2247   00121A  0229               	mulwf	(___flmul@b+1)^0,c
  2248   00121C  CFF3 F03F          	movff	prodl,___flmul@temp
  2249   001220  CFF4 F040          	movff	prodh,___flmul@temp+1
  2250   001224  503F               	movf	___flmul@temp^0,w,c
  2251   001226  263B               	addwf	___flmul@prod^0,f,c
  2252   001228  5040               	movf	(___flmul@temp+1)^0,w,c
  2253   00122A  223C               	addwfc	(___flmul@prod+1)^0,f,c
  2254   00122C  0E00               	movlw	0
  2255   00122E  223D               	addwfc	(___flmul@prod+2)^0,f,c
  2256   001230  0E00               	movlw	0
  2257   001232  223E               	addwfc	(___flmul@prod+3)^0,f,c
  2258   001234  502D               	movf	(___flmul@a+1)^0,w,c
  2259   001236  022A               	mulwf	(___flmul@b+2)^0,c
  2260   001238  CFF3 F03F          	movff	prodl,___flmul@temp
  2261   00123C  CFF4 F040          	movff	prodh,___flmul@temp+1
  2262   001240  503F               	movf	___flmul@temp^0,w,c
  2263   001242  263B               	addwf	___flmul@prod^0,f,c
  2264   001244  5040               	movf	(___flmul@temp+1)^0,w,c
  2265   001246  223C               	addwfc	(___flmul@prod+1)^0,f,c
  2266   001248  0E00               	movlw	0
  2267   00124A  223D               	addwfc	(___flmul@prod+2)^0,f,c
  2268   00124C  0E00               	movlw	0
  2269   00124E  223E               	addwfc	(___flmul@prod+3)^0,f,c
  2270   001250  502E               	movf	(___flmul@a+2)^0,w,c
  2271   001252  022A               	mulwf	(___flmul@b+2)^0,c
  2272   001254  CFF3 F03F          	movff	prodl,___flmul@temp
  2273   001258  CFF4 F040          	movff	prodh,___flmul@temp+1
  2274   00125C  503F               	movf	___flmul@temp^0,w,c
  2275   00125E  6E30               	movwf	??___flmul^0,c
  2276   001260  5040               	movf	(___flmul@temp+1)^0,w,c
  2277   001262  6E31               	movwf	(??___flmul+1)^0,c
  2278   001264  6A32               	clrf	(??___flmul+2)^0,c
  2279   001266  6A33               	clrf	(??___flmul+3)^0,c
  2280   001268  C032  F033         	movff	??___flmul+2,??___flmul+3
  2281   00126C  C031  F032         	movff	??___flmul+1,??___flmul+2
  2282   001270  C030  F031         	movff	??___flmul,??___flmul+1
  2283   001274  6A30               	clrf	??___flmul^0,c
  2284   001276  5030               	movf	??___flmul^0,w,c
  2285   001278  263B               	addwf	___flmul@prod^0,f,c
  2286   00127A  5031               	movf	(??___flmul+1)^0,w,c
  2287   00127C  223C               	addwfc	(___flmul@prod+1)^0,f,c
  2288   00127E  5032               	movf	(??___flmul+2)^0,w,c
  2289   001280  223D               	addwfc	(___flmul@prod+2)^0,f,c
  2290   001282  5033               	movf	(??___flmul+3)^0,w,c
  2291   001284  223E               	addwfc	(___flmul@prod+3)^0,f,c
  2292   001286  C035  F030         	movff	___flmul@grs,??___flmul
  2293   00128A  C036  F031         	movff	___flmul@grs+1,??___flmul+1
  2294   00128E  C037  F032         	movff	___flmul@grs+2,??___flmul+2
  2295   001292  C038  F033         	movff	___flmul@grs+3,??___flmul+3
  2296   001296  0E19               	movlw	25
  2297   001298  EF53  F009         	goto	u1520
  2298   00129C                     u1525:
  2299   00129C  90D8               	bcf	status,0,c
  2300   00129E  3233               	rrcf	(??___flmul+3)^0,f,c
  2301   0012A0  3232               	rrcf	(??___flmul+2)^0,f,c
  2302   0012A2  3231               	rrcf	(??___flmul+1)^0,f,c
  2303   0012A4  3230               	rrcf	??___flmul^0,f,c
  2304   0012A6                     u1520:
  2305   0012A6  2EE8               	decfsz	wreg,f,c
  2306   0012A8  EF4E  F009         	goto	u1525
  2307   0012AC  5030               	movf	??___flmul^0,w,c
  2308   0012AE  263B               	addwf	___flmul@prod^0,f,c
  2309   0012B0  5031               	movf	(??___flmul+1)^0,w,c
  2310   0012B2  223C               	addwfc	(___flmul@prod+1)^0,f,c
  2311   0012B4  5032               	movf	(??___flmul+2)^0,w,c
  2312   0012B6  223D               	addwfc	(___flmul@prod+2)^0,f,c
  2313   0012B8  5033               	movf	(??___flmul+3)^0,w,c
  2314   0012BA  223E               	addwfc	(___flmul@prod+3)^0,f,c
  2315   0012BC  C037  F038         	movff	___flmul@grs+2,___flmul@grs+3
  2316   0012C0  C036  F037         	movff	___flmul@grs+1,___flmul@grs+2
  2317   0012C4  C035  F036         	movff	___flmul@grs,___flmul@grs+1
  2318   0012C8  6A35               	clrf	___flmul@grs^0,c
  2319   0012CA  5039               	movf	___flmul@aexp^0,w,c
  2320   0012CC  C03A  F030         	movff	___flmul@bexp,??___flmul
  2321   0012D0  6A31               	clrf	(??___flmul+1)^0,c
  2322   0012D2  2630               	addwf	??___flmul^0,f,c
  2323   0012D4  0E00               	movlw	0
  2324   0012D6  2231               	addwfc	(??___flmul+1)^0,f,c
  2325   0012D8  0E82               	movlw	130
  2326   0012DA  2430               	addwf	??___flmul^0,w,c
  2327   0012DC  6E3F               	movwf	___flmul@temp^0,c
  2328   0012DE  0EFF               	movlw	255
  2329   0012E0  2031               	addwfc	(??___flmul+1)^0,w,c
  2330   0012E2  6E40               	movwf	(___flmul@temp+1)^0,c
  2331   0012E4  EF89  F009         	goto	l2382
  2332   0012E8                     l2376:
  2333   0012E8  90D8               	bcf	status,0,c
  2334   0012EA  363B               	rlcf	___flmul@prod^0,f,c
  2335   0012EC  363C               	rlcf	(___flmul@prod+1)^0,f,c
  2336   0012EE  363D               	rlcf	(___flmul@prod+2)^0,f,c
  2337   0012F0  363E               	rlcf	(___flmul@prod+3)^0,f,c
  2338   0012F2  AE38               	btfss	(___flmul@grs+3)^0,7,c
  2339   0012F4  EF7E  F009         	goto	u1531
  2340   0012F8  EF80  F009         	goto	u1530
  2341   0012FC                     u1531:
  2342   0012FC  EF81  F009         	goto	l1014
  2343   001300                     u1530:
  2344   001300  803B               	bsf	___flmul@prod^0,0,c
  2345   001302                     l1014:
  2346   001302  90D8               	bcf	status,0,c
  2347   001304  3635               	rlcf	___flmul@grs^0,f,c
  2348   001306  3636               	rlcf	(___flmul@grs+1)^0,f,c
  2349   001308  3637               	rlcf	(___flmul@grs+2)^0,f,c
  2350   00130A  3638               	rlcf	(___flmul@grs+3)^0,f,c
  2351   00130C  063F               	decf	___flmul@temp^0,f,c
  2352   00130E  A0D8               	btfss	status,0,c
  2353   001310  0640               	decf	(___flmul@temp+1)^0,f,c
  2354   001312                     l2382:
  2355   001312  AE3D               	btfss	(___flmul@prod+2)^0,7,c
  2356   001314  EF8E  F009         	goto	u1541
  2357   001318  EF90  F009         	goto	u1540
  2358   00131C                     u1541:
  2359   00131C  EF74  F009         	goto	l2376
  2360   001320                     u1540:
  2361   001320  0E00               	movlw	0
  2362   001322  6E39               	movwf	___flmul@aexp^0,c
  2363   001324  AE38               	btfss	(___flmul@grs+3)^0,7,c
  2364   001326  EF97  F009         	goto	u1551
  2365   00132A  EF99  F009         	goto	u1550
  2366   00132E                     u1551:
  2367   00132E  EFBD  F009         	goto	l1016
  2368   001332                     u1550:
  2369   001332  0EFF               	movlw	255
  2370   001334  1435               	andwf	___flmul@grs^0,w,c
  2371   001336  6E30               	movwf	??___flmul^0,c
  2372   001338  0EFF               	movlw	255
  2373   00133A  1436               	andwf	(___flmul@grs+1)^0,w,c
  2374   00133C  6E31               	movwf	(??___flmul+1)^0,c
  2375   00133E  0EFF               	movlw	255
  2376   001340  1437               	andwf	(___flmul@grs+2)^0,w,c
  2377   001342  6E32               	movwf	(??___flmul+2)^0,c
  2378   001344  0E7F               	movlw	127
  2379   001346  1438               	andwf	(___flmul@grs+3)^0,w,c
  2380   001348  6E33               	movwf	(??___flmul+3)^0,c
  2381   00134A  5030               	movf	??___flmul^0,w,c
  2382   00134C  1031               	iorwf	(??___flmul+1)^0,w,c
  2383   00134E  1032               	iorwf	(??___flmul+2)^0,w,c
  2384   001350  1033               	iorwf	(??___flmul+3)^0,w,c
  2385   001352  B4D8               	btfsc	status,2,c
  2386   001354  EFAE  F009         	goto	u1561
  2387   001358  EFB0  F009         	goto	u1560
  2388   00135C                     u1561:
  2389   00135C  EFB4  F009         	goto	l1017
  2390   001360                     u1560:
  2391   001360                     l2390:
  2392   001360  0E01               	movlw	1
  2393   001362  6E39               	movwf	___flmul@aexp^0,c
  2394   001364  EFBD  F009         	goto	l1016
  2395   001368                     l1017:
  2396   001368  A03B               	btfss	___flmul@prod^0,0,c
  2397   00136A  EFB9  F009         	goto	u1571
  2398   00136E  EFBB  F009         	goto	u1570
  2399   001372                     u1571:
  2400   001372  EFBD  F009         	goto	l1016
  2401   001376                     u1570:
  2402   001376  EFB0  F009         	goto	l2390
  2403   00137A                     l1016:
  2404   00137A  5039               	movf	___flmul@aexp^0,w,c
  2405   00137C  B4D8               	btfsc	status,2,c
  2406   00137E  EFC3  F009         	goto	u1581
  2407   001382  EFC5  F009         	goto	u1580
  2408   001386                     u1581:
  2409   001386  EFE9  F009         	goto	l2402
  2410   00138A                     u1580:
  2411   00138A  0E01               	movlw	1
  2412   00138C  263B               	addwf	___flmul@prod^0,f,c
  2413   00138E  0E00               	movlw	0
  2414   001390  223C               	addwfc	(___flmul@prod+1)^0,f,c
  2415   001392  223D               	addwfc	(___flmul@prod+2)^0,f,c
  2416   001394  223E               	addwfc	(___flmul@prod+3)^0,f,c
  2417   001396  A03E               	btfss	(___flmul@prod+3)^0,0,c
  2418   001398  EFD0  F009         	goto	u1591
  2419   00139C  EFD2  F009         	goto	u1590
  2420   0013A0                     u1591:
  2421   0013A0  EFE9  F009         	goto	l2402
  2422   0013A4                     u1590:
  2423   0013A4  C03B  F030         	movff	___flmul@prod,??___flmul
  2424   0013A8  C03C  F031         	movff	___flmul@prod+1,??___flmul+1
  2425   0013AC  C03D  F032         	movff	___flmul@prod+2,??___flmul+2
  2426   0013B0  C03E  F033         	movff	___flmul@prod+3,??___flmul+3
  2427   0013B4  3433               	rlcf	(??___flmul+3)^0,w,c
  2428   0013B6  3233               	rrcf	(??___flmul+3)^0,f,c
  2429   0013B8  3232               	rrcf	(??___flmul+2)^0,f,c
  2430   0013BA  3231               	rrcf	(??___flmul+1)^0,f,c
  2431   0013BC  3230               	rrcf	??___flmul^0,f,c
  2432   0013BE  C030  F03B         	movff	??___flmul,___flmul@prod
  2433   0013C2  C031  F03C         	movff	??___flmul+1,___flmul@prod+1
  2434   0013C6  C032  F03D         	movff	??___flmul+2,___flmul@prod+2
  2435   0013CA  C033  F03E         	movff	??___flmul+3,___flmul@prod+3
  2436   0013CE  4A3F               	infsnz	___flmul@temp^0,f,c
  2437   0013D0  2A40               	incf	(___flmul@temp+1)^0,f,c
  2438   0013D2                     l2402:
  2439   0013D2  BE40               	btfsc	(___flmul@temp+1)^0,7,c
  2440   0013D4  EFF4  F009         	goto	u1601
  2441   0013D8  5040               	movf	(___flmul@temp+1)^0,w,c
  2442   0013DA  E108               	bnz	u1600
  2443   0013DC  283F               	incf	___flmul@temp^0,w,c
  2444   0013DE  A0D8               	btfss	status,0,c
  2445   0013E0  EFF4  F009         	goto	u1601
  2446   0013E4  EFF6  F009         	goto	u1600
  2447   0013E8                     u1601:
  2448   0013E8  EF00  F00A         	goto	l2406
  2449   0013EC                     u1600:
  2450   0013EC  0E00               	movlw	0
  2451   0013EE  6E3B               	movwf	___flmul@prod^0,c
  2452   0013F0  0E00               	movlw	0
  2453   0013F2  6E3C               	movwf	(___flmul@prod+1)^0,c
  2454   0013F4  0E80               	movlw	128
  2455   0013F6  6E3D               	movwf	(___flmul@prod+2)^0,c
  2456   0013F8  0E7F               	movlw	127
  2457   0013FA  6E3E               	movwf	(___flmul@prod+3)^0,c
  2458   0013FC  EF2E  F00A         	goto	l2418
  2459   001400                     l2406:
  2460   001400  BE40               	btfsc	(___flmul@temp+1)^0,7,c
  2461   001402  EF0D  F00A         	goto	u1610
  2462   001406  5040               	movf	(___flmul@temp+1)^0,w,c
  2463   001408  E106               	bnz	u1611
  2464   00140A  043F               	decf	___flmul@temp^0,w,c
  2465   00140C  B0D8               	btfsc	status,0,c
  2466   00140E  EF0B  F00A         	goto	u1611
  2467   001412  EF0D  F00A         	goto	u1610
  2468   001416                     u1611:
  2469   001416  EF19  F00A         	goto	l1024
  2470   00141A                     u1610:
  2471   00141A  0E00               	movlw	0
  2472   00141C  6E3B               	movwf	___flmul@prod^0,c
  2473   00141E  0E00               	movlw	0
  2474   001420  6E3C               	movwf	(___flmul@prod+1)^0,c
  2475   001422  0E00               	movlw	0
  2476   001424  6E3D               	movwf	(___flmul@prod+2)^0,c
  2477   001426  0E00               	movlw	0
  2478   001428  6E3E               	movwf	(___flmul@prod+3)^0,c
  2479   00142A  0E00               	movlw	0
  2480   00142C  6E34               	movwf	___flmul@sign^0,c
  2481   00142E  EF2E  F00A         	goto	l2418
  2482   001432                     l1024:
  2483   001432  C03F  F03A         	movff	___flmul@temp,___flmul@bexp
  2484   001436  0EFF               	movlw	255
  2485   001438  163B               	andwf	___flmul@prod^0,f,c
  2486   00143A  0EFF               	movlw	255
  2487   00143C  163C               	andwf	(___flmul@prod+1)^0,f,c
  2488   00143E  0E7F               	movlw	127
  2489   001440  163D               	andwf	(___flmul@prod+2)^0,f,c
  2490   001442  0E00               	movlw	0
  2491   001444  163E               	andwf	(___flmul@prod+3)^0,f,c
  2492   001446  A03A               	btfss	___flmul@bexp^0,0,c
  2493   001448  EF28  F00A         	goto	u1621
  2494   00144C  EF2A  F00A         	goto	u1620
  2495   001450                     u1621:
  2496   001450  EF2B  F00A         	goto	l2416
  2497   001454                     u1620:
  2498   001454  8E3D               	bsf	(___flmul@prod+2)^0,7,c
  2499   001456                     l2416:
  2500   001456  90D8               	bcf	status,0,c
  2501   001458  303A               	rrcf	___flmul@bexp^0,w,c
  2502   00145A  6E3E               	movwf	(___flmul@prod+3)^0,c
  2503   00145C                     l2418:
  2504   00145C  5034               	movf	___flmul@sign^0,w,c
  2505   00145E  123E               	iorwf	(___flmul@prod+3)^0,f,c
  2506   001460  C03B  F028         	movff	___flmul@prod,?___flmul
  2507   001464  C03C  F029         	movff	___flmul@prod+1,?___flmul+1
  2508   001468  C03D  F02A         	movff	___flmul@prod+2,?___flmul+2
  2509   00146C  C03E  F02B         	movff	___flmul@prod+3,?___flmul+3
  2510   001470                     l1011:
  2511   001470  0012               	return		;funcret
  2512   001472                     __end_of___flmul:
  2513                           	callstack 0
  2514                           
  2515 ;; *************** function ___fldiv *****************
  2516 ;; Defined at:
  2517 ;;		line 11 in file "C:\Program Files\Microchip\xc8\v2.46\pic\sources\c99\common\sprcdiv.c"
  2518 ;; Parameters:    Size  Location     Type
  2519 ;;  b               4   14[COMRAM] unsigned char 
  2520 ;;  a               4   18[COMRAM] unsigned char 
  2521 ;; Auto vars:     Size  Location     Type
  2522 ;;  grs             4   33[COMRAM] unsigned long 
  2523 ;;  rem             4   26[COMRAM] unsigned long 
  2524 ;;  new_exp         2   31[COMRAM] short 
  2525 ;;  aexp            1   38[COMRAM] unsigned char 
  2526 ;;  bexp            1   37[COMRAM] unsigned char 
  2527 ;;  sign            1   30[COMRAM] unsigned char 
  2528 ;; Return value:  Size  Location     Type
  2529 ;;                  4   14[COMRAM] unsigned char 
  2530 ;; Registers used:
  2531 ;;		wreg, status,2, status,0
  2532 ;; Tracked objects:
  2533 ;;		On entry : 0/0
  2534 ;;		On exit  : 0/0
  2535 ;;		Unchanged: 0/0
  2536 ;; Data sizes:     COMRAM   BANK0   BANK1   BANK2   BANK3   BANK4   BANK5   BANK6   BANK7   BANK8   BANK9  BANK10  BANK1
      +1  BANK12  BANK13  BANK14  BANK15
  2537 ;;      Params:         8       0       0       0       0       0       0       0       0       0       0       0       
      +0       0       0       0       0
  2538 ;;      Locals:        13       0       0       0       0       0       0       0       0       0       0       0       
      +0       0       0       0       0
  2539 ;;      Temps:          4       0       0       0       0       0       0       0       0       0       0       0       
      +0       0       0       0       0
  2540 ;;      Totals:        25       0       0       0       0       0       0       0       0       0       0       0       
      +0       0       0       0       0
  2541 ;;Total ram usage:       25 bytes
  2542 ;; Hardware stack levels used: 1
  2543 ;; This function calls:
  2544 ;;		Nothing
  2545 ;; This function is called by:
  2546 ;;		_main
  2547 ;; This function uses a non-reentrant model
  2548 ;;
  2549                           
  2550                           	psect	text11
  2551   001472                     __ptext11:
  2552                           	callstack 0
  2553   001472                     ___fldiv:
  2554                           	callstack 30
  2555   001472  5012               	movf	(___fldiv@b+3)^0,w,c
  2556   001474  0B80               	andlw	128
  2557   001476  6E1F               	movwf	___fldiv@sign^0,c
  2558   001478  5012               	movf	(___fldiv@b+3)^0,w,c
  2559   00147A  2412               	addwf	(___fldiv@b+3)^0,w,c
  2560   00147C  6E26               	movwf	___fldiv@bexp^0,c
  2561   00147E  AE11               	btfss	(___fldiv@b+2)^0,7,c
  2562   001480  EF44  F00A         	goto	u1211
  2563   001484  EF46  F00A         	goto	u1210
  2564   001488                     u1211:
  2565   001488  EF47  F00A         	goto	l2162
  2566   00148C                     u1210:
  2567   00148C  8026               	bsf	___fldiv@bexp^0,0,c
  2568   00148E                     l2162:
  2569   00148E  5026               	movf	___fldiv@bexp^0,w,c
  2570   001490  B4D8               	btfsc	status,2,c
  2571   001492  EF4D  F00A         	goto	u1221
  2572   001496  EF4F  F00A         	goto	u1220
  2573   00149A                     u1221:
  2574   00149A  EF64  F00A         	goto	l2172
  2575   00149E                     u1220:
  2576   00149E  2826               	incf	___fldiv@bexp^0,w,c
  2577   0014A0  A4D8               	btfss	status,2,c
  2578   0014A2  EF55  F00A         	goto	u1231
  2579   0014A6  EF57  F00A         	goto	u1230
  2580   0014AA                     u1231:
  2581   0014AA  EF5F  F00A         	goto	l2168
  2582   0014AE                     u1230:
  2583   0014AE  0E00               	movlw	0
  2584   0014B0  6E0F               	movwf	___fldiv@b^0,c
  2585   0014B2  0E00               	movlw	0
  2586   0014B4  6E10               	movwf	(___fldiv@b+1)^0,c
  2587   0014B6  0E00               	movlw	0
  2588   0014B8  6E11               	movwf	(___fldiv@b+2)^0,c
  2589   0014BA  0E00               	movlw	0
  2590   0014BC  6E12               	movwf	(___fldiv@b+3)^0,c
  2591   0014BE                     l2168:
  2592   0014BE  8E11               	bsf	(___fldiv@b+2)^0,7,c
  2593   0014C0  0E00               	movlw	0
  2594   0014C2  6E12               	movwf	(___fldiv@b+3)^0,c
  2595   0014C4  EF6C  F00A         	goto	l2174
  2596   0014C8                     l2172:
  2597   0014C8  0E00               	movlw	0
  2598   0014CA  6E0F               	movwf	___fldiv@b^0,c
  2599   0014CC  0E00               	movlw	0
  2600   0014CE  6E10               	movwf	(___fldiv@b+1)^0,c
  2601   0014D0  0E00               	movlw	0
  2602   0014D2  6E11               	movwf	(___fldiv@b+2)^0,c
  2603   0014D4  0E00               	movlw	0
  2604   0014D6  6E12               	movwf	(___fldiv@b+3)^0,c
  2605   0014D8                     l2174:
  2606   0014D8  5016               	movf	(___fldiv@a+3)^0,w,c
  2607   0014DA  0B80               	andlw	128
  2608   0014DC  1A1F               	xorwf	___fldiv@sign^0,f,c
  2609   0014DE  5016               	movf	(___fldiv@a+3)^0,w,c
  2610   0014E0  2416               	addwf	(___fldiv@a+3)^0,w,c
  2611   0014E2  6E27               	movwf	___fldiv@aexp^0,c
  2612   0014E4  AE15               	btfss	(___fldiv@a+2)^0,7,c
  2613   0014E6  EF77  F00A         	goto	u1241
  2614   0014EA  EF79  F00A         	goto	u1240
  2615   0014EE                     u1241:
  2616   0014EE  EF7A  F00A         	goto	l2182
  2617   0014F2                     u1240:
  2618   0014F2  8027               	bsf	___fldiv@aexp^0,0,c
  2619   0014F4                     l2182:
  2620   0014F4  5027               	movf	___fldiv@aexp^0,w,c
  2621   0014F6  B4D8               	btfsc	status,2,c
  2622   0014F8  EF80  F00A         	goto	u1251
  2623   0014FC  EF82  F00A         	goto	u1250
  2624   001500                     u1251:
  2625   001500  EF97  F00A         	goto	l2192
  2626   001504                     u1250:
  2627   001504  2827               	incf	___fldiv@aexp^0,w,c
  2628   001506  A4D8               	btfss	status,2,c
  2629   001508  EF88  F00A         	goto	u1261
  2630   00150C  EF8A  F00A         	goto	u1260
  2631   001510                     u1261:
  2632   001510  EF92  F00A         	goto	l2188
  2633   001514                     u1260:
  2634   001514  0E00               	movlw	0
  2635   001516  6E13               	movwf	___fldiv@a^0,c
  2636   001518  0E00               	movlw	0
  2637   00151A  6E14               	movwf	(___fldiv@a+1)^0,c
  2638   00151C  0E00               	movlw	0
  2639   00151E  6E15               	movwf	(___fldiv@a+2)^0,c
  2640   001520  0E00               	movlw	0
  2641   001522  6E16               	movwf	(___fldiv@a+3)^0,c
  2642   001524                     l2188:
  2643   001524  8E15               	bsf	(___fldiv@a+2)^0,7,c
  2644   001526  0E00               	movlw	0
  2645   001528  6E16               	movwf	(___fldiv@a+3)^0,c
  2646   00152A  EF9F  F00A         	goto	l2194
  2647   00152E                     l2192:
  2648   00152E  0E00               	movlw	0
  2649   001530  6E13               	movwf	___fldiv@a^0,c
  2650   001532  0E00               	movlw	0
  2651   001534  6E14               	movwf	(___fldiv@a+1)^0,c
  2652   001536  0E00               	movlw	0
  2653   001538  6E15               	movwf	(___fldiv@a+2)^0,c
  2654   00153A  0E00               	movlw	0
  2655   00153C  6E16               	movwf	(___fldiv@a+3)^0,c
  2656   00153E                     l2194:
  2657   00153E  5013               	movf	___fldiv@a^0,w,c
  2658   001540  1014               	iorwf	(___fldiv@a+1)^0,w,c
  2659   001542  1015               	iorwf	(___fldiv@a+2)^0,w,c
  2660   001544  1016               	iorwf	(___fldiv@a+3)^0,w,c
  2661   001546  A4D8               	btfss	status,2,c
  2662   001548  EFA8  F00A         	goto	u1271
  2663   00154C  EFAA  F00A         	goto	u1270
  2664   001550                     u1271:
  2665   001550  EFC2  F00A         	goto	l2206
  2666   001554                     u1270:
  2667   001554  0E00               	movlw	0
  2668   001556  6E0F               	movwf	___fldiv@b^0,c
  2669   001558  0E00               	movlw	0
  2670   00155A  6E10               	movwf	(___fldiv@b+1)^0,c
  2671   00155C  0E00               	movlw	0
  2672   00155E  6E11               	movwf	(___fldiv@b+2)^0,c
  2673   001560  0E00               	movlw	0
  2674   001562  6E12               	movwf	(___fldiv@b+3)^0,c
  2675   001564  0E80               	movlw	128
  2676   001566  1211               	iorwf	(___fldiv@b+2)^0,f,c
  2677   001568  0E7F               	movlw	127
  2678   00156A  1212               	iorwf	(___fldiv@b+3)^0,f,c
  2679   00156C                     l2200:
  2680   00156C  501F               	movf	___fldiv@sign^0,w,c
  2681   00156E  1212               	iorwf	(___fldiv@b+3)^0,f,c
  2682   001570  C00F  F00F         	movff	___fldiv@b,?___fldiv
  2683   001574  C010  F010         	movff	___fldiv@b+1,?___fldiv+1
  2684   001578  C011  F011         	movff	___fldiv@b+2,?___fldiv+2
  2685   00157C  C012  F012         	movff	___fldiv@b+3,?___fldiv+3
  2686   001580  EF05  F00C         	goto	l975
  2687   001584                     l2206:
  2688   001584  5026               	movf	___fldiv@bexp^0,w,c
  2689   001586  A4D8               	btfss	status,2,c
  2690   001588  EFC8  F00A         	goto	u1281
  2691   00158C  EFCA  F00A         	goto	u1280
  2692   001590                     u1281:
  2693   001590  EFD4  F00A         	goto	l2214
  2694   001594                     u1280:
  2695   001594  0E00               	movlw	0
  2696   001596  6E0F               	movwf	?___fldiv^0,c
  2697   001598  0E00               	movlw	0
  2698   00159A  6E10               	movwf	(?___fldiv+1)^0,c
  2699   00159C  0E00               	movlw	0
  2700   00159E  6E11               	movwf	(?___fldiv+2)^0,c
  2701   0015A0  0E00               	movlw	0
  2702   0015A2  6E12               	movwf	(?___fldiv+3)^0,c
  2703   0015A4  EF05  F00C         	goto	l975
  2704   0015A8                     l2214:
  2705   0015A8  5027               	movf	___fldiv@aexp^0,w,c
  2706   0015AA  C026  F017         	movff	___fldiv@bexp,??___fldiv
  2707   0015AE  6A18               	clrf	(??___fldiv+1)^0,c
  2708   0015B0  5E17               	subwf	??___fldiv^0,f,c
  2709   0015B2  0E00               	movlw	0
  2710   0015B4  5A18               	subwfb	(??___fldiv+1)^0,f,c
  2711   0015B6  0E7F               	movlw	127
  2712   0015B8  2417               	addwf	??___fldiv^0,w,c
  2713   0015BA  6E20               	movwf	___fldiv@new_exp^0,c
  2714   0015BC  0E00               	movlw	0
  2715   0015BE  2018               	addwfc	(??___fldiv+1)^0,w,c
  2716   0015C0  6E21               	movwf	(___fldiv@new_exp+1)^0,c
  2717   0015C2  C00F  F01B         	movff	___fldiv@b,___fldiv@rem
  2718   0015C6  C010  F01C         	movff	___fldiv@b+1,___fldiv@rem+1
  2719   0015CA  C011  F01D         	movff	___fldiv@b+2,___fldiv@rem+2
  2720   0015CE  C012  F01E         	movff	___fldiv@b+3,___fldiv@rem+3
  2721   0015D2  0E00               	movlw	0
  2722   0015D4  6E0F               	movwf	___fldiv@b^0,c
  2723   0015D6  0E00               	movlw	0
  2724   0015D8  6E10               	movwf	(___fldiv@b+1)^0,c
  2725   0015DA  0E00               	movlw	0
  2726   0015DC  6E11               	movwf	(___fldiv@b+2)^0,c
  2727   0015DE  0E00               	movlw	0
  2728   0015E0  6E12               	movwf	(___fldiv@b+3)^0,c
  2729   0015E2  0E00               	movlw	0
  2730   0015E4  6E22               	movwf	___fldiv@grs^0,c
  2731   0015E6  0E00               	movlw	0
  2732   0015E8  6E23               	movwf	(___fldiv@grs+1)^0,c
  2733   0015EA  0E00               	movlw	0
  2734   0015EC  6E24               	movwf	(___fldiv@grs+2)^0,c
  2735   0015EE  0E00               	movlw	0
  2736   0015F0  6E25               	movwf	(___fldiv@grs+3)^0,c
  2737   0015F2  0E00               	movlw	0
  2738   0015F4  6E27               	movwf	___fldiv@aexp^0,c
  2739   0015F6  EF35  F00B         	goto	l977
  2740   0015FA                     l2224:
  2741   0015FA  5027               	movf	___fldiv@aexp^0,w,c
  2742   0015FC  B4D8               	btfsc	status,2,c
  2743   0015FE  EF03  F00B         	goto	u1291
  2744   001602  EF05  F00B         	goto	u1290
  2745   001606                     u1291:
  2746   001606  EF1C  F00B         	goto	l2232
  2747   00160A                     u1290:
  2748   00160A  90D8               	bcf	status,0,c
  2749   00160C  361B               	rlcf	___fldiv@rem^0,f,c
  2750   00160E  361C               	rlcf	(___fldiv@rem+1)^0,f,c
  2751   001610  361D               	rlcf	(___fldiv@rem+2)^0,f,c
  2752   001612  361E               	rlcf	(___fldiv@rem+3)^0,f,c
  2753   001614  90D8               	bcf	status,0,c
  2754   001616  360F               	rlcf	___fldiv@b^0,f,c
  2755   001618  3610               	rlcf	(___fldiv@b+1)^0,f,c
  2756   00161A  3611               	rlcf	(___fldiv@b+2)^0,f,c
  2757   00161C  3612               	rlcf	(___fldiv@b+3)^0,f,c
  2758   00161E  AE25               	btfss	(___fldiv@grs+3)^0,7,c
  2759   001620  EF14  F00B         	goto	u1301
  2760   001624  EF16  F00B         	goto	u1300
  2761   001628                     u1301:
  2762   001628  EF17  F00B         	goto	l980
  2763   00162C                     u1300:
  2764   00162C  800F               	bsf	___fldiv@b^0,0,c
  2765   00162E                     l980:
  2766   00162E  90D8               	bcf	status,0,c
  2767   001630  3622               	rlcf	___fldiv@grs^0,f,c
  2768   001632  3623               	rlcf	(___fldiv@grs+1)^0,f,c
  2769   001634  3624               	rlcf	(___fldiv@grs+2)^0,f,c
  2770   001636  3625               	rlcf	(___fldiv@grs+3)^0,f,c
  2771   001638                     l2232:
  2772   001638  5013               	movf	___fldiv@a^0,w,c
  2773   00163A  5C1B               	subwf	___fldiv@rem^0,w,c
  2774   00163C  5014               	movf	(___fldiv@a+1)^0,w,c
  2775   00163E  581C               	subwfb	(___fldiv@rem+1)^0,w,c
  2776   001640  5015               	movf	(___fldiv@a+2)^0,w,c
  2777   001642  581D               	subwfb	(___fldiv@rem+2)^0,w,c
  2778   001644  5016               	movf	(___fldiv@a+3)^0,w,c
  2779   001646  581E               	subwfb	(___fldiv@rem+3)^0,w,c
  2780   001648  A0D8               	btfss	status,0,c
  2781   00164A  EF29  F00B         	goto	u1311
  2782   00164E  EF2B  F00B         	goto	u1310
  2783   001652                     u1311:
  2784   001652  EF34  F00B         	goto	l2238
  2785   001656                     u1310:
  2786   001656  8C25               	bsf	(___fldiv@grs+3)^0,6,c
  2787   001658  5013               	movf	___fldiv@a^0,w,c
  2788   00165A  5E1B               	subwf	___fldiv@rem^0,f,c
  2789   00165C  5014               	movf	(___fldiv@a+1)^0,w,c
  2790   00165E  5A1C               	subwfb	(___fldiv@rem+1)^0,f,c
  2791   001660  5015               	movf	(___fldiv@a+2)^0,w,c
  2792   001662  5A1D               	subwfb	(___fldiv@rem+2)^0,f,c
  2793   001664  5016               	movf	(___fldiv@a+3)^0,w,c
  2794   001666  5A1E               	subwfb	(___fldiv@rem+3)^0,f,c
  2795   001668                     l2238:
  2796   001668  2A27               	incf	___fldiv@aexp^0,f,c
  2797   00166A                     l977:
  2798   00166A  0E19               	movlw	25
  2799   00166C  6427               	cpfsgt	___fldiv@aexp^0,c
  2800   00166E  EF3B  F00B         	goto	u1321
  2801   001672  EF3D  F00B         	goto	u1320
  2802   001676                     u1321:
  2803   001676  EFFD  F00A         	goto	l2224
  2804   00167A                     u1320:
  2805   00167A  501B               	movf	___fldiv@rem^0,w,c
  2806   00167C  101C               	iorwf	(___fldiv@rem+1)^0,w,c
  2807   00167E  101D               	iorwf	(___fldiv@rem+2)^0,w,c
  2808   001680  101E               	iorwf	(___fldiv@rem+3)^0,w,c
  2809   001682  B4D8               	btfsc	status,2,c
  2810   001684  EF46  F00B         	goto	u1331
  2811   001688  EF48  F00B         	goto	u1330
  2812   00168C                     u1331:
  2813   00168C  EF60  F00B         	goto	l2250
  2814   001690                     u1330:
  2815   001690  8022               	bsf	___fldiv@grs^0,0,c
  2816   001692  EF60  F00B         	goto	l2250
  2817   001696                     l2244:
  2818   001696  90D8               	bcf	status,0,c
  2819   001698  360F               	rlcf	___fldiv@b^0,f,c
  2820   00169A  3610               	rlcf	(___fldiv@b+1)^0,f,c
  2821   00169C  3611               	rlcf	(___fldiv@b+2)^0,f,c
  2822   00169E  3612               	rlcf	(___fldiv@b+3)^0,f,c
  2823   0016A0  AE25               	btfss	(___fldiv@grs+3)^0,7,c
  2824   0016A2  EF55  F00B         	goto	u1341
  2825   0016A6  EF57  F00B         	goto	u1340
  2826   0016AA                     u1341:
  2827   0016AA  EF58  F00B         	goto	l986
  2828   0016AE                     u1340:
  2829   0016AE  800F               	bsf	___fldiv@b^0,0,c
  2830   0016B0                     l986:
  2831   0016B0  90D8               	bcf	status,0,c
  2832   0016B2  3622               	rlcf	___fldiv@grs^0,f,c
  2833   0016B4  3623               	rlcf	(___fldiv@grs+1)^0,f,c
  2834   0016B6  3624               	rlcf	(___fldiv@grs+2)^0,f,c
  2835   0016B8  3625               	rlcf	(___fldiv@grs+3)^0,f,c
  2836   0016BA  0620               	decf	___fldiv@new_exp^0,f,c
  2837   0016BC  A0D8               	btfss	status,0,c
  2838   0016BE  0621               	decf	(___fldiv@new_exp+1)^0,f,c
  2839   0016C0                     l2250:
  2840   0016C0  AE11               	btfss	(___fldiv@b+2)^0,7,c
  2841   0016C2  EF65  F00B         	goto	u1351
  2842   0016C6  EF67  F00B         	goto	u1350
  2843   0016CA                     u1351:
  2844   0016CA  EF4B  F00B         	goto	l2244
  2845   0016CE                     u1350:
  2846   0016CE  0E00               	movlw	0
  2847   0016D0  6E27               	movwf	___fldiv@aexp^0,c
  2848   0016D2  AE25               	btfss	(___fldiv@grs+3)^0,7,c
  2849   0016D4  EF6E  F00B         	goto	u1361
  2850   0016D8  EF70  F00B         	goto	u1360
  2851   0016DC                     u1361:
  2852   0016DC  EF94  F00B         	goto	l988
  2853   0016E0                     u1360:
  2854   0016E0  0EFF               	movlw	255
  2855   0016E2  1422               	andwf	___fldiv@grs^0,w,c
  2856   0016E4  6E17               	movwf	??___fldiv^0,c
  2857   0016E6  0EFF               	movlw	255
  2858   0016E8  1423               	andwf	(___fldiv@grs+1)^0,w,c
  2859   0016EA  6E18               	movwf	(??___fldiv+1)^0,c
  2860   0016EC  0EFF               	movlw	255
  2861   0016EE  1424               	andwf	(___fldiv@grs+2)^0,w,c
  2862   0016F0  6E19               	movwf	(??___fldiv+2)^0,c
  2863   0016F2  0E7F               	movlw	127
  2864   0016F4  1425               	andwf	(___fldiv@grs+3)^0,w,c
  2865   0016F6  6E1A               	movwf	(??___fldiv+3)^0,c
  2866   0016F8  5017               	movf	??___fldiv^0,w,c
  2867   0016FA  1018               	iorwf	(??___fldiv+1)^0,w,c
  2868   0016FC  1019               	iorwf	(??___fldiv+2)^0,w,c
  2869   0016FE  101A               	iorwf	(??___fldiv+3)^0,w,c
  2870   001700  B4D8               	btfsc	status,2,c
  2871   001702  EF85  F00B         	goto	u1371
  2872   001706  EF87  F00B         	goto	u1370
  2873   00170A                     u1371:
  2874   00170A  EF8B  F00B         	goto	l989
  2875   00170E                     u1370:
  2876   00170E                     l2258:
  2877   00170E  0E01               	movlw	1
  2878   001710  6E27               	movwf	___fldiv@aexp^0,c
  2879   001712  EF94  F00B         	goto	l988
  2880   001716                     l989:
  2881   001716  A00F               	btfss	___fldiv@b^0,0,c
  2882   001718  EF90  F00B         	goto	u1381
  2883   00171C  EF92  F00B         	goto	u1380
  2884   001720                     u1381:
  2885   001720  EF94  F00B         	goto	l988
  2886   001724                     u1380:
  2887   001724  EF87  F00B         	goto	l2258
  2888   001728                     l988:
  2889   001728  5027               	movf	___fldiv@aexp^0,w,c
  2890   00172A  B4D8               	btfsc	status,2,c
  2891   00172C  EF9A  F00B         	goto	u1391
  2892   001730  EF9C  F00B         	goto	u1390
  2893   001734                     u1391:
  2894   001734  EFC0  F00B         	goto	l2270
  2895   001738                     u1390:
  2896   001738  0E01               	movlw	1
  2897   00173A  260F               	addwf	___fldiv@b^0,f,c
  2898   00173C  0E00               	movlw	0
  2899   00173E  2210               	addwfc	(___fldiv@b+1)^0,f,c
  2900   001740  2211               	addwfc	(___fldiv@b+2)^0,f,c
  2901   001742  2212               	addwfc	(___fldiv@b+3)^0,f,c
  2902   001744  A012               	btfss	(___fldiv@b+3)^0,0,c
  2903   001746  EFA7  F00B         	goto	u1401
  2904   00174A  EFA9  F00B         	goto	u1400
  2905   00174E                     u1401:
  2906   00174E  EFC0  F00B         	goto	l2270
  2907   001752                     u1400:
  2908   001752  C00F  F017         	movff	___fldiv@b,??___fldiv
  2909   001756  C010  F018         	movff	___fldiv@b+1,??___fldiv+1
  2910   00175A  C011  F019         	movff	___fldiv@b+2,??___fldiv+2
  2911   00175E  C012  F01A         	movff	___fldiv@b+3,??___fldiv+3
  2912   001762  341A               	rlcf	(??___fldiv+3)^0,w,c
  2913   001764  321A               	rrcf	(??___fldiv+3)^0,f,c
  2914   001766  3219               	rrcf	(??___fldiv+2)^0,f,c
  2915   001768  3218               	rrcf	(??___fldiv+1)^0,f,c
  2916   00176A  3217               	rrcf	??___fldiv^0,f,c
  2917   00176C  C017  F00F         	movff	??___fldiv,___fldiv@b
  2918   001770  C018  F010         	movff	??___fldiv+1,___fldiv@b+1
  2919   001774  C019  F011         	movff	??___fldiv+2,___fldiv@b+2
  2920   001778  C01A  F012         	movff	??___fldiv+3,___fldiv@b+3
  2921   00177C  4A20               	infsnz	___fldiv@new_exp^0,f,c
  2922   00177E  2A21               	incf	(___fldiv@new_exp+1)^0,f,c
  2923   001780                     l2270:
  2924   001780  BE21               	btfsc	(___fldiv@new_exp+1)^0,7,c
  2925   001782  EFCB  F00B         	goto	u1411
  2926   001786  5021               	movf	(___fldiv@new_exp+1)^0,w,c
  2927   001788  E108               	bnz	u1410
  2928   00178A  2820               	incf	___fldiv@new_exp^0,w,c
  2929   00178C  A0D8               	btfss	status,0,c
  2930   00178E  EFCB  F00B         	goto	u1411
  2931   001792  EFCD  F00B         	goto	u1410
  2932   001796                     u1411:
  2933   001796  EFD8  F00B         	goto	l2274
  2934   00179A                     u1410:
  2935   00179A  0E00               	movlw	0
  2936   00179C  6E21               	movwf	(___fldiv@new_exp+1)^0,c
  2937   00179E  6820               	setf	___fldiv@new_exp^0,c
  2938   0017A0  0E00               	movlw	0
  2939   0017A2  6E0F               	movwf	___fldiv@b^0,c
  2940   0017A4  0E00               	movlw	0
  2941   0017A6  6E10               	movwf	(___fldiv@b+1)^0,c
  2942   0017A8  0E00               	movlw	0
  2943   0017AA  6E11               	movwf	(___fldiv@b+2)^0,c
  2944   0017AC  0E00               	movlw	0
  2945   0017AE  6E12               	movwf	(___fldiv@b+3)^0,c
  2946   0017B0                     l2274:
  2947   0017B0  BE21               	btfsc	(___fldiv@new_exp+1)^0,7,c
  2948   0017B2  EFE5  F00B         	goto	u1420
  2949   0017B6  5021               	movf	(___fldiv@new_exp+1)^0,w,c
  2950   0017B8  E106               	bnz	u1421
  2951   0017BA  0420               	decf	___fldiv@new_exp^0,w,c
  2952   0017BC  B0D8               	btfsc	status,0,c
  2953   0017BE  EFE3  F00B         	goto	u1421
  2954   0017C2  EFE5  F00B         	goto	u1420
  2955   0017C6                     u1421:
  2956   0017C6  EFF3  F00B         	goto	l2278
  2957   0017CA                     u1420:
  2958   0017CA  0E00               	movlw	0
  2959   0017CC  6E21               	movwf	(___fldiv@new_exp+1)^0,c
  2960   0017CE  0E00               	movlw	0
  2961   0017D0  6E20               	movwf	___fldiv@new_exp^0,c
  2962   0017D2  0E00               	movlw	0
  2963   0017D4  6E0F               	movwf	___fldiv@b^0,c
  2964   0017D6  0E00               	movlw	0
  2965   0017D8  6E10               	movwf	(___fldiv@b+1)^0,c
  2966   0017DA  0E00               	movlw	0
  2967   0017DC  6E11               	movwf	(___fldiv@b+2)^0,c
  2968   0017DE  0E00               	movlw	0
  2969   0017E0  6E12               	movwf	(___fldiv@b+3)^0,c
  2970   0017E2  0E00               	movlw	0
  2971   0017E4  6E1F               	movwf	___fldiv@sign^0,c
  2972   0017E6                     l2278:
  2973   0017E6  C020  F026         	movff	___fldiv@new_exp,___fldiv@bexp
  2974   0017EA  A026               	btfss	___fldiv@bexp^0,0,c
  2975   0017EC  EFFA  F00B         	goto	u1431
  2976   0017F0  EFFC  F00B         	goto	u1430
  2977   0017F4                     u1431:
  2978   0017F4  EFFF  F00B         	goto	l2284
  2979   0017F8                     u1430:
  2980   0017F8  8E11               	bsf	(___fldiv@b+2)^0,7,c
  2981   0017FA  EF00  F00C         	goto	l2286
  2982   0017FE                     l2284:
  2983   0017FE  9E11               	bcf	(___fldiv@b+2)^0,7,c
  2984   001800                     l2286:
  2985   001800  90D8               	bcf	status,0,c
  2986   001802  3026               	rrcf	___fldiv@bexp^0,w,c
  2987   001804  6E12               	movwf	(___fldiv@b+3)^0,c
  2988   001806  EFB6  F00A         	goto	l2200
  2989   00180A                     l975:
  2990   00180A  0012               	return		;funcret
  2991   00180C                     __end_of___fldiv:
  2992                           	callstack 0
  2993                           
  2994 ;; *************** function _SYSTEM_Initialize *****************
  2995 ;; Defined at:
  2996 ;;		line 39 in file "mcc_generated_files/system/src/system.c"
  2997 ;; Parameters:    Size  Location     Type
  2998 ;;		None
  2999 ;; Auto vars:     Size  Location     Type
  3000 ;;		None
  3001 ;; Return value:  Size  Location     Type
  3002 ;;                  1    wreg      void 
  3003 ;; Registers used:
  3004 ;;		wreg, status,2, status,0, cstack
  3005 ;; Tracked objects:
  3006 ;;		On entry : 0/0
  3007 ;;		On exit  : 0/0
  3008 ;;		Unchanged: 0/0
  3009 ;; Data sizes:     COMRAM   BANK0   BANK1   BANK2   BANK3   BANK4   BANK5   BANK6   BANK7   BANK8   BANK9  BANK10  BANK1
      +1  BANK12  BANK13  BANK14  BANK15
  3010 ;;      Params:         0       0       0       0       0       0       0       0       0       0       0       0       
      +0       0       0       0       0
  3011 ;;      Locals:         0       0       0       0       0       0       0       0       0       0       0       0       
      +0       0       0       0       0
  3012 ;;      Temps:          0       0       0       0       0       0       0       0       0       0       0       0       
      +0       0       0       0       0
  3013 ;;      Totals:         0       0       0       0       0       0       0       0       0       0       0       0       
      +0       0       0       0       0
  3014 ;;Total ram usage:        0 bytes
  3015 ;; Hardware stack levels used: 1
  3016 ;; Hardware stack levels required when called: 2
  3017 ;; This function calls:
  3018 ;;		_ADC_Initialize
  3019 ;;		_CLOCK_Initialize
  3020 ;;		_EUSART_Initialize
  3021 ;;		_INTERRUPT_Initialize
  3022 ;;		_PIN_MANAGER_Initialize
  3023 ;; This function is called by:
  3024 ;;		_main
  3025 ;; This function uses a non-reentrant model
  3026 ;;
  3027                           
  3028                           	psect	text12
  3029   0022EC                     __ptext12:
  3030                           	callstack 0
  3031   0022EC                     _SYSTEM_Initialize:
  3032                           	callstack 28
  3033   0022EC                     
  3034                           ;mcc_generated_files/system/src/system.c: 41:     CLOCK_Initialize();
  3035   0022EC  ECA2  F011         	call	_CLOCK_Initialize	;wreg free
  3036                           
  3037                           ;mcc_generated_files/system/src/system.c: 42:     PIN_MANAGER_Initialize();
  3038   0022F0  EC08  F011         	call	_PIN_MANAGER_Initialize	;wreg free
  3039                           
  3040                           ;mcc_generated_files/system/src/system.c: 43:     ADC_Initialize();
  3041   0022F4  EC6A  F011         	call	_ADC_Initialize	;wreg free
  3042   0022F8                     
  3043                           ;mcc_generated_files/system/src/system.c: 44:     EUSART_Initialize();
  3044   0022F8  ECB8  F010         	call	_EUSART_Initialize	;wreg free
  3045   0022FC                     
  3046                           ;mcc_generated_files/system/src/system.c: 45:     INTERRUPT_Initialize();
  3047   0022FC  ECEE  F010         	call	_INTERRUPT_Initialize	;wreg free
  3048   002300  0012               	return		;funcret
  3049   002302                     __end_of_SYSTEM_Initialize:
  3050                           	callstack 0
  3051                           
  3052 ;; *************** function _PIN_MANAGER_Initialize *****************
  3053 ;; Defined at:
  3054 ;;		line 38 in file "mcc_generated_files/system/src/pins.c"
  3055 ;; Parameters:    Size  Location     Type
  3056 ;;		None
  3057 ;; Auto vars:     Size  Location     Type
  3058 ;;		None
  3059 ;; Return value:  Size  Location     Type
  3060 ;;                  1    wreg      void 
  3061 ;; Registers used:
  3062 ;;		wreg, status,2
  3063 ;; Tracked objects:
  3064 ;;		On entry : 0/0
  3065 ;;		On exit  : 0/0
  3066 ;;		Unchanged: 0/0
  3067 ;; Data sizes:     COMRAM   BANK0   BANK1   BANK2   BANK3   BANK4   BANK5   BANK6   BANK7   BANK8   BANK9  BANK10  BANK1
      +1  BANK12  BANK13  BANK14  BANK15
  3068 ;;      Params:         0       0       0       0       0       0       0       0       0       0       0       0       
      +0       0       0       0       0
  3069 ;;      Locals:         0       0       0       0       0       0       0       0       0       0       0       0       
      +0       0       0       0       0
  3070 ;;      Temps:          0       0       0       0       0       0       0       0       0       0       0       0       
      +0       0       0       0       0
  3071 ;;      Totals:         0       0       0       0       0       0       0       0       0       0       0       0       
      +0       0       0       0       0
  3072 ;;Total ram usage:        0 bytes
  3073 ;; Hardware stack levels used: 1
  3074 ;; This function calls:
  3075 ;;		Nothing
  3076 ;; This function is called by:
  3077 ;;		_SYSTEM_Initialize
  3078 ;; This function uses a non-reentrant model
  3079 ;;
  3080                           
  3081                           	psect	text13
  3082   002210                     __ptext13:
  3083                           	callstack 0
  3084   002210                     _PIN_MANAGER_Initialize:
  3085                           	callstack 29
  3086   002210                     
  3087                           ;mcc_generated_files/system/src/pins.c: 43:     LATA = 0x0;
  3088   002210  0E00               	movlw	0
  3089   002212  6E89               	movwf	137,c	;volatile
  3090                           
  3091                           ;mcc_generated_files/system/src/pins.c: 44:     LATB = 0x0;
  3092   002214  0E00               	movlw	0
  3093   002216  6E8A               	movwf	138,c	;volatile
  3094                           
  3095                           ;mcc_generated_files/system/src/pins.c: 45:     LATC = 0x0;
  3096   002218  0E00               	movlw	0
  3097   00221A  6E8B               	movwf	139,c	;volatile
  3098                           
  3099                           ;mcc_generated_files/system/src/pins.c: 46:     LATD = 0x0;
  3100   00221C  0E00               	movlw	0
  3101   00221E  6E8C               	movwf	140,c	;volatile
  3102                           
  3103                           ;mcc_generated_files/system/src/pins.c: 47:     LATE = 0x0;
  3104   002220  0E00               	movlw	0
  3105   002222  6E8D               	movwf	141,c	;volatile
  3106   002224                     
  3107                           ;mcc_generated_files/system/src/pins.c: 55:     TRISA = 0xFF;
  3108   002224  6892               	setf	146,c	;volatile
  3109   002226                     
  3110                           ;mcc_generated_files/system/src/pins.c: 56:     TRISB = 0xFF;
  3111   002226  6893               	setf	147,c	;volatile
  3112                           
  3113                           ;mcc_generated_files/system/src/pins.c: 57:     TRISC = 0xBF;
  3114   002228  0EBF               	movlw	191
  3115   00222A  6E94               	movwf	148,c	;volatile
  3116   00222C                     
  3117                           ;mcc_generated_files/system/src/pins.c: 58:     TRISD = 0xFF;
  3118   00222C  6895               	setf	149,c	;volatile
  3119                           
  3120                           ;mcc_generated_files/system/src/pins.c: 59:     TRISE = 0x7;
  3121   00222E  0E07               	movlw	7
  3122   002230  6E96               	movwf	150,c	;volatile
  3123                           
  3124                           ;mcc_generated_files/system/src/pins.c: 64:     ANSELH = 0x1F;
  3125   002232  0E1F               	movlw	31
  3126   002234  6E7F               	movwf	127,c	;volatile
  3127   002236                     
  3128                           ;mcc_generated_files/system/src/pins.c: 69:     WPUB = 0xFF;
  3129   002236  687C               	setf	124,c	;volatile
  3130                           
  3131                           ;mcc_generated_files/system/src/pins.c: 90:     IOCB = 0x0;
  3132   002238  0E00               	movlw	0
  3133   00223A  6E7D               	movwf	125,c	;volatile
  3134   00223C                     
  3135                           ;mcc_generated_files/system/src/pins.c: 94:     INTCONbits.RBIE = 1;
  3136   00223C  86F2               	bsf	242,3,c	;volatile
  3137   00223E  0012               	return		;funcret
  3138   002240                     __end_of_PIN_MANAGER_Initialize:
  3139                           	callstack 0
  3140                           
  3141 ;; *************** function _INTERRUPT_Initialize *****************
  3142 ;; Defined at:
  3143 ;;		line 42 in file "mcc_generated_files/system/src/interrupt.c"
  3144 ;; Parameters:    Size  Location     Type
  3145 ;;		None
  3146 ;; Auto vars:     Size  Location     Type
  3147 ;;		None
  3148 ;; Return value:  Size  Location     Type
  3149 ;;                  1    wreg      void 
  3150 ;; Registers used:
  3151 ;;		wreg, status,2, status,0, cstack
  3152 ;; Tracked objects:
  3153 ;;		On entry : 0/0
  3154 ;;		On exit  : 0/0
  3155 ;;		Unchanged: 0/0
  3156 ;; Data sizes:     COMRAM   BANK0   BANK1   BANK2   BANK3   BANK4   BANK5   BANK6   BANK7   BANK8   BANK9  BANK10  BANK1
      +1  BANK12  BANK13  BANK14  BANK15
  3157 ;;      Params:         0       0       0       0       0       0       0       0       0       0       0       0       
      +0       0       0       0       0
  3158 ;;      Locals:         0       0       0       0       0       0       0       0       0       0       0       0       
      +0       0       0       0       0
  3159 ;;      Temps:          0       0       0       0       0       0       0       0       0       0       0       0       
      +0       0       0       0       0
  3160 ;;      Totals:         0       0       0       0       0       0       0       0       0       0       0       0       
      +0       0       0       0       0
  3161 ;;Total ram usage:        0 bytes
  3162 ;; Hardware stack levels used: 1
  3163 ;; Hardware stack levels required when called: 1
  3164 ;; This function calls:
  3165 ;;		_INT0_SetInterruptHandler
  3166 ;;		_INT1_SetInterruptHandler
  3167 ;;		_INT2_SetInterruptHandler
  3168 ;; This function is called by:
  3169 ;;		_SYSTEM_Initialize
  3170 ;; This function uses a non-reentrant model
  3171 ;;
  3172                           
  3173                           	psect	text14
  3174   0021DC                     __ptext14:
  3175                           	callstack 0
  3176   0021DC                     _INTERRUPT_Initialize:
  3177                           	callstack 28
  3178   0021DC                     
  3179                           ;mcc_generated_files/system/src/interrupt.c: 45:     RCONbits.IPEN = 0;
  3180   0021DC  9ED0               	bcf	208,7,c	;volatile
  3181                           
  3182                           ;mcc_generated_files/system/src/interrupt.c: 49:     (INTCONbits.INT0IF = 0);
  3183   0021DE  92F2               	bcf	242,1,c	;volatile
  3184                           
  3185                           ;mcc_generated_files/system/src/interrupt.c: 50:     (INTCON2bits.INTEDG0 = 1);
  3186   0021E0  8CF1               	bsf	241,6,c	;volatile
  3187   0021E2                     
  3188                           ;mcc_generated_files/system/src/interrupt.c: 52:     INT0_SetInterruptHandler(INT0_Defau
      +                          ltInterruptHandler);
  3189   0021E2  0E00               	movlw	0
  3190   0021E4  6E01               	movwf	INT0_SetInterruptHandler@InterruptHandler^0,c
  3191   0021E6  0E00               	movlw	0
  3192   0021E8  6E02               	movwf	(INT0_SetInterruptHandler@InterruptHandler+1)^0,c
  3193   0021EA  EC9D  F011         	call	_INT0_SetInterruptHandler	;wreg free
  3194   0021EE                     
  3195                           ;mcc_generated_files/system/src/interrupt.c: 57:     (INTCON3bits.INT1IF = 0);
  3196   0021EE  90F0               	bcf	240,0,c	;volatile
  3197   0021F0                     
  3198                           ;mcc_generated_files/system/src/interrupt.c: 58:     (INTCON2bits.INTEDG1 = 1);
  3199   0021F0  8AF1               	bsf	241,5,c	;volatile
  3200                           
  3201                           ;mcc_generated_files/system/src/interrupt.c: 60:     INT1_SetInterruptHandler(INT1_Defau
      +                          ltInterruptHandler);
  3202   0021F2  0E00               	movlw	0
  3203   0021F4  6E01               	movwf	INT1_SetInterruptHandler@InterruptHandler^0,c
  3204   0021F6  0E00               	movlw	0
  3205   0021F8  6E02               	movwf	(INT1_SetInterruptHandler@InterruptHandler+1)^0,c
  3206   0021FA  EC98  F011         	call	_INT1_SetInterruptHandler	;wreg free
  3207   0021FE                     
  3208                           ;mcc_generated_files/system/src/interrupt.c: 65:     (INTCON3bits.INT2IF = 0);
  3209   0021FE  92F0               	bcf	240,1,c	;volatile
  3210   002200                     
  3211                           ;mcc_generated_files/system/src/interrupt.c: 66:     (INTCON2bits.INTEDG2 = 1);
  3212   002200  88F1               	bsf	241,4,c	;volatile
  3213                           
  3214                           ;mcc_generated_files/system/src/interrupt.c: 68:     INT2_SetInterruptHandler(INT2_Defau
      +                          ltInterruptHandler);
  3215   002202  0E00               	movlw	0
  3216   002204  6E01               	movwf	INT2_SetInterruptHandler@InterruptHandler^0,c
  3217   002206  0E00               	movlw	0
  3218   002208  6E02               	movwf	(INT2_SetInterruptHandler@InterruptHandler+1)^0,c
  3219   00220A  EC93  F011         	call	_INT2_SetInterruptHandler	;wreg free
  3220   00220E  0012               	return		;funcret
  3221   002210                     __end_of_INTERRUPT_Initialize:
  3222                           	callstack 0
  3223                           
  3224 ;; *************** function _INT2_SetInterruptHandler *****************
  3225 ;; Defined at:
  3226 ;;		line 144 in file "mcc_generated_files/system/src/interrupt.c"
  3227 ;; Parameters:    Size  Location     Type
  3228 ;;  InterruptHan    2    0[COMRAM] PTR FTN()void 
  3229 ;;		 -> INT2_DefaultInterruptHandler(1), 
  3230 ;; Auto vars:     Size  Location     Type
  3231 ;;		None
  3232 ;; Return value:  Size  Location     Type
  3233 ;;                  1    wreg      void 
  3234 ;; Registers used:
  3235 ;;		wreg, status,2, status,0
  3236 ;; Tracked objects:
  3237 ;;		On entry : 0/0
  3238 ;;		On exit  : 0/0
  3239 ;;		Unchanged: 0/0
  3240 ;; Data sizes:     COMRAM   BANK0   BANK1   BANK2   BANK3   BANK4   BANK5   BANK6   BANK7   BANK8   BANK9  BANK10  BANK1
      +1  BANK12  BANK13  BANK14  BANK15
  3241 ;;      Params:         2       0       0       0       0       0       0       0       0       0       0       0       
      +0       0       0       0       0
  3242 ;;      Locals:         0       0       0       0       0       0       0       0       0       0       0       0       
      +0       0       0       0       0
  3243 ;;      Temps:          0       0       0       0       0       0       0       0       0       0       0       0       
      +0       0       0       0       0
  3244 ;;      Totals:         2       0       0       0       0       0       0       0       0       0       0       0       
      +0       0       0       0       0
  3245 ;;Total ram usage:        2 bytes
  3246 ;; Hardware stack levels used: 1
  3247 ;; This function calls:
  3248 ;;		Nothing
  3249 ;; This function is called by:
  3250 ;;		_INTERRUPT_Initialize
  3251 ;; This function uses a non-reentrant model
  3252 ;;
  3253                           
  3254                           	psect	text15
  3255   002326                     __ptext15:
  3256                           	callstack 0
  3257   002326                     _INT2_SetInterruptHandler:
  3258                           	callstack 28
  3259   002326                     
  3260                           ;mcc_generated_files/system/src/interrupt.c: 145:     INT2_InterruptHandler = InterruptH
      +                          andler;
  3261   002326  C001  F08A         	movff	INT2_SetInterruptHandler@InterruptHandler,_INT2_InterruptHandler
  3262   00232A  C002  F08B         	movff	INT2_SetInterruptHandler@InterruptHandler+1,_INT2_InterruptHandler+1
  3263   00232E  0012               	return		;funcret
  3264   002330                     __end_of_INT2_SetInterruptHandler:
  3265                           	callstack 0
  3266                           
  3267 ;; *************** function _INT1_SetInterruptHandler *****************
  3268 ;; Defined at:
  3269 ;;		line 118 in file "mcc_generated_files/system/src/interrupt.c"
  3270 ;; Parameters:    Size  Location     Type
  3271 ;;  InterruptHan    2    0[COMRAM] PTR FTN()void 
  3272 ;;		 -> INT1_DefaultInterruptHandler(1), 
  3273 ;; Auto vars:     Size  Location     Type
  3274 ;;		None
  3275 ;; Return value:  Size  Location     Type
  3276 ;;                  1    wreg      void 
  3277 ;; Registers used:
  3278 ;;		wreg, status,2, status,0
  3279 ;; Tracked objects:
  3280 ;;		On entry : 0/0
  3281 ;;		On exit  : 0/0
  3282 ;;		Unchanged: 0/0
  3283 ;; Data sizes:     COMRAM   BANK0   BANK1   BANK2   BANK3   BANK4   BANK5   BANK6   BANK7   BANK8   BANK9  BANK10  BANK1
      +1  BANK12  BANK13  BANK14  BANK15
  3284 ;;      Params:         2       0       0       0       0       0       0       0       0       0       0       0       
      +0       0       0       0       0
  3285 ;;      Locals:         0       0       0       0       0       0       0       0       0       0       0       0       
      +0       0       0       0       0
  3286 ;;      Temps:          0       0       0       0       0       0       0       0       0       0       0       0       
      +0       0       0       0       0
  3287 ;;      Totals:         2       0       0       0       0       0       0       0       0       0       0       0       
      +0       0       0       0       0
  3288 ;;Total ram usage:        2 bytes
  3289 ;; Hardware stack levels used: 1
  3290 ;; This function calls:
  3291 ;;		Nothing
  3292 ;; This function is called by:
  3293 ;;		_INTERRUPT_Initialize
  3294 ;; This function uses a non-reentrant model
  3295 ;;
  3296                           
  3297                           	psect	text16
  3298   002330                     __ptext16:
  3299                           	callstack 0
  3300   002330                     _INT1_SetInterruptHandler:
  3301                           	callstack 28
  3302   002330                     
  3303                           ;mcc_generated_files/system/src/interrupt.c: 119:     INT1_InterruptHandler = InterruptH
      +                          andler;
  3304   002330  C001  F05A         	movff	INT1_SetInterruptHandler@InterruptHandler,_INT1_InterruptHandler
  3305   002334  C002  F05B         	movff	INT1_SetInterruptHandler@InterruptHandler+1,_INT1_InterruptHandler+1
  3306   002338  0012               	return		;funcret
  3307   00233A                     __end_of_INT1_SetInterruptHandler:
  3308                           	callstack 0
  3309                           
  3310 ;; *************** function _INT0_SetInterruptHandler *****************
  3311 ;; Defined at:
  3312 ;;		line 92 in file "mcc_generated_files/system/src/interrupt.c"
  3313 ;; Parameters:    Size  Location     Type
  3314 ;;  InterruptHan    2    0[COMRAM] PTR FTN()void 
  3315 ;;		 -> INT0_DefaultInterruptHandler(1), 
  3316 ;; Auto vars:     Size  Location     Type
  3317 ;;		None
  3318 ;; Return value:  Size  Location     Type
  3319 ;;                  1    wreg      void 
  3320 ;; Registers used:
  3321 ;;		wreg, status,2, status,0
  3322 ;; Tracked objects:
  3323 ;;		On entry : 0/0
  3324 ;;		On exit  : 0/0
  3325 ;;		Unchanged: 0/0
  3326 ;; Data sizes:     COMRAM   BANK0   BANK1   BANK2   BANK3   BANK4   BANK5   BANK6   BANK7   BANK8   BANK9  BANK10  BANK1
      +1  BANK12  BANK13  BANK14  BANK15
  3327 ;;      Params:         2       0       0       0       0       0       0       0       0       0       0       0       
      +0       0       0       0       0
  3328 ;;      Locals:         0       0       0       0       0       0       0       0       0       0       0       0       
      +0       0       0       0       0
  3329 ;;      Temps:          0       0       0       0       0       0       0       0       0       0       0       0       
      +0       0       0       0       0
  3330 ;;      Totals:         2       0       0       0       0       0       0       0       0       0       0       0       
      +0       0       0       0       0
  3331 ;;Total ram usage:        2 bytes
  3332 ;; Hardware stack levels used: 1
  3333 ;; This function calls:
  3334 ;;		Nothing
  3335 ;; This function is called by:
  3336 ;;		_INTERRUPT_Initialize
  3337 ;; This function uses a non-reentrant model
  3338 ;;
  3339                           
  3340                           	psect	text17
  3341   00233A                     __ptext17:
  3342                           	callstack 0
  3343   00233A                     _INT0_SetInterruptHandler:
  3344                           	callstack 28
  3345   00233A                     
  3346                           ;mcc_generated_files/system/src/interrupt.c: 93:     INT0_InterruptHandler = InterruptHa
      +                          ndler;
  3347   00233A  C001  F05C         	movff	INT0_SetInterruptHandler@InterruptHandler,_INT0_InterruptHandler
  3348   00233E  C002  F05D         	movff	INT0_SetInterruptHandler@InterruptHandler+1,_INT0_InterruptHandler+1
  3349   002342  0012               	return		;funcret
  3350   002344                     __end_of_INT0_SetInterruptHandler:
  3351                           	callstack 0
  3352                           
  3353 ;; *************** function _EUSART_Initialize *****************
  3354 ;; Defined at:
  3355 ;;		line 94 in file "mcc_generated_files/uart/src/eusart.c"
  3356 ;; Parameters:    Size  Location     Type
  3357 ;;		None
  3358 ;; Auto vars:     Size  Location     Type
  3359 ;;		None
  3360 ;; Return value:  Size  Location     Type
  3361 ;;                  1    wreg      void 
  3362 ;; Registers used:
  3363 ;;		wreg, status,2, status,0, cstack
  3364 ;; Tracked objects:
  3365 ;;		On entry : 0/0
  3366 ;;		On exit  : 0/0
  3367 ;;		Unchanged: 0/0
  3368 ;; Data sizes:     COMRAM   BANK0   BANK1   BANK2   BANK3   BANK4   BANK5   BANK6   BANK7   BANK8   BANK9  BANK10  BANK1
      +1  BANK12  BANK13  BANK14  BANK15
  3369 ;;      Params:         0       0       0       0       0       0       0       0       0       0       0       0       
      +0       0       0       0       0
  3370 ;;      Locals:         0       0       0       0       0       0       0       0       0       0       0       0       
      +0       0       0       0       0
  3371 ;;      Temps:          0       0       0       0       0       0       0       0       0       0       0       0       
      +0       0       0       0       0
  3372 ;;      Totals:         0       0       0       0       0       0       0       0       0       0       0       0       
      +0       0       0       0       0
  3373 ;;Total ram usage:        0 bytes
  3374 ;; Hardware stack levels used: 1
  3375 ;; Hardware stack levels required when called: 1
  3376 ;; This function calls:
  3377 ;;		_EUSART_FramingErrorCallbackRegister
  3378 ;;		_EUSART_OverrunErrorCallbackRegister
  3379 ;; This function is called by:
  3380 ;;		_SYSTEM_Initialize
  3381 ;; This function uses a non-reentrant model
  3382 ;;
  3383                           
  3384                           	psect	text18
  3385   002170                     __ptext18:
  3386                           	callstack 0
  3387   002170                     _EUSART_Initialize:
  3388                           	callstack 28
  3389   002170                     
  3390                           ;mcc_generated_files/uart/src/eusart.c: 99:     BAUDCON = 0x48;
  3391   002170  0E48               	movlw	72
  3392   002172  6EB8               	movwf	184,c	;volatile
  3393                           
  3394                           ;mcc_generated_files/uart/src/eusart.c: 101:     RCSTA = 0x90;
  3395   002174  0E90               	movlw	144
  3396   002176  6EAB               	movwf	171,c	;volatile
  3397                           
  3398                           ;mcc_generated_files/uart/src/eusart.c: 103:     TXSTA = 0x26;
  3399   002178  0E26               	movlw	38
  3400   00217A  6EAC               	movwf	172,c	;volatile
  3401                           
  3402                           ;mcc_generated_files/uart/src/eusart.c: 105:     SPBRG = 0xA0;
  3403   00217C  0EA0               	movlw	160
  3404   00217E  6EAF               	movwf	175,c	;volatile
  3405                           
  3406                           ;mcc_generated_files/uart/src/eusart.c: 107:     SPBRGH = 0x1;
  3407   002180  0E01               	movlw	1
  3408   002182  6EB0               	movwf	176,c	;volatile
  3409   002184                     
  3410                           ;mcc_generated_files/uart/src/eusart.c: 109:     EUSART_FramingErrorCallbackRegister(EUS
      +                          ART_DefaultFramingErrorCallback);
  3411   002184  0E00               	movlw	0
  3412   002186  6E01               	movwf	EUSART_FramingErrorCallbackRegister@callbackHandler^0,c
  3413   002188  0E00               	movlw	0
  3414   00218A  6E02               	movwf	(EUSART_FramingErrorCallbackRegister@callbackHandler+1)^0,c
  3415   00218C  EC4F  F011         	call	_EUSART_FramingErrorCallbackRegister	;wreg free
  3416   002190                     
  3417                           ;mcc_generated_files/uart/src/eusart.c: 110:     EUSART_OverrunErrorCallbackRegister(EUS
      +                          ART_DefaultOverrunErrorCallback);
  3418   002190  0E00               	movlw	0
  3419   002192  6E01               	movwf	EUSART_OverrunErrorCallbackRegister@callbackHandler^0,c
  3420   002194  0E00               	movlw	0
  3421   002196  6E02               	movwf	(EUSART_OverrunErrorCallbackRegister@callbackHandler+1)^0,c
  3422   002198  EC41  F011         	call	_EUSART_OverrunErrorCallbackRegister	;wreg free
  3423                           
  3424                           ;mcc_generated_files/uart/src/eusart.c: 111:     eusartRxLastError.status = 0;
  3425   00219C  0E00               	movlw	0
  3426   00219E  0100               	movlb	0	; () banked
  3427   0021A0  6F89               	movwf	(_eusartRxLastError+1)& (0+255),b	;volatile
  3428   0021A2  0E00               	movlw	0
  3429   0021A4  6F88               	movwf	_eusartRxLastError& (0+255),b	;volatile
  3430   0021A6                     
  3431                           ; BSR set to: 0
  3432   0021A6  0012               	return		;funcret
  3433   0021A8                     __end_of_EUSART_Initialize:
  3434                           	callstack 0
  3435                           
  3436 ;; *************** function _EUSART_OverrunErrorCallbackRegister *****************
  3437 ;; Defined at:
  3438 ;;		line 260 in file "mcc_generated_files/uart/src/eusart.c"
  3439 ;; Parameters:    Size  Location     Type
  3440 ;;  callbackHand    2    0[COMRAM] PTR FTN()void 
  3441 ;;		 -> EUSART_DefaultOverrunErrorCallback(1), 
  3442 ;; Auto vars:     Size  Location     Type
  3443 ;;		None
  3444 ;; Return value:  Size  Location     Type
  3445 ;;                  1    wreg      void 
  3446 ;; Registers used:
  3447 ;;		wreg, status,2, status,0
  3448 ;; Tracked objects:
  3449 ;;		On entry : 0/0
  3450 ;;		On exit  : 0/0
  3451 ;;		Unchanged: 0/0
  3452 ;; Data sizes:     COMRAM   BANK0   BANK1   BANK2   BANK3   BANK4   BANK5   BANK6   BANK7   BANK8   BANK9  BANK10  BANK1
      +1  BANK12  BANK13  BANK14  BANK15
  3453 ;;      Params:         2       0       0       0       0       0       0       0       0       0       0       0       
      +0       0       0       0       0
  3454 ;;      Locals:         0       0       0       0       0       0       0       0       0       0       0       0       
      +0       0       0       0       0
  3455 ;;      Temps:          0       0       0       0       0       0       0       0       0       0       0       0       
      +0       0       0       0       0
  3456 ;;      Totals:         2       0       0       0       0       0       0       0       0       0       0       0       
      +0       0       0       0       0
  3457 ;;Total ram usage:        2 bytes
  3458 ;; Hardware stack levels used: 1
  3459 ;; This function calls:
  3460 ;;		Nothing
  3461 ;; This function is called by:
  3462 ;;		_EUSART_Initialize
  3463 ;; This function uses a non-reentrant model
  3464 ;;
  3465                           
  3466                           	psect	text19
  3467   002282                     __ptext19:
  3468                           	callstack 0
  3469   002282                     _EUSART_OverrunErrorCallbackRegister:
  3470                           	callstack 28
  3471   002282                     
  3472                           ;mcc_generated_files/uart/src/eusart.c: 260: void EUSART_OverrunErrorCallbackRegister(vo
      +                          id (* callbackHandler)(void));mcc_generated_files/uart/src/eusart.c: 261: {;mcc_generate
      +                          d_files/uart/src/eusart.c: 262:     if(((void*)0) != callbackHandler)
  3473   002282  5001               	movf	EUSART_OverrunErrorCallbackRegister@callbackHandler^0,w,c
  3474   002284  1002               	iorwf	(EUSART_OverrunErrorCallbackRegister@callbackHandler+1)^0,w,c
  3475   002286  B4D8               	btfsc	status,2,c
  3476   002288  EF48  F011         	goto	u1101
  3477   00228C  EF4A  F011         	goto	u1100
  3478   002290                     u1101:
  3479   002290  EF4E  F011         	goto	l390
  3480   002294                     u1100:
  3481   002294                     
  3482                           ;mcc_generated_files/uart/src/eusart.c: 263:     {;mcc_generated_files/uart/src/eusart.c
      +                          : 264:         EUSART_OverrunErrorHandler = callbackHandler;
  3483   002294  C001  F084         	movff	EUSART_OverrunErrorCallbackRegister@callbackHandler,_EUSART_OverrunErrorHandler
  3484   002298  C002  F085         	movff	EUSART_OverrunErrorCallbackRegister@callbackHandler+1,_EUSART_OverrunErrorHandler
      +                          +1
  3485   00229C                     l390:
  3486   00229C  0012               	return		;funcret
  3487   00229E                     __end_of_EUSART_OverrunErrorCallbackRegister:
  3488                           	callstack 0
  3489                           
  3490 ;; *************** function _EUSART_FramingErrorCallbackRegister *****************
  3491 ;; Defined at:
  3492 ;;		line 252 in file "mcc_generated_files/uart/src/eusart.c"
  3493 ;; Parameters:    Size  Location     Type
  3494 ;;  callbackHand    2    0[COMRAM] PTR FTN()void 
  3495 ;;		 -> EUSART_DefaultFramingErrorCallback(1), 
  3496 ;; Auto vars:     Size  Location     Type
  3497 ;;		None
  3498 ;; Return value:  Size  Location     Type
  3499 ;;                  1    wreg      void 
  3500 ;; Registers used:
  3501 ;;		wreg, status,2, status,0
  3502 ;; Tracked objects:
  3503 ;;		On entry : 0/0
  3504 ;;		On exit  : 0/0
  3505 ;;		Unchanged: 0/0
  3506 ;; Data sizes:     COMRAM   BANK0   BANK1   BANK2   BANK3   BANK4   BANK5   BANK6   BANK7   BANK8   BANK9  BANK10  BANK1
      +1  BANK12  BANK13  BANK14  BANK15
  3507 ;;      Params:         2       0       0       0       0       0       0       0       0       0       0       0       
      +0       0       0       0       0
  3508 ;;      Locals:         0       0       0       0       0       0       0       0       0       0       0       0       
      +0       0       0       0       0
  3509 ;;      Temps:          0       0       0       0       0       0       0       0       0       0       0       0       
      +0       0       0       0       0
  3510 ;;      Totals:         2       0       0       0       0       0       0       0       0       0       0       0       
      +0       0       0       0       0
  3511 ;;Total ram usage:        2 bytes
  3512 ;; Hardware stack levels used: 1
  3513 ;; This function calls:
  3514 ;;		Nothing
  3515 ;; This function is called by:
  3516 ;;		_EUSART_Initialize
  3517 ;; This function uses a non-reentrant model
  3518 ;;
  3519                           
  3520                           	psect	text20
  3521   00229E                     __ptext20:
  3522                           	callstack 0
  3523   00229E                     _EUSART_FramingErrorCallbackRegister:
  3524                           	callstack 28
  3525   00229E                     
  3526                           ;mcc_generated_files/uart/src/eusart.c: 252: void EUSART_FramingErrorCallbackRegister(vo
      +                          id (* callbackHandler)(void));mcc_generated_files/uart/src/eusart.c: 253: {;mcc_generate
      +                          d_files/uart/src/eusart.c: 254:     if(((void*)0) != callbackHandler)
  3527   00229E  5001               	movf	EUSART_FramingErrorCallbackRegister@callbackHandler^0,w,c
  3528   0022A0  1002               	iorwf	(EUSART_FramingErrorCallbackRegister@callbackHandler+1)^0,w,c
  3529   0022A2  B4D8               	btfsc	status,2,c
  3530   0022A4  EF56  F011         	goto	u1091
  3531   0022A8  EF58  F011         	goto	u1090
  3532   0022AC                     u1091:
  3533   0022AC  EF5C  F011         	goto	l386
  3534   0022B0                     u1090:
  3535   0022B0                     
  3536                           ;mcc_generated_files/uart/src/eusart.c: 255:     {;mcc_generated_files/uart/src/eusart.c
      +                          : 256:         EUSART_FramingErrorHandler = callbackHandler;
  3537   0022B0  C001  F086         	movff	EUSART_FramingErrorCallbackRegister@callbackHandler,_EUSART_FramingErrorHandler
  3538   0022B4  C002  F087         	movff	EUSART_FramingErrorCallbackRegister@callbackHandler+1,_EUSART_FramingErrorHandler
      +                          +1
  3539   0022B8                     l386:
  3540   0022B8  0012               	return		;funcret
  3541   0022BA                     __end_of_EUSART_FramingErrorCallbackRegister:
  3542                           	callstack 0
  3543                           
  3544 ;; *************** function _CLOCK_Initialize *****************
  3545 ;; Defined at:
  3546 ;;		line 40 in file "mcc_generated_files/system/src/clock.c"
  3547 ;; Parameters:    Size  Location     Type
  3548 ;;		None
  3549 ;; Auto vars:     Size  Location     Type
  3550 ;;		None
  3551 ;; Return value:  Size  Location     Type
  3552 ;;                  1    wreg      void 
  3553 ;; Registers used:
  3554 ;;		wreg, status,2
  3555 ;; Tracked objects:
  3556 ;;		On entry : 0/0
  3557 ;;		On exit  : 0/0
  3558 ;;		Unchanged: 0/0
  3559 ;; Data sizes:     COMRAM   BANK0   BANK1   BANK2   BANK3   BANK4   BANK5   BANK6   BANK7   BANK8   BANK9  BANK10  BANK1
      +1  BANK12  BANK13  BANK14  BANK15
  3560 ;;      Params:         0       0       0       0       0       0       0       0       0       0       0       0       
      +0       0       0       0       0
  3561 ;;      Locals:         0       0       0       0       0       0       0       0       0       0       0       0       
      +0       0       0       0       0
  3562 ;;      Temps:          0       0       0       0       0       0       0       0       0       0       0       0       
      +0       0       0       0       0
  3563 ;;      Totals:         0       0       0       0       0       0       0       0       0       0       0       0       
      +0       0       0       0       0
  3564 ;;Total ram usage:        0 bytes
  3565 ;; Hardware stack levels used: 1
  3566 ;; This function calls:
  3567 ;;		Nothing
  3568 ;; This function is called by:
  3569 ;;		_SYSTEM_Initialize
  3570 ;; This function uses a non-reentrant model
  3571 ;;
  3572                           
  3573                           	psect	text21
  3574   002344                     __ptext21:
  3575                           	callstack 0
  3576   002344                     _CLOCK_Initialize:
  3577                           	callstack 29
  3578   002344                     
  3579                           ;mcc_generated_files/system/src/clock.c: 42:     OSCCON = (0 << 0x0)
  3580   002344  0E70               	movlw	112
  3581   002346  6ED3               	movwf	211,c	;volatile
  3582                           
  3583                           ;mcc_generated_files/system/src/clock.c: 46:     OSCTUNE = (0 << 0x0)
  3584   002348  0E00               	movlw	0
  3585   00234A  6E9B               	movwf	155,c	;volatile
  3586   00234C  0012               	return		;funcret
  3587   00234E                     __end_of_CLOCK_Initialize:
  3588                           	callstack 0
  3589                           
  3590 ;; *************** function _ADC_Initialize *****************
  3591 ;; Defined at:
  3592 ;;		line 53 in file "mcc_generated_files/adc/src/adc.c"
  3593 ;; Parameters:    Size  Location     Type
  3594 ;;		None
  3595 ;; Auto vars:     Size  Location     Type
  3596 ;;		None
  3597 ;; Return value:  Size  Location     Type
  3598 ;;                  1    wreg      void 
  3599 ;; Registers used:
  3600 ;;		wreg, status,2
  3601 ;; Tracked objects:
  3602 ;;		On entry : 0/0
  3603 ;;		On exit  : 0/0
  3604 ;;		Unchanged: 0/0
  3605 ;; Data sizes:     COMRAM   BANK0   BANK1   BANK2   BANK3   BANK4   BANK5   BANK6   BANK7   BANK8   BANK9  BANK10  BANK1
      +1  BANK12  BANK13  BANK14  BANK15
  3606 ;;      Params:         0       0       0       0       0       0       0       0       0       0       0       0       
      +0       0       0       0       0
  3607 ;;      Locals:         0       0       0       0       0       0       0       0       0       0       0       0       
      +0       0       0       0       0
  3608 ;;      Temps:          0       0       0       0       0       0       0       0       0       0       0       0       
      +0       0       0       0       0
  3609 ;;      Totals:         0       0       0       0       0       0       0       0       0       0       0       0       
      +0       0       0       0       0
  3610 ;;Total ram usage:        0 bytes
  3611 ;; Hardware stack levels used: 1
  3612 ;; This function calls:
  3613 ;;		Nothing
  3614 ;; This function is called by:
  3615 ;;		_SYSTEM_Initialize
  3616 ;; This function uses a non-reentrant model
  3617 ;;
  3618                           
  3619                           	psect	text22
  3620   0022D4                     __ptext22:
  3621                           	callstack 0
  3622   0022D4                     _ADC_Initialize:
  3623                           	callstack 29
  3624   0022D4                     
  3625                           ;mcc_generated_files/adc/src/adc.c: 55:     ADCON1 = 0x0;
  3626   0022D4  0E00               	movlw	0
  3627   0022D6  6EC1               	movwf	193,c	;volatile
  3628                           
  3629                           ;mcc_generated_files/adc/src/adc.c: 57:     ADCON2 = 0x00;
  3630   0022D8  0E00               	movlw	0
  3631   0022DA  6EC0               	movwf	192,c	;volatile
  3632                           
  3633                           ;mcc_generated_files/adc/src/adc.c: 60:     ADRESL = 0x0;
  3634   0022DC  0E00               	movlw	0
  3635   0022DE  6EC3               	movwf	195,c	;volatile
  3636                           
  3637                           ;mcc_generated_files/adc/src/adc.c: 63:     ADRESH = 0x0;
  3638   0022E0  0E00               	movlw	0
  3639   0022E2  6EC4               	movwf	196,c	;volatile
  3640                           
  3641                           ;mcc_generated_files/adc/src/adc.c: 66:     ADCON0 = 0x3;
  3642   0022E4  0E03               	movlw	3
  3643   0022E6  6EC2               	movwf	194,c	;volatile
  3644   0022E8                     
  3645                           ;mcc_generated_files/adc/src/adc.c: 69:     PIR1bits.ADIF = 0;
  3646   0022E8  9C9E               	bcf	158,6,c	;volatile
  3647   0022EA  0012               	return		;funcret
  3648   0022EC                     __end_of_ADC_Initialize:
  3649                           	callstack 0
  3650                           
  3651 ;; *************** function _LCD_WriteString *****************
  3652 ;; Defined at:
  3653 ;;		line 32 in file "lcd.c"
  3654 ;; Parameters:    Size  Location     Type
  3655 ;;  str             2    5[COMRAM] PTR const unsigned char 
  3656 ;;		 -> STR_3(5), main@str(6), STR_1(14), 
  3657 ;; Auto vars:     Size  Location     Type
  3658 ;;		None
  3659 ;; Return value:  Size  Location     Type
  3660 ;;                  1    wreg      void 
  3661 ;; Registers used:
  3662 ;;		wreg, fsr0l, fsr0h, status,2, status,0, tblptrl, tblptrh, tblptru, cstack
  3663 ;; Tracked objects:
  3664 ;;		On entry : 0/0
  3665 ;;		On exit  : 0/0
  3666 ;;		Unchanged: 0/0
  3667 ;; Data sizes:     COMRAM   BANK0   BANK1   BANK2   BANK3   BANK4   BANK5   BANK6   BANK7   BANK8   BANK9  BANK10  BANK1
      +1  BANK12  BANK13  BANK14  BANK15
  3668 ;;      Params:         2       0       0       0       0       0       0       0       0       0       0       0       
      +0       0       0       0       0
  3669 ;;      Locals:         0       0       0       0       0       0       0       0       0       0       0       0       
      +0       0       0       0       0
  3670 ;;      Temps:          0       0       0       0       0       0       0       0       0       0       0       0       
      +0       0       0       0       0
  3671 ;;      Totals:         2       0       0       0       0       0       0       0       0       0       0       0       
      +0       0       0       0       0
  3672 ;;Total ram usage:        2 bytes
  3673 ;; Hardware stack levels used: 1
  3674 ;; Hardware stack levels required when called: 3
  3675 ;; This function calls:
  3676 ;;		_LCD_WriteChar
  3677 ;; This function is called by:
  3678 ;;		_main
  3679 ;; This function uses a non-reentrant model
  3680 ;;
  3681                           
  3682                           	psect	text23
  3683   00208A                     __ptext23:
  3684                           	callstack 0
  3685   00208A                     _LCD_WriteString:
  3686                           	callstack 27
  3687   00208A                     
  3688                           ;lcd.c: 33:     while (*str) {
  3689   00208A  EF5C  F010         	goto	l2142
  3690   00208E                     l2138:
  3691                           
  3692                           ;lcd.c: 34:         LCD_WriteChar(*str++);
  3693   00208E  C006  FFF6         	movff	LCD_WriteString@str,tblptrl
  3694   002092  C007  FFF7         	movff	LCD_WriteString@str+1,tblptrh
  3695   002096  0E00               	movlw	low (__smallconst shr (0+16))
  3696   002098  6EF8               	movwf	tblptru,c
  3697   00209A  0E0F               	movlw	(high __ramtop+-1)
  3698   00209C  64F7               	cpfsgt	tblptrh,c
  3699   00209E  D003               	bra	u1187
  3700   0020A0  0008               	tblrd		*
  3701   0020A2  50F5               	movf	tablat,w,c
  3702   0020A4  D005               	bra	u1180
  3703   0020A6                     u1187:
  3704   0020A6  CFF6 FFE9          	movff	tblptrl,fsr0l
  3705   0020AA  CFF7 FFEA          	movff	tblptrh,fsr0h
  3706   0020AE  50EF               	movf	indf0,w,c
  3707   0020B0                     u1180:
  3708   0020B0  ECDD  F00F         	call	_LCD_WriteChar
  3709   0020B4  4A06               	infsnz	LCD_WriteString@str^0,f,c
  3710   0020B6  2A07               	incf	(LCD_WriteString@str+1)^0,f,c
  3711   0020B8                     l2142:
  3712                           
  3713                           ;lcd.c: 33:     while (*str) {
  3714   0020B8  C006  FFF6         	movff	LCD_WriteString@str,tblptrl
  3715   0020BC  C007  FFF7         	movff	LCD_WriteString@str+1,tblptrh
  3716   0020C0  0E00               	movlw	low (__smallconst shr (0+16))
  3717   0020C2  6EF8               	movwf	tblptru,c
  3718   0020C4  0E0F               	movlw	(high __ramtop+-1)
  3719   0020C6  64F7               	cpfsgt	tblptrh,c
  3720   0020C8  D003               	bra	u1197
  3721   0020CA  0008               	tblrd		*
  3722   0020CC  50F5               	movf	tablat,w,c
  3723   0020CE  D005               	bra	u1190
  3724   0020D0                     u1197:
  3725   0020D0  CFF6 FFE9          	movff	tblptrl,fsr0l
  3726   0020D4  CFF7 FFEA          	movff	tblptrh,fsr0h
  3727   0020D8  50EF               	movf	indf0,w,c
  3728   0020DA                     u1190:
  3729   0020DA  0900               	iorlw	0
  3730   0020DC  A4D8               	btfss	status,2,c
  3731   0020DE  EF73  F010         	goto	u1201
  3732   0020E2  EF75  F010         	goto	u1200
  3733   0020E6                     u1201:
  3734   0020E6  EF47  F010         	goto	l2138
  3735   0020EA                     u1200:
  3736   0020EA  0012               	return		;funcret
  3737   0020EC                     __end_of_LCD_WriteString:
  3738                           	callstack 0
  3739                           
  3740 ;; *************** function _LCD_WriteChar *****************
  3741 ;; Defined at:
  3742 ;;		line 18 in file "lcd.c"
  3743 ;; Parameters:    Size  Location     Type
  3744 ;;  data            1    wreg     unsigned char 
  3745 ;; Auto vars:     Size  Location     Type
  3746 ;;  data            1    4[COMRAM] unsigned char 
  3747 ;; Return value:  Size  Location     Type
  3748 ;;                  1    wreg      void 
  3749 ;; Registers used:
  3750 ;;		wreg, status,2, status,0, cstack
  3751 ;; Tracked objects:
  3752 ;;		On entry : 0/0
  3753 ;;		On exit  : 0/0
  3754 ;;		Unchanged: 0/0
  3755 ;; Data sizes:     COMRAM   BANK0   BANK1   BANK2   BANK3   BANK4   BANK5   BANK6   BANK7   BANK8   BANK9  BANK10  BANK1
      +1  BANK12  BANK13  BANK14  BANK15
  3756 ;;      Params:         0       0       0       0       0       0       0       0       0       0       0       0       
      +0       0       0       0       0
  3757 ;;      Locals:         1       0       0       0       0       0       0       0       0       0       0       0       
      +0       0       0       0       0
  3758 ;;      Temps:          1       0       0       0       0       0       0       0       0       0       0       0       
      +0       0       0       0       0
  3759 ;;      Totals:         2       0       0       0       0       0       0       0       0       0       0       0       
      +0       0       0       0       0
  3760 ;;Total ram usage:        2 bytes
  3761 ;; Hardware stack levels used: 1
  3762 ;; Hardware stack levels required when called: 2
  3763 ;; This function calls:
  3764 ;;		_MCP23S09_Write
  3765 ;; This function is called by:
  3766 ;;		_LCD_WriteString
  3767 ;; This function uses a non-reentrant model
  3768 ;;
  3769                           
  3770                           	psect	text24
  3771   001FBA                     __ptext24:
  3772                           	callstack 0
  3773   001FBA                     _LCD_WriteChar:
  3774                           	callstack 27
  3775                           
  3776                           ;incstack = 0
  3777                           ;LCD_WriteChar@data stored from wreg
  3778   001FBA  6E05               	movwf	LCD_WriteChar@data^0,c
  3779   001FBC                     
  3780                           ;lcd.c: 20:     MCP23S09_Write(0x09,( (data & 0xF0) | 0x05));
  3781   001FBC  5005               	movf	LCD_WriteChar@data^0,w,c
  3782   001FBE  0BF0               	andlw	240
  3783   001FC0  0905               	iorlw	5
  3784   001FC2  6E02               	movwf	MCP23S09_Write@data^0,c
  3785   001FC4  0E09               	movlw	9
  3786   001FC6  EC5D  F011         	call	_MCP23S09_Write
  3787   001FCA                     
  3788                           ;lcd.c: 21:     _delay((unsigned long)((1)*(16000000/4000000.0)));
  3789   001FCA  F000 F000          	nop2		;2 cycle nop
  3790   001FCE  F000 F000          	nop2		;2 cycle nop
  3791                           
  3792                           ;lcd.c: 22:     MCP23S09_Write(0x09, ((data & 0xF0) |0x01));
  3793   001FD2  5005               	movf	LCD_WriteChar@data^0,w,c
  3794   001FD4  0BF0               	andlw	240
  3795   001FD6  0901               	iorlw	1
  3796   001FD8  6E02               	movwf	MCP23S09_Write@data^0,c
  3797   001FDA  0E09               	movlw	9
  3798   001FDC  EC5D  F011         	call	_MCP23S09_Write
  3799   001FE0                     
  3800                           ;lcd.c: 23:     _delay((unsigned long)((200)*(16000000/4000000.0)));
  3801   001FE0  0EA0               	movlw	160
  3802   001FE2                     u1927:
  3803   001FE2  F000 F000          	nop2	
  3804   001FE6  2EE8               	decfsz	wreg,f,c
  3805   001FE8  D7FC               	bra	u1927
  3806   001FEA                     
  3807                           ;lcd.c: 26:     MCP23S09_Write(0x09, (((data << 4) & 0xF0) | 0x05));
  3808   001FEA  3805               	swapf	LCD_WriteChar@data^0,w,c
  3809   001FEC  0BF0               	andlw	240
  3810   001FEE  0BF0               	andlw	240
  3811   001FF0  0905               	iorlw	5
  3812   001FF2  6E02               	movwf	MCP23S09_Write@data^0,c
  3813   001FF4  0E09               	movlw	9
  3814   001FF6  EC5D  F011         	call	_MCP23S09_Write
  3815   001FFA                     
  3816                           ;lcd.c: 27:     _delay((unsigned long)((1)*(16000000/4000000.0)));
  3817   001FFA  F000 F000          	nop2		;2 cycle nop
  3818   001FFE  F000 F000          	nop2		;2 cycle nop
  3819   002002                     
  3820                           ;lcd.c: 28:     MCP23S09_Write(0x09, (((data << 4) & 0xF0) |0x01));
  3821   002002  3805               	swapf	LCD_WriteChar@data^0,w,c
  3822   002004  0BF0               	andlw	240
  3823   002006  0BF0               	andlw	240
  3824   002008  0901               	iorlw	1
  3825   00200A  6E02               	movwf	MCP23S09_Write@data^0,c
  3826   00200C  0E09               	movlw	9
  3827   00200E  EC5D  F011         	call	_MCP23S09_Write
  3828   002012                     
  3829                           ;lcd.c: 29:     _delay((unsigned long)((2)*(16000000/4000.0)));
  3830   002012  0E0B               	movlw	11
  3831   002014  6E04               	movwf	??_LCD_WriteChar^0,c
  3832   002016  0E62               	movlw	98
  3833   002018                     u1937:
  3834   002018  2EE8               	decfsz	wreg,f,c
  3835   00201A  D7FE               	bra	u1937
  3836   00201C  2E04               	decfsz	??_LCD_WriteChar^0,f,c
  3837   00201E  D7FC               	bra	u1937
  3838   002020  F000 F000          	nop2	
  3839   002024  0012               	return		;funcret
  3840   002026                     __end_of_LCD_WriteChar:
  3841                           	callstack 0
  3842                           
  3843 ;; *************** function _LCD_Init *****************
  3844 ;; Defined at:
  3845 ;;		line 38 in file "lcd.c"
  3846 ;; Parameters:    Size  Location     Type
  3847 ;;		None
  3848 ;; Auto vars:     Size  Location     Type
  3849 ;;		None
  3850 ;; Return value:  Size  Location     Type
  3851 ;;                  1    wreg      void 
  3852 ;; Registers used:
  3853 ;;		wreg, status,2, status,0, cstack
  3854 ;; Tracked objects:
  3855 ;;		On entry : 0/0
  3856 ;;		On exit  : 0/0
  3857 ;;		Unchanged: 0/0
  3858 ;; Data sizes:     COMRAM   BANK0   BANK1   BANK2   BANK3   BANK4   BANK5   BANK6   BANK7   BANK8   BANK9  BANK10  BANK1
      +1  BANK12  BANK13  BANK14  BANK15
  3859 ;;      Params:         0       0       0       0       0       0       0       0       0       0       0       0       
      +0       0       0       0       0
  3860 ;;      Locals:         0       0       0       0       0       0       0       0       0       0       0       0       
      +0       0       0       0       0
  3861 ;;      Temps:          1       0       0       0       0       0       0       0       0       0       0       0       
      +0       0       0       0       0
  3862 ;;      Totals:         1       0       0       0       0       0       0       0       0       0       0       0       
      +0       0       0       0       0
  3863 ;;Total ram usage:        1 bytes
  3864 ;; Hardware stack levels used: 1
  3865 ;; Hardware stack levels required when called: 3
  3866 ;; This function calls:
  3867 ;;		_LCD_Command
  3868 ;;		_MCP23S09_Init
  3869 ;; This function is called by:
  3870 ;;		_main
  3871 ;; This function uses a non-reentrant model
  3872 ;;
  3873                           
  3874                           	psect	text25
  3875   001E2E                     __ptext25:
  3876                           	callstack 0
  3877   001E2E                     _LCD_Init:
  3878                           	callstack 27
  3879   001E2E                     
  3880                           ;lcd.c: 39:     MCP23S09_Init();
  3881   001E2E  EC20  F011         	call	_MCP23S09_Init	;wreg free
  3882   001E32                     
  3883                           ;lcd.c: 40:     _delay((unsigned long)((20)*(16000000/4000.0)));
  3884   001E32  0E68               	movlw	104
  3885   001E34  6E06               	movwf	??_LCD_Init^0,c
  3886   001E36  0EE4               	movlw	228
  3887   001E38                     u1947:
  3888   001E38  2EE8               	decfsz	wreg,f,c
  3889   001E3A  D7FE               	bra	u1947
  3890   001E3C  2E06               	decfsz	??_LCD_Init^0,f,c
  3891   001E3E  D7FC               	bra	u1947
  3892   001E40  F000 F000          	nop2	
  3893   001E44                     
  3894                           ;lcd.c: 42:     LCD_Command(0x33);
  3895   001E44  0E33               	movlw	51
  3896   001E46  ECA5  F00F         	call	_LCD_Command
  3897   001E4A                     
  3898                           ;lcd.c: 43:     _delay((unsigned long)((5)*(16000000/4000.0)));
  3899   001E4A  0E1A               	movlw	26
  3900   001E4C  6E06               	movwf	??_LCD_Init^0,c
  3901   001E4E  0EF8               	movlw	248
  3902   001E50                     u1957:
  3903   001E50  2EE8               	decfsz	wreg,f,c
  3904   001E52  D7FE               	bra	u1957
  3905   001E54  2E06               	decfsz	??_LCD_Init^0,f,c
  3906   001E56  D7FC               	bra	u1957
  3907   001E58  F000 F000          	nop2	
  3908   001E5C                     
  3909                           ;lcd.c: 44:     LCD_Command(0x32);
  3910   001E5C  0E32               	movlw	50
  3911   001E5E  ECA5  F00F         	call	_LCD_Command
  3912   001E62                     
  3913                           ;lcd.c: 45:     _delay((unsigned long)((5)*(16000000/4000.0)));
  3914   001E62  0E1A               	movlw	26
  3915   001E64  6E06               	movwf	??_LCD_Init^0,c
  3916   001E66  0EF8               	movlw	248
  3917   001E68                     u1967:
  3918   001E68  2EE8               	decfsz	wreg,f,c
  3919   001E6A  D7FE               	bra	u1967
  3920   001E6C  2E06               	decfsz	??_LCD_Init^0,f,c
  3921   001E6E  D7FC               	bra	u1967
  3922   001E70  F000 F000          	nop2	
  3923   001E74                     
  3924                           ;lcd.c: 46:     LCD_Command(0x28);
  3925   001E74  0E28               	movlw	40
  3926   001E76  ECA5  F00F         	call	_LCD_Command
  3927   001E7A                     
  3928                           ;lcd.c: 47:     _delay((unsigned long)((5)*(16000000/4000.0)));
  3929   001E7A  0E1A               	movlw	26
  3930   001E7C  6E06               	movwf	??_LCD_Init^0,c
  3931   001E7E  0EF8               	movlw	248
  3932   001E80                     u1977:
  3933   001E80  2EE8               	decfsz	wreg,f,c
  3934   001E82  D7FE               	bra	u1977
  3935   001E84  2E06               	decfsz	??_LCD_Init^0,f,c
  3936   001E86  D7FC               	bra	u1977
  3937   001E88  F000 F000          	nop2	
  3938   001E8C                     
  3939                           ;lcd.c: 48:     LCD_Command(0x0C);
  3940   001E8C  0E0C               	movlw	12
  3941   001E8E  ECA5  F00F         	call	_LCD_Command
  3942   001E92                     
  3943                           ;lcd.c: 49:     _delay((unsigned long)((5)*(16000000/4000.0)));
  3944   001E92  0E1A               	movlw	26
  3945   001E94  6E06               	movwf	??_LCD_Init^0,c
  3946   001E96  0EF8               	movlw	248
  3947   001E98                     u1987:
  3948   001E98  2EE8               	decfsz	wreg,f,c
  3949   001E9A  D7FE               	bra	u1987
  3950   001E9C  2E06               	decfsz	??_LCD_Init^0,f,c
  3951   001E9E  D7FC               	bra	u1987
  3952   001EA0  F000 F000          	nop2	
  3953   001EA4                     
  3954                           ;lcd.c: 50:     LCD_Command(0x06);
  3955   001EA4  0E06               	movlw	6
  3956   001EA6  ECA5  F00F         	call	_LCD_Command
  3957   001EAA                     
  3958                           ;lcd.c: 51:     _delay((unsigned long)((5)*(16000000/4000.0)));
  3959   001EAA  0E1A               	movlw	26
  3960   001EAC  6E06               	movwf	??_LCD_Init^0,c
  3961   001EAE  0EF8               	movlw	248
  3962   001EB0                     u1997:
  3963   001EB0  2EE8               	decfsz	wreg,f,c
  3964   001EB2  D7FE               	bra	u1997
  3965   001EB4  2E06               	decfsz	??_LCD_Init^0,f,c
  3966   001EB6  D7FC               	bra	u1997
  3967   001EB8  F000 F000          	nop2	
  3968   001EBC                     
  3969                           ;lcd.c: 52:     LCD_Command(0x01);
  3970   001EBC  0E01               	movlw	1
  3971   001EBE  ECA5  F00F         	call	_LCD_Command
  3972   001EC2                     
  3973                           ;lcd.c: 53:     _delay((unsigned long)((5)*(16000000/4000.0)));
  3974   001EC2  0E1A               	movlw	26
  3975   001EC4  6E06               	movwf	??_LCD_Init^0,c
  3976   001EC6  0EF8               	movlw	248
  3977   001EC8                     u2007:
  3978   001EC8  2EE8               	decfsz	wreg,f,c
  3979   001ECA  D7FE               	bra	u2007
  3980   001ECC  2E06               	decfsz	??_LCD_Init^0,f,c
  3981   001ECE  D7FC               	bra	u2007
  3982   001ED0  F000 F000          	nop2	
  3983   001ED4  0012               	return		;funcret
  3984   001ED6                     __end_of_LCD_Init:
  3985                           	callstack 0
  3986                           
  3987 ;; *************** function _MCP23S09_Init *****************
  3988 ;; Defined at:
  3989 ;;		line 12 in file "mcp23s09.c"
  3990 ;; Parameters:    Size  Location     Type
  3991 ;;		None
  3992 ;; Auto vars:     Size  Location     Type
  3993 ;;		None
  3994 ;; Return value:  Size  Location     Type
  3995 ;;                  1    wreg      void 
  3996 ;; Registers used:
  3997 ;;		wreg, status,2, cstack
  3998 ;; Tracked objects:
  3999 ;;		On entry : 0/0
  4000 ;;		On exit  : 0/0
  4001 ;;		Unchanged: 0/0
  4002 ;; Data sizes:     COMRAM   BANK0   BANK1   BANK2   BANK3   BANK4   BANK5   BANK6   BANK7   BANK8   BANK9  BANK10  BANK1
      +1  BANK12  BANK13  BANK14  BANK15
  4003 ;;      Params:         0       0       0       0       0       0       0       0       0       0       0       0       
      +0       0       0       0       0
  4004 ;;      Locals:         0       0       0       0       0       0       0       0       0       0       0       0       
      +0       0       0       0       0
  4005 ;;      Temps:          0       0       0       0       0       0       0       0       0       0       0       0       
      +0       0       0       0       0
  4006 ;;      Totals:         0       0       0       0       0       0       0       0       0       0       0       0       
      +0       0       0       0       0
  4007 ;;Total ram usage:        0 bytes
  4008 ;; Hardware stack levels used: 1
  4009 ;; Hardware stack levels required when called: 2
  4010 ;; This function calls:
  4011 ;;		_MCP23S09_Write
  4012 ;;		_SPI_Init
  4013 ;; This function is called by:
  4014 ;;		_LCD_Init
  4015 ;; This function uses a non-reentrant model
  4016 ;;
  4017                           
  4018                           	psect	text26
  4019   002240                     __ptext26:
  4020                           	callstack 0
  4021   002240                     _MCP23S09_Init:
  4022                           	callstack 27
  4023   002240                     
  4024                           ;mcp23s09.c: 14:     TRISDbits.TRISD0 = 0;
  4025   002240  9095               	bcf	149,0,c	;volatile
  4026   002242                     
  4027                           ;mcp23s09.c: 15:     SPI_Init();
  4028   002242  EC8C  F011         	call	_SPI_Init	;wreg free
  4029                           
  4030                           ;mcp23s09.c: 18:     MCP23S09_Write(0x0A, 0xFF);
  4031   002246  0EFF               	movlw	255
  4032   002248  6E02               	movwf	MCP23S09_Write@data^0,c
  4033   00224A  0E0A               	movlw	10
  4034   00224C  EC5D  F011         	call	_MCP23S09_Write
  4035                           
  4036                           ;mcp23s09.c: 20:     MCP23S09_Write(0x00, 0x00);
  4037   002250  0E00               	movlw	0
  4038   002252  6E02               	movwf	MCP23S09_Write@data^0,c
  4039   002254  0E00               	movlw	0
  4040   002256  EC5D  F011         	call	_MCP23S09_Write
  4041                           
  4042                           ;mcp23s09.c: 21:     MCP23S09_Write(0x06,0xFF);
  4043   00225A  0EFF               	movlw	255
  4044   00225C  6E02               	movwf	MCP23S09_Write@data^0,c
  4045   00225E  0E06               	movlw	6
  4046   002260  EC5D  F011         	call	_MCP23S09_Write
  4047   002264  0012               	return		;funcret
  4048   002266                     __end_of_MCP23S09_Init:
  4049                           	callstack 0
  4050                           
  4051 ;; *************** function _SPI_Init *****************
  4052 ;; Defined at:
  4053 ;;		line 5 in file "spi.c"
  4054 ;; Parameters:    Size  Location     Type
  4055 ;;		None
  4056 ;; Auto vars:     Size  Location     Type
  4057 ;;		None
  4058 ;; Return value:  Size  Location     Type
  4059 ;;                  1    wreg      void 
  4060 ;; Registers used:
  4061 ;;		wreg, status,2
  4062 ;; Tracked objects:
  4063 ;;		On entry : 0/0
  4064 ;;		On exit  : 0/0
  4065 ;;		Unchanged: 0/0
  4066 ;; Data sizes:     COMRAM   BANK0   BANK1   BANK2   BANK3   BANK4   BANK5   BANK6   BANK7   BANK8   BANK9  BANK10  BANK1
      +1  BANK12  BANK13  BANK14  BANK15
  4067 ;;      Params:         0       0       0       0       0       0       0       0       0       0       0       0       
      +0       0       0       0       0
  4068 ;;      Locals:         0       0       0       0       0       0       0       0       0       0       0       0       
      +0       0       0       0       0
  4069 ;;      Temps:          0       0       0       0       0       0       0       0       0       0       0       0       
      +0       0       0       0       0
  4070 ;;      Totals:         0       0       0       0       0       0       0       0       0       0       0       0       
      +0       0       0       0       0
  4071 ;;Total ram usage:        0 bytes
  4072 ;; Hardware stack levels used: 1
  4073 ;; This function calls:
  4074 ;;		Nothing
  4075 ;; This function is called by:
  4076 ;;		_MCP23S09_Init
  4077 ;; This function uses a non-reentrant model
  4078 ;;
  4079                           
  4080                           	psect	text27
  4081   002318                     __ptext27:
  4082                           	callstack 0
  4083   002318                     _SPI_Init:
  4084                           	callstack 28
  4085   002318                     
  4086                           ;spi.c: 6:     TRISCbits.TRISC3 = 0;
  4087   002318  9694               	bcf	148,3,c	;volatile
  4088                           
  4089                           ;spi.c: 7:     TRISCbits.TRISC5 = 0;
  4090   00231A  9A94               	bcf	148,5,c	;volatile
  4091   00231C                     
  4092                           ;spi.c: 8:     SSPCON1 = 0x20;
  4093   00231C  0E20               	movlw	32
  4094   00231E  6EC6               	movwf	198,c	;volatile
  4095                           
  4096                           ;spi.c: 9:     SSPSTAT = 0x00;
  4097   002320  0E00               	movlw	0
  4098   002322  6EC7               	movwf	199,c	;volatile
  4099   002324  0012               	return		;funcret
  4100   002326                     __end_of_SPI_Init:
  4101                           	callstack 0
  4102                           
  4103 ;; *************** function _LCD_Command *****************
  4104 ;; Defined at:
  4105 ;;		line 4 in file "lcd.c"
  4106 ;; Parameters:    Size  Location     Type
  4107 ;;  cmd             1    wreg     unsigned char 
  4108 ;; Auto vars:     Size  Location     Type
  4109 ;;  cmd             1    4[COMRAM] unsigned char 
  4110 ;; Return value:  Size  Location     Type
  4111 ;;                  1    wreg      void 
  4112 ;; Registers used:
  4113 ;;		wreg, status,2, status,0, cstack
  4114 ;; Tracked objects:
  4115 ;;		On entry : 0/0
  4116 ;;		On exit  : 0/0
  4117 ;;		Unchanged: 0/0
  4118 ;; Data sizes:     COMRAM   BANK0   BANK1   BANK2   BANK3   BANK4   BANK5   BANK6   BANK7   BANK8   BANK9  BANK10  BANK1
      +1  BANK12  BANK13  BANK14  BANK15
  4119 ;;      Params:         0       0       0       0       0       0       0       0       0       0       0       0       
      +0       0       0       0       0
  4120 ;;      Locals:         1       0       0       0       0       0       0       0       0       0       0       0       
      +0       0       0       0       0
  4121 ;;      Temps:          1       0       0       0       0       0       0       0       0       0       0       0       
      +0       0       0       0       0
  4122 ;;      Totals:         2       0       0       0       0       0       0       0       0       0       0       0       
      +0       0       0       0       0
  4123 ;;Total ram usage:        2 bytes
  4124 ;; Hardware stack levels used: 1
  4125 ;; Hardware stack levels required when called: 2
  4126 ;; This function calls:
  4127 ;;		_MCP23S09_Write
  4128 ;; This function is called by:
  4129 ;;		_main
  4130 ;;		_LCD_Init
  4131 ;; This function uses a non-reentrant model
  4132 ;;
  4133                           
  4134                           	psect	text28
  4135   001F4A                     __ptext28:
  4136                           	callstack 0
  4137   001F4A                     _LCD_Command:
  4138                           	callstack 27
  4139                           
  4140                           ;incstack = 0
  4141                           ;LCD_Command@cmd stored from wreg
  4142   001F4A  6E05               	movwf	LCD_Command@cmd^0,c
  4143   001F4C                     
  4144                           ;lcd.c: 6:     MCP23S09_Write(0x09, ((cmd & 0xF0) | 0x04));
  4145   001F4C  5005               	movf	LCD_Command@cmd^0,w,c
  4146   001F4E  0BF0               	andlw	240
  4147   001F50  0904               	iorlw	4
  4148   001F52  6E02               	movwf	MCP23S09_Write@data^0,c
  4149   001F54  0E09               	movlw	9
  4150   001F56  EC5D  F011         	call	_MCP23S09_Write
  4151   001F5A                     
  4152                           ;lcd.c: 7:     _delay((unsigned long)((1)*(16000000/4000000.0)));
  4153   001F5A  F000 F000          	nop2		;2 cycle nop
  4154   001F5E  F000 F000          	nop2		;2 cycle nop
  4155                           
  4156                           ;lcd.c: 8:     MCP23S09_Write(0x09, (cmd & 0xF0));
  4157   001F62  5005               	movf	LCD_Command@cmd^0,w,c
  4158   001F64  0BF0               	andlw	240
  4159   001F66  6E02               	movwf	MCP23S09_Write@data^0,c
  4160   001F68  0E09               	movlw	9
  4161   001F6A  EC5D  F011         	call	_MCP23S09_Write
  4162   001F6E                     
  4163                           ;lcd.c: 9:     _delay((unsigned long)((2)*(16000000/4000.0)));
  4164   001F6E  0E0B               	movlw	11
  4165   001F70  6E04               	movwf	??_LCD_Command^0,c
  4166   001F72  0E62               	movlw	98
  4167   001F74                     u2017:
  4168   001F74  2EE8               	decfsz	wreg,f,c
  4169   001F76  D7FE               	bra	u2017
  4170   001F78  2E04               	decfsz	??_LCD_Command^0,f,c
  4171   001F7A  D7FC               	bra	u2017
  4172   001F7C  F000 F000          	nop2	
  4173   001F80                     
  4174                           ;lcd.c: 12:     MCP23S09_Write(0x09, (((cmd << 4) & 0xF0) | 0x04));
  4175   001F80  3805               	swapf	LCD_Command@cmd^0,w,c
  4176   001F82  0BF0               	andlw	240
  4177   001F84  0BF0               	andlw	240
  4178   001F86  0904               	iorlw	4
  4179   001F88  6E02               	movwf	MCP23S09_Write@data^0,c
  4180   001F8A  0E09               	movlw	9
  4181   001F8C  EC5D  F011         	call	_MCP23S09_Write
  4182   001F90                     
  4183                           ;lcd.c: 13:     _delay((unsigned long)((1)*(16000000/4000000.0)));
  4184   001F90  F000 F000          	nop2		;2 cycle nop
  4185   001F94  F000 F000          	nop2		;2 cycle nop
  4186   001F98                     
  4187                           ;lcd.c: 14:     MCP23S09_Write(0x09, ((cmd << 4) & 0xF0));
  4188   001F98  3805               	swapf	LCD_Command@cmd^0,w,c
  4189   001F9A  0BF0               	andlw	240
  4190   001F9C  0BF0               	andlw	240
  4191   001F9E  6E02               	movwf	MCP23S09_Write@data^0,c
  4192   001FA0  0E09               	movlw	9
  4193   001FA2  EC5D  F011         	call	_MCP23S09_Write
  4194   001FA6                     
  4195                           ;lcd.c: 15:     _delay((unsigned long)((2)*(16000000/4000.0)));
  4196   001FA6  0E0B               	movlw	11
  4197   001FA8  6E04               	movwf	??_LCD_Command^0,c
  4198   001FAA  0E62               	movlw	98
  4199   001FAC                     u2027:
  4200   001FAC  2EE8               	decfsz	wreg,f,c
  4201   001FAE  D7FE               	bra	u2027
  4202   001FB0  2E04               	decfsz	??_LCD_Command^0,f,c
  4203   001FB2  D7FC               	bra	u2027
  4204   001FB4  F000 F000          	nop2	
  4205   001FB8  0012               	return		;funcret
  4206   001FBA                     __end_of_LCD_Command:
  4207                           	callstack 0
  4208                           
  4209 ;; *************** function _MCP23S09_Write *****************
  4210 ;; Defined at:
  4211 ;;		line 25 in file "mcp23s09.c"
  4212 ;; Parameters:    Size  Location     Type
  4213 ;;  reg             1    wreg     unsigned char 
  4214 ;;  data            1    1[COMRAM] unsigned char 
  4215 ;; Auto vars:     Size  Location     Type
  4216 ;;  reg             1    2[COMRAM] unsigned char 
  4217 ;; Return value:  Size  Location     Type
  4218 ;;                  1    wreg      void 
  4219 ;; Registers used:
  4220 ;;		wreg, status,2, cstack
  4221 ;; Tracked objects:
  4222 ;;		On entry : 0/0
  4223 ;;		On exit  : 0/0
  4224 ;;		Unchanged: 0/0
  4225 ;; Data sizes:     COMRAM   BANK0   BANK1   BANK2   BANK3   BANK4   BANK5   BANK6   BANK7   BANK8   BANK9  BANK10  BANK1
      +1  BANK12  BANK13  BANK14  BANK15
  4226 ;;      Params:         1       0       0       0       0       0       0       0       0       0       0       0       
      +0       0       0       0       0
  4227 ;;      Locals:         1       0       0       0       0       0       0       0       0       0       0       0       
      +0       0       0       0       0
  4228 ;;      Temps:          0       0       0       0       0       0       0       0       0       0       0       0       
      +0       0       0       0       0
  4229 ;;      Totals:         2       0       0       0       0       0       0       0       0       0       0       0       
      +0       0       0       0       0
  4230 ;;Total ram usage:        2 bytes
  4231 ;; Hardware stack levels used: 1
  4232 ;; Hardware stack levels required when called: 1
  4233 ;; This function calls:
  4234 ;;		_SPI_Write
  4235 ;; This function is called by:
  4236 ;;		_MCP23S09_Init
  4237 ;;		_LCD_Command
  4238 ;;		_LCD_WriteChar
  4239 ;; This function uses a non-reentrant model
  4240 ;;
  4241                           
  4242                           	psect	text29
  4243   0022BA                     __ptext29:
  4244                           	callstack 0
  4245   0022BA                     _MCP23S09_Write:
  4246                           	callstack 27
  4247                           
  4248                           ;incstack = 0
  4249                           ;MCP23S09_Write@reg stored from wreg
  4250   0022BA  6E03               	movwf	MCP23S09_Write@reg^0,c
  4251   0022BC                     
  4252                           ;mcp23s09.c: 26:     LATDbits.LATD0 = 0;
  4253   0022BC  908C               	bcf	140,0,c	;volatile
  4254   0022BE                     
  4255                           ;mcp23s09.c: 27:     SPI_Write(0b01000000);
  4256   0022BE  0E40               	movlw	64
  4257   0022C0  EC81  F011         	call	_SPI_Write
  4258   0022C4                     
  4259                           ;mcp23s09.c: 28:     SPI_Write(reg);
  4260   0022C4  5003               	movf	MCP23S09_Write@reg^0,w,c
  4261   0022C6  EC81  F011         	call	_SPI_Write
  4262   0022CA                     
  4263                           ;mcp23s09.c: 30:    SPI_Write(data);
  4264   0022CA  5002               	movf	MCP23S09_Write@data^0,w,c
  4265   0022CC  EC81  F011         	call	_SPI_Write
  4266   0022D0                     
  4267                           ;mcp23s09.c: 34:    LATDbits.LATD0 = 1;
  4268   0022D0  808C               	bsf	140,0,c	;volatile
  4269   0022D2  0012               	return		;funcret
  4270   0022D4                     __end_of_MCP23S09_Write:
  4271                           	callstack 0
  4272                           
  4273 ;; *************** function _SPI_Write *****************
  4274 ;; Defined at:
  4275 ;;		line 12 in file "spi.c"
  4276 ;; Parameters:    Size  Location     Type
  4277 ;;  data            1    wreg     unsigned char 
  4278 ;; Auto vars:     Size  Location     Type
  4279 ;;  data            1    0[COMRAM] unsigned char 
  4280 ;; Return value:  Size  Location     Type
  4281 ;;                  1    wreg      void 
  4282 ;; Registers used:
  4283 ;;		wreg
  4284 ;; Tracked objects:
  4285 ;;		On entry : 0/0
  4286 ;;		On exit  : 0/0
  4287 ;;		Unchanged: 0/0
  4288 ;; Data sizes:     COMRAM   BANK0   BANK1   BANK2   BANK3   BANK4   BANK5   BANK6   BANK7   BANK8   BANK9  BANK10  BANK1
      +1  BANK12  BANK13  BANK14  BANK15
  4289 ;;      Params:         0       0       0       0       0       0       0       0       0       0       0       0       
      +0       0       0       0       0
  4290 ;;      Locals:         1       0       0       0       0       0       0       0       0       0       0       0       
      +0       0       0       0       0
  4291 ;;      Temps:          0       0       0       0       0       0       0       0       0       0       0       0       
      +0       0       0       0       0
  4292 ;;      Totals:         1       0       0       0       0       0       0       0       0       0       0       0       
      +0       0       0       0       0
  4293 ;;Total ram usage:        1 bytes
  4294 ;; Hardware stack levels used: 1
  4295 ;; This function calls:
  4296 ;;		Nothing
  4297 ;; This function is called by:
  4298 ;;		_MCP23S09_Write
  4299 ;; This function uses a non-reentrant model
  4300 ;;
  4301                           
  4302                           	psect	text30
  4303   002302                     __ptext30:
  4304                           	callstack 0
  4305   002302                     _SPI_Write:
  4306                           	callstack 27
  4307                           
  4308                           ;incstack = 0
  4309                           ;SPI_Write@data stored from wreg
  4310   002302  6E01               	movwf	SPI_Write@data^0,c
  4311   002304                     
  4312                           ;spi.c: 13:     SSPBUF = data;
  4313   002304  C001  FFC9         	movff	SPI_Write@data,4041	;volatile
  4314   002308                     l206:
  4315   002308  A0C7               	btfss	199,0,c	;volatile
  4316   00230A  EF89  F011         	goto	u11
  4317   00230E  EF8B  F011         	goto	u10
  4318   002312                     u11:
  4319   002312  EF84  F011         	goto	l206
  4320   002316                     u10:
  4321   002316  0012               	return		;funcret
  4322   002318                     __end_of_SPI_Write:
  4323                           	callstack 0
  4324                           
  4325 ;; *************** function _ADC_GetConversion *****************
  4326 ;; Defined at:
  4327 ;;		line 92 in file "mcc_generated_files/adc/src/adc.c"
  4328 ;; Parameters:    Size  Location     Type
  4329 ;;  channel         1    wreg     enum E2740
  4330 ;; Auto vars:     Size  Location     Type
  4331 ;;  channel         1    4[COMRAM] enum E2740
  4332 ;; Return value:  Size  Location     Type
  4333 ;;                  2    0[COMRAM] unsigned short 
  4334 ;; Registers used:
  4335 ;;		wreg, status,2, status,0
  4336 ;; Tracked objects:
  4337 ;;		On entry : 0/0
  4338 ;;		On exit  : 0/0
  4339 ;;		Unchanged: 0/0
  4340 ;; Data sizes:     COMRAM   BANK0   BANK1   BANK2   BANK3   BANK4   BANK5   BANK6   BANK7   BANK8   BANK9  BANK10  BANK1
      +1  BANK12  BANK13  BANK14  BANK15
  4341 ;;      Params:         2       0       0       0       0       0       0       0       0       0       0       0       
      +0       0       0       0       0
  4342 ;;      Locals:         1       0       0       0       0       0       0       0       0       0       0       0       
      +0       0       0       0       0
  4343 ;;      Temps:          2       0       0       0       0       0       0       0       0       0       0       0       
      +0       0       0       0       0
  4344 ;;      Totals:         5       0       0       0       0       0       0       0       0       0       0       0       
      +0       0       0       0       0
  4345 ;;Total ram usage:        5 bytes
  4346 ;; Hardware stack levels used: 1
  4347 ;; This function calls:
  4348 ;;		Nothing
  4349 ;; This function is called by:
  4350 ;;		_main
  4351 ;; This function uses a non-reentrant model
  4352 ;;
  4353                           
  4354                           	psect	text31
  4355   0020EC                     __ptext31:
  4356                           	callstack 0
  4357   0020EC                     _ADC_GetConversion:
  4358                           	callstack 30
  4359                           
  4360                           ;incstack = 0
  4361                           ;ADC_GetConversion@channel stored from wreg
  4362   0020EC  6E05               	movwf	ADC_GetConversion@channel^0,c
  4363   0020EE                     
  4364                           ;mcc_generated_files/adc/src/adc.c: 94:     ADCON0bits.CHS = channel;
  4365   0020EE  C005  F003         	movff	ADC_GetConversion@channel,??_ADC_GetConversion
  4366   0020F2  4603               	rlncf	??_ADC_GetConversion^0,f,c
  4367   0020F4  4603               	rlncf	??_ADC_GetConversion^0,f,c
  4368   0020F6  50C2               	movf	194,w,c	;volatile
  4369   0020F8  1803               	xorwf	??_ADC_GetConversion^0,w,c
  4370   0020FA  0BC3               	andlw	-61
  4371   0020FC  1803               	xorwf	??_ADC_GetConversion^0,w,c
  4372   0020FE  6EC2               	movwf	194,c	;volatile
  4373   002100                     
  4374                           ;mcc_generated_files/adc/src/adc.c: 96:     ADCON0bits.ADON = 1;
  4375   002100  80C2               	bsf	194,0,c	;volatile
  4376   002102                     
  4377                           ;mcc_generated_files/adc/src/adc.c: 99:     _delay((unsigned long)((8)*(16000000/4000000
      +                          .0)));
  4378   002102  0E0A               	movlw	10
  4379   002104                     u2037:
  4380   002104  2EE8               	decfsz	wreg,f,c
  4381   002106  D7FE               	bra	u2037
  4382   002108  F000 F000          	nop2	
  4383   00210C                     
  4384                           ;mcc_generated_files/adc/src/adc.c: 102:     ADCON0bits.GO_nDONE = 1;
  4385   00210C  82C2               	bsf	194,1,c	;volatile
  4386   00210E                     l34:
  4387   00210E  B2C2               	btfsc	194,1,c	;volatile
  4388   002110  EF8C  F010         	goto	u1171
  4389   002114  EF8E  F010         	goto	u1170
  4390   002118                     u1171:
  4391   002118  EF87  F010         	goto	l34
  4392   00211C                     u1170:
  4393   00211C                     
  4394                           ;mcc_generated_files/adc/src/adc.c: 108:     return ((adc_result_t)((ADRESH << 8) + ADRE
      +                          SL));
  4395   00211C  50C4               	movf	196,w,c	;volatile
  4396   00211E  6E04               	movwf	(??_ADC_GetConversion+1)^0,c
  4397   002120  6A03               	clrf	??_ADC_GetConversion^0,c
  4398   002122  50C3               	movf	195,w,c	;volatile
  4399   002124  2403               	addwf	??_ADC_GetConversion^0,w,c
  4400   002126  6E01               	movwf	?_ADC_GetConversion^0,c
  4401   002128  0E00               	movlw	0
  4402   00212A  2004               	addwfc	(??_ADC_GetConversion+1)^0,w,c
  4403   00212C  6E02               	movwf	(?_ADC_GetConversion+1)^0,c
  4404   00212E  0012               	return		;funcret
  4405   002130                     __end_of_ADC_GetConversion:
  4406                           	callstack 0
  4407                           
  4408                           	psect	rparam
  4409   000000                     
  4410                           	psect	config
  4411                           
  4412                           ; Padding undefined space
  4413   300000                     	org	3145728
  4414   300000  FF                 	db	255
  4415                           
  4416                           ;Config register CONFIG1H @ 0x300001
  4417                           ;	Oscillator Selection bits
  4418                           ;	FOSC = INTIO67, Internal oscillator block, port function on RA6 and RA7
  4419                           ;	Fail-Safe Clock Monitor Enable bit
  4420                           ;	FCMEN = OFF, Fail-Safe Clock Monitor disabled
  4421                           ;	Internal/External Oscillator Switchover bit
  4422                           ;	IESO = OFF, Oscillator Switchover mode disabled
  4423   300001                     	org	3145729
  4424   300001  08                 	db	8
  4425                           
  4426                           ;Config register CONFIG2L @ 0x300002
  4427                           ;	Power-up Timer Enable bit
  4428                           ;	PWRTEN = OFF, PWRT disabled
  4429                           ;	Brown-out Reset Enable bits
  4430                           ;	BOREN = SBORDIS, Brown-out Reset enabled in hardware only (SBOREN is disabled)
  4431                           ;	Brown Out Reset Voltage bits
  4432                           ;	BORV = 18, VBOR set to 1.8 V nominal
  4433   300002                     	org	3145730
  4434   300002  1F                 	db	31
  4435                           
  4436                           ;Config register CONFIG2H @ 0x300003
  4437                           ;	Watchdog Timer Enable bit
  4438                           ;	WDTEN = OFF, WDT is controlled by SWDTEN bit of the WDTCON register
  4439                           ;	Watchdog Timer Postscale Select bits
  4440                           ;	WDTPS = 32768, 1:32768
  4441   300003                     	org	3145731
  4442   300003  1E                 	db	30
  4443                           
  4444                           ; Padding undefined space
  4445   300004                     	org	3145732
  4446   300004  FF                 	db	255
  4447                           
  4448                           ;Config register CONFIG3H @ 0x300005
  4449                           ;	CCP2 MUX bit
  4450                           ;	CCP2MX = PORTC, CCP2 input/output is multiplexed with RC1
  4451                           ;	PORTB A/D Enable bit
  4452                           ;	PBADEN = ON, PORTB<4:0> pins are configured as analog input channels on Reset
  4453                           ;	Low-Power Timer1 Oscillator Enable bit
  4454                           ;	LPT1OSC = OFF, Timer1 configured for higher power operation
  4455                           ;	HFINTOSC Fast Start-up
  4456                           ;	HFOFST = ON, HFINTOSC starts clocking the CPU without waiting for the oscillator to st
      +                          ablize.
  4457                           ;	MCLR Pin Enable bit
  4458                           ;	MCLRE = ON, MCLR pin enabled; RE3 input pin disabled
  4459   300005                     	org	3145733
  4460   300005  8B                 	db	139
  4461                           
  4462                           ;Config register CONFIG4L @ 0x300006
  4463                           ;	Stack Full/Underflow Reset Enable bit
  4464                           ;	STVREN = ON, Stack full/underflow will cause Reset
  4465                           ;	Single-Supply ICSP Enable bit
  4466                           ;	LVP = ON, Single-Supply ICSP enabled
  4467                           ;	Extended Instruction Set Enable bit
  4468                           ;	XINST = OFF, Instruction set extension and Indexed Addressing mode disabled (Legacy mo
      +                          de)
  4469                           ;	Background Debugger Enable bit
  4470                           ;	DEBUG = 0x1, unprogrammed default
  4471   300006                     	org	3145734
  4472   300006  85                 	db	133
  4473                           
  4474                           ; Padding undefined space
  4475   300007                     	org	3145735
  4476   300007  FF                 	db	255
  4477                           
  4478                           ;Config register CONFIG5L @ 0x300008
  4479                           ;	Code Protection Block 0
  4480                           ;	CP0 = OFF, Block 0 (000800-003FFFh) not code-protected
  4481                           ;	Code Protection Block 1
  4482                           ;	CP1 = OFF, Block 1 (004000-007FFFh) not code-protected
  4483                           ;	Code Protection Block 2
  4484                           ;	CP2 = OFF, Block 2 (008000-00BFFFh) not code-protected
  4485                           ;	Code Protection Block 3
  4486                           ;	CP3 = OFF, Block 3 (00C000-00FFFFh) not code-protected
  4487   300008                     	org	3145736
  4488   300008  0F                 	db	15
  4489                           
  4490                           ;Config register CONFIG5H @ 0x300009
  4491                           ;	Boot Block Code Protection bit
  4492                           ;	CPB = OFF, Boot block (000000-0007FFh) not code-protected
  4493                           ;	Data EEPROM Code Protection bit
  4494                           ;	CPD = OFF, Data EEPROM not code-protected
  4495   300009                     	org	3145737
  4496   300009  C0                 	db	192
  4497                           
  4498                           ;Config register CONFIG6L @ 0x30000A
  4499                           ;	Write Protection Block 0
  4500                           ;	WRT0 = OFF, Block 0 (000800-003FFFh) not write-protected
  4501                           ;	Write Protection Block 1
  4502                           ;	WRT1 = OFF, Block 1 (004000-007FFFh) not write-protected
  4503                           ;	Write Protection Block 2
  4504                           ;	WRT2 = OFF, Block 2 (008000-00BFFFh) not write-protected
  4505                           ;	Write Protection Block 3
  4506                           ;	WRT3 = OFF, Block 3 (00C000h-00FFFFh) not write-protected
  4507   30000A                     	org	3145738
  4508   30000A  0F                 	db	15
  4509                           
  4510                           ;Config register CONFIG6H @ 0x30000B
  4511                           ;	Configuration Register Write Protection bit
  4512                           ;	WRTC = OFF, Configuration registers (300000-3000FFh) not write-protected
  4513                           ;	Boot Block Write Protection bit
  4514                           ;	WRTB = OFF, Boot Block (000000-0007FFh) not write-protected
  4515                           ;	Data EEPROM Write Protection bit
  4516                           ;	WRTD = OFF, Data EEPROM not write-protected
  4517   30000B                     	org	3145739
  4518   30000B  E0                 	db	224
  4519                           
  4520                           ;Config register CONFIG7L @ 0x30000C
  4521                           ;	Table Read Protection Block 0
  4522                           ;	EBTR0 = OFF, Block 0 (000800-003FFFh) not protected from table reads executed in other
      +                           blocks
  4523                           ;	Table Read Protection Block 1
  4524                           ;	EBTR1 = OFF, Block 1 (004000-007FFFh) not protected from table reads executed in other
      +                           blocks
  4525                           ;	Table Read Protection Block 2
  4526                           ;	EBTR2 = OFF, Block 2 (008000-00BFFFh) not protected from table reads executed in other
      +                           blocks
  4527                           ;	Table Read Protection Block 3
  4528                           ;	EBTR3 = OFF, Block 3 (00C000-00FFFFh) not protected from table reads executed in other
      +                           blocks
  4529   30000C                     	org	3145740
  4530   30000C  0F                 	db	15
  4531                           
  4532                           ;Config register CONFIG7H @ 0x30000D
  4533                           ;	Boot Block Table Read Protection bit
  4534                           ;	EBTRB = OFF, Boot Block (000000-0007FFh) not protected from table reads executed in ot
      +                          her blocks
  4535   30000D                     	org	3145741
  4536   30000D  40                 	db	64
  4537                           tosu	equ	0xFFF
  4538                           tosh	equ	0xFFE
  4539                           tosl	equ	0xFFD
  4540                           stkptr	equ	0xFFC
  4541                           pclatu	equ	0xFFB
  4542                           pclath	equ	0xFFA
  4543                           pcl	equ	0xFF9
  4544                           tblptru	equ	0xFF8
  4545                           tblptrh	equ	0xFF7
  4546                           tblptrl	equ	0xFF6
  4547                           tablat	equ	0xFF5
  4548                           prodh	equ	0xFF4
  4549                           prodl	equ	0xFF3
  4550                           indf0	equ	0xFEF
  4551                           postinc0	equ	0xFEE
  4552                           postdec0	equ	0xFED
  4553                           preinc0	equ	0xFEC
  4554                           plusw0	equ	0xFEB
  4555                           fsr0h	equ	0xFEA
  4556                           fsr0l	equ	0xFE9
  4557                           wreg	equ	0xFE8
  4558                           indf1	equ	0xFE7
  4559                           postinc1	equ	0xFE6
  4560                           postdec1	equ	0xFE5
  4561                           preinc1	equ	0xFE4
  4562                           plusw1	equ	0xFE3
  4563                           fsr1h	equ	0xFE2
  4564                           fsr1l	equ	0xFE1
  4565                           bsr	equ	0xFE0
  4566                           indf2	equ	0xFDF
  4567                           postinc2	equ	0xFDE
  4568                           postdec2	equ	0xFDD
  4569                           preinc2	equ	0xFDC
  4570                           plusw2	equ	0xFDB
  4571                           fsr2h	equ	0xFDA
  4572                           fsr2l	equ	0xFD9
  4573                           status	equ	0xFD8

Data Sizes:
    Strings     22
    Constant    48
    Data        0
    BSS         49
    Persistent  0
    Stack       0

Auto Spaces:
    Space          Size  Autos    Used
    COMRAM           95     89      94
    BANK0           160      0      44
    BANK1           256      0       0
    BANK2           256      0       0
    BANK3           256      0       0
    BANK4           256      0       0
    BANK5           256      0       0
    BANK6           256      0       0
    BANK7           256      0       0
    BANK8           256      0       0
    BANK9           256      0       0
    BANK10          256      0       0
    BANK11          256      0       0
    BANK12          256      0       0
    BANK13          256      0       0
    BANK14          256      0       0
    BANK15           96      0       0

Pointer List with Targets:

    EUSART_FramingErrorCallbackRegister@callbackHandler	PTR FTN()void  size(2) Largest target is 1
		 -> EUSART_DefaultFramingErrorCallback(), 

    EUSART_FramingErrorHandler	PTR FTN()void  size(2) Largest target is 1
		 -> EUSART_DefaultFramingErrorCallback(), NULL(), 

    EUSART_OverrunErrorCallbackRegister@callbackHandler	PTR FTN()void  size(2) Largest target is 1
		 -> EUSART_DefaultOverrunErrorCallback(), 

    EUSART_OverrunErrorHandler	PTR FTN()void  size(2) Largest target is 1
		 -> EUSART_DefaultOverrunErrorCallback(), NULL(), 

    f$.$buffer	PTR unsigned char  size(2) Largest target is 0

    f$.$source	PTR const unsigned char  size(2) Largest target is 0

    fputc@fp	PTR struct _IO_FILE size(1) Largest target is 12
		 -> sprintf@f(COMRAM[12]), 

    fputc@fp$.$buffer	PTR unsigned char  size(2) Largest target is 0

    fputc@fp$.$source	PTR const unsigned char  size(2) Largest target is 0

    INT0_InterruptHandler	PTR FTN()void  size(2) Largest target is 1
		 -> INT0_DefaultInterruptHandler(), NULL(), 

    INT0_SetInterruptHandler@InterruptHandler	PTR FTN()void  size(2) Largest target is 1
		 -> INT0_DefaultInterruptHandler(), 

    INT1_InterruptHandler	PTR FTN()void  size(2) Largest target is 1
		 -> INT1_DefaultInterruptHandler(), NULL(), 

    INT1_SetInterruptHandler@InterruptHandler	PTR FTN()void  size(2) Largest target is 1
		 -> INT1_DefaultInterruptHandler(), 

    INT2_InterruptHandler	PTR FTN()void  size(2) Largest target is 1
		 -> INT2_DefaultInterruptHandler(), NULL(), 

    INT2_SetInterruptHandler@InterruptHandler	PTR FTN()void  size(2) Largest target is 1
		 -> INT2_DefaultInterruptHandler(), 

    LCD_WriteString@str	PTR const unsigned char  size(2) Largest target is 14
		 -> main@str(COMRAM[6]), STR_1(CODE[14]), STR_3(CODE[5]), 

    S1788$buffer	PTR unsigned char  size(2) Largest target is 0

    S1788$source	PTR const unsigned char  size(2) Largest target is 0

    S911$20$0	PTR FTN()void  size(2) Largest target is 1
		 -> EUSART_DefaultFramingErrorCallback(), 

    S911$21$0	PTR FTN()void  size(2) Largest target is 1
		 -> EUSART_DefaultOverrunErrorCallback(), 

    S911$AutoBaudEventEnableGet	PTR FTN()_Bool  size(2) Largest target is 1
		 -> NULL(), 

    S911$AutoBaudQuery	PTR FTN()_Bool  size(2) Largest target is 1
		 -> EUSART_AutoBaudQuery(), 

    S911$AutoBaudSet	PTR FTN(_Bool ,)void  size(2) Largest target is 1
		 -> EUSART_AutoBaudSet(), 

    S911$BaudRateGet	PTR FTN()unsigned long  size(2) Largest target is 1
		 -> NULL(), 

    S911$BaudRateSet	PTR FTN(unsigned long ,)void  size(2) Largest target is 1
		 -> NULL(), 

    S911$BRGCountGet	PTR FTN()unsigned long  size(2) Largest target is 1
		 -> NULL(), 

    S911$BRGCountSet	PTR FTN(unsigned long ,)void  size(2) Largest target is 1
		 -> NULL(), 

    S911$Deinitialize	PTR FTN()void  size(2) Largest target is 1
		 -> EUSART_Deinitialize(), 

    S911$ErrorGet	PTR FTN()unsigned int  size(2) Largest target is 2
		 -> EUSART_ErrorGet(), 

    S911$EventCallbackRegister	PTR FTN(PTR FTN()void ,)void  size(2) Largest target is 1
		 -> NULL(), 

    S911$FramingErrorCallbackRegister	PTR FTN(PTR FTN()void ,)void  size(2) Largest target is 1
		 -> EUSART_FramingErrorCallbackRegister(), 

    S911$Initialize	PTR FTN()void  size(2) Largest target is 1
		 -> EUSART_Initialize(), 

    S911$IsRxReady	PTR FTN()_Bool  size(2) Largest target is 1
		 -> EUSART_IsRxReady(), 

    S911$IsTxDone	PTR FTN()_Bool  size(2) Largest target is 1
		 -> EUSART_IsTxDone(), 

    S911$IsTxReady	PTR FTN()_Bool  size(2) Largest target is 1
		 -> EUSART_IsTxReady(), 

    S911$OverrunErrorCallbackRegister	PTR FTN(PTR FTN()void ,)void  size(2) Largest target is 1
		 -> EUSART_OverrunErrorCallbackRegister(), 

    S911$ParityErrorCallbackRegister	PTR FTN(PTR FTN()void ,)void  size(2) Largest target is 1
		 -> NULL(), 

    S911$Read	PTR FTN()unsigned char  size(2) Largest target is 1
		 -> EUSART_Read(), 

    S911$RxCompleteCallbackRegister	PTR FTN(PTR FTN()void ,)void  size(2) Largest target is 1
		 -> NULL(), 

    S911$TransmitDisable	PTR FTN()void  size(2) Largest target is 1
		 -> EUSART_TransmitDisable(), 

    S911$TransmitEnable	PTR FTN()void  size(2) Largest target is 1
		 -> EUSART_TransmitEnable(), 

    S911$TxCollisionCallbackRegister	PTR FTN(PTR FTN()void ,)void  size(2) Largest target is 1
		 -> NULL(), 

    S911$TxCompleteCallbackRegister	PTR FTN(PTR FTN()void ,)void  size(2) Largest target is 1
		 -> NULL(), 

    S911$Write	PTR FTN(unsigned char ,)void  size(2) Largest target is 1
		 -> EUSART_Write(), 

    sprintf@ap	PTR void [1] size(1) Largest target is 2
		 -> ?_sprintf(COMRAM[2]), 

    sprintf@fmt	PTR const unsigned char  size(1) Largest target is 3
		 -> STR_2(CODE[3]), 

    sprintf@s	PTR unsigned char  size(1) Largest target is 6
		 -> main@str(COMRAM[6]), 

    UART1$AutoBaudEventEnableGet	PTR FTN()_Bool  size(2) Largest target is 1
		 -> NULL(), 

    UART1$AutoBaudQuery	PTR FTN()_Bool  size(2) Largest target is 1
		 -> EUSART_AutoBaudQuery(), 

    UART1$AutoBaudSet	PTR FTN(_Bool ,)void  size(2) Largest target is 1
		 -> EUSART_AutoBaudSet(), 

    UART1$BaudRateGet	PTR FTN()unsigned long  size(2) Largest target is 1
		 -> NULL(), 

    UART1$BaudRateSet	PTR FTN(unsigned long ,)void  size(2) Largest target is 1
		 -> NULL(), 

    UART1$BRGCountGet	PTR FTN()unsigned long  size(2) Largest target is 1
		 -> NULL(), 

    UART1$BRGCountSet	PTR FTN(unsigned long ,)void  size(2) Largest target is 1
		 -> NULL(), 

    UART1$Deinitialize	PTR FTN()void  size(2) Largest target is 1
		 -> EUSART_Deinitialize(), 

    UART1$ErrorGet	PTR FTN()unsigned int  size(2) Largest target is 2
		 -> EUSART_ErrorGet(), 

    UART1$EventCallbackRegister	PTR FTN(PTR FTN()void ,)void  size(2) Largest target is 1
		 -> NULL(), 

    UART1$FramingErrorCallbackRegister	PTR FTN(PTR FTN()void ,)void  size(2) Largest target is 1
		 -> EUSART_FramingErrorCallbackRegister(), 

    UART1$Initialize	PTR FTN()void  size(2) Largest target is 1
		 -> EUSART_Initialize(), 

    UART1$IsRxReady	PTR FTN()_Bool  size(2) Largest target is 1
		 -> EUSART_IsRxReady(), 

    UART1$IsTxDone	PTR FTN()_Bool  size(2) Largest target is 1
		 -> EUSART_IsTxDone(), 

    UART1$IsTxReady	PTR FTN()_Bool  size(2) Largest target is 1
		 -> EUSART_IsTxReady(), 

    UART1$OverrunErrorCallbackRegister	PTR FTN(PTR FTN()void ,)void  size(2) Largest target is 1
		 -> EUSART_OverrunErrorCallbackRegister(), 

    UART1$ParityErrorCallbackRegister	PTR FTN(PTR FTN()void ,)void  size(2) Largest target is 1
		 -> NULL(), 

    UART1$Read	PTR FTN()unsigned char  size(2) Largest target is 1
		 -> EUSART_Read(), 

    UART1$RxCompleteCallbackRegister	PTR FTN(PTR FTN()void ,)void  size(2) Largest target is 1
		 -> NULL(), 

    UART1$TransmitDisable	PTR FTN()void  size(2) Largest target is 1
		 -> EUSART_TransmitDisable(), 

    UART1$TransmitEnable	PTR FTN()void  size(2) Largest target is 1
		 -> EUSART_TransmitEnable(), 

    UART1$TxCollisionCallbackRegister	PTR FTN(PTR FTN()void ,)void  size(2) Largest target is 1
		 -> NULL(), 

    UART1$TxCompleteCallbackRegister	PTR FTN(PTR FTN()void ,)void  size(2) Largest target is 1
		 -> NULL(), 

    UART1$Write	PTR FTN(unsigned char ,)void  size(2) Largest target is 1
		 -> EUSART_Write(), 

    vfpfcnvrt@ap	PTR PTR void  size(1) Largest target is 1
		 -> sprintf@ap(COMRAM[1]), 

    vfpfcnvrt@cp	PTR unsigned char  size(1) Largest target is 3
		 -> STR_2(CODE[3]), 

    vfpfcnvrt@fmt	PTR PTR unsigned char  size(1) Largest target is 1
		 -> vfprintf@cfmt(COMRAM[1]), 

    vfpfcnvrt@fp	PTR struct _IO_FILE size(1) Largest target is 12
		 -> sprintf@f(COMRAM[12]), 

    vfprintf@ap	PTR PTR void  size(1) Largest target is 1
		 -> sprintf@ap(COMRAM[1]), 

    vfprintf@cfmt	PTR unsigned char  size(1) Largest target is 3
		 -> STR_2(CODE[3]), 

    vfprintf@fmt	PTR const unsigned char  size(1) Largest target is 3
		 -> STR_2(CODE[3]), 

    vfprintf@fp	PTR struct _IO_FILE size(1) Largest target is 12
		 -> sprintf@f(COMRAM[12]), 


Critical Paths under _main in COMRAM

    _main->___fltol
    _sprintf->_vfprintf
    _vfprintf->_vfpfcnvrt
    _vfpfcnvrt->_fputc
    ___fltol->___flmul
    ___flmul->___fldiv
    ___fldiv->___xxtofl
    _INTERRUPT_Initialize->_INT0_SetInterruptHandler
    _INTERRUPT_Initialize->_INT1_SetInterruptHandler
    _INTERRUPT_Initialize->_INT2_SetInterruptHandler
    _EUSART_Initialize->_EUSART_FramingErrorCallbackRegister
    _EUSART_Initialize->_EUSART_OverrunErrorCallbackRegister
    _LCD_WriteString->_LCD_WriteChar
    _LCD_WriteChar->_MCP23S09_Write
    _LCD_Init->_LCD_Command
    _MCP23S09_Init->_MCP23S09_Write
    _LCD_Command->_MCP23S09_Write
    _MCP23S09_Write->_SPI_Write

Critical Paths under _main in BANK0

    None.

Critical Paths under _main in BANK1

    None.

Critical Paths under _main in BANK2

    None.

Critical Paths under _main in BANK3

    None.

Critical Paths under _main in BANK4

    None.

Critical Paths under _main in BANK5

    None.

Critical Paths under _main in BANK6

    None.

Critical Paths under _main in BANK7

    None.

Critical Paths under _main in BANK8

    None.

Critical Paths under _main in BANK9

    None.

Critical Paths under _main in BANK10

    None.

Critical Paths under _main in BANK11

    None.

Critical Paths under _main in BANK12

    None.

Critical Paths under _main in BANK13

    None.

Critical Paths under _main in BANK14

    None.

Critical Paths under _main in BANK15

    None.

Call Graph Tables:

 ---------------------------------------------------------------------------------
 (Depth) Function   	        Calls       Base Space   Used Autos Params    Refs
 ---------------------------------------------------------------------------------
 (0) _main                                                15    15      0   11419
                                             74 COMRAM    15    15      0
                  _ADC_GetConversion
                        _LCD_Command
                           _LCD_Init
                    _LCD_WriteString
                  _SYSTEM_Initialize
                            ___fldiv
                            ___flmul
                            ___fltol
                           ___xxtofl
                            _sprintf
 ---------------------------------------------------------------------------------
 (1) _sprintf                                             19    15      4    2781
                                             22 COMRAM    17    13      4
                           _vfprintf
 ---------------------------------------------------------------------------------
 (2) _vfprintf                                             4     1      3    2430
                                             18 COMRAM     4     1      3
                          _vfpfcnvrt
 ---------------------------------------------------------------------------------
 (3) _vfpfcnvrt                                           11     8      3    2080
                                              8 COMRAM    10     7      3
                            ___lwdiv
                            ___lwmod
                              _fputc
 ---------------------------------------------------------------------------------
 (4) _fputc                                                8     5      3     782
                                              0 COMRAM     8     5      3
                              _putch
 ---------------------------------------------------------------------------------
 (5) _putch                                                1     1      0       0
 ---------------------------------------------------------------------------------
 (4) ___lwmod                                              5     1      4     311
                                              0 COMRAM     5     1      4
 ---------------------------------------------------------------------------------
 (4) ___lwdiv                                              7     3      4     314
                                              0 COMRAM     7     3      4
 ---------------------------------------------------------------------------------
 (1) ___xxtofl                                            14    10      4     398
                                              0 COMRAM    14    10      4
 ---------------------------------------------------------------------------------
 (1) ___fltol                                             10     6      4     305
                                             64 COMRAM    10     6      4
                            ___fldiv (ARG)
                            ___flmul (ARG)
                           ___xxtofl (ARG)
 ---------------------------------------------------------------------------------
 (1) ___flmul                                             25    17      8    1744
                                             39 COMRAM    25    17      8
                            ___fldiv (ARG)
                           ___xxtofl (ARG)
 ---------------------------------------------------------------------------------
 (1) ___fldiv                                             25    17      8    1399
                                             14 COMRAM    25    17      8
                           ___xxtofl (ARG)
 ---------------------------------------------------------------------------------
 (1) _SYSTEM_Initialize                                    0     0      0     534
                     _ADC_Initialize
                   _CLOCK_Initialize
                  _EUSART_Initialize
               _INTERRUPT_Initialize
             _PIN_MANAGER_Initialize
 ---------------------------------------------------------------------------------
 (2) _PIN_MANAGER_Initialize                               0     0      0       0
 ---------------------------------------------------------------------------------
 (2) _INTERRUPT_Initialize                                 0     0      0     294
           _INT0_SetInterruptHandler
           _INT1_SetInterruptHandler
           _INT2_SetInterruptHandler
 ---------------------------------------------------------------------------------
 (3) _INT2_SetInterruptHandler                             2     0      2      98
                                              0 COMRAM     2     0      2
 ---------------------------------------------------------------------------------
 (3) _INT1_SetInterruptHandler                             2     0      2      98
                                              0 COMRAM     2     0      2
 ---------------------------------------------------------------------------------
 (3) _INT0_SetInterruptHandler                             2     0      2      98
                                              0 COMRAM     2     0      2
 ---------------------------------------------------------------------------------
 (2) _EUSART_Initialize                                    0     0      0     240
_EUSART_FramingErrorCallbackRegister
_EUSART_OverrunErrorCallbackRegister
 ---------------------------------------------------------------------------------
 (3) _EUSART_OverrunErrorCallbackRegister                  2     0      2     120
                                              0 COMRAM     2     0      2
 ---------------------------------------------------------------------------------
 (3) _EUSART_FramingErrorCallbackRegister                  2     0      2     120
                                              0 COMRAM     2     0      2
 ---------------------------------------------------------------------------------
 (2) _CLOCK_Initialize                                     0     0      0       0
 ---------------------------------------------------------------------------------
 (2) _ADC_Initialize                                       0     0      0       0
 ---------------------------------------------------------------------------------
 (1) _LCD_WriteString                                      2     0      2    1256
                                              5 COMRAM     2     0      2
                      _LCD_WriteChar
 ---------------------------------------------------------------------------------
 (2) _LCD_WriteChar                                        2     2      0     983
                                              3 COMRAM     2     2      0
                     _MCP23S09_Write
 ---------------------------------------------------------------------------------
 (1) _LCD_Init                                             1     1      0    1878
                                              5 COMRAM     1     1      0
                        _LCD_Command
                      _MCP23S09_Init
 ---------------------------------------------------------------------------------
 (2) _MCP23S09_Init                                        0     0      0     895
                     _MCP23S09_Write
                           _SPI_Init
 ---------------------------------------------------------------------------------
 (3) _SPI_Init                                             0     0      0       0
 ---------------------------------------------------------------------------------
 (2) _LCD_Command                                          2     2      0     983
                                              3 COMRAM     2     2      0
                     _MCP23S09_Write
 ---------------------------------------------------------------------------------
 (3) _MCP23S09_Write                                       2     1      1     895
                                              1 COMRAM     2     1      1
                          _SPI_Write
 ---------------------------------------------------------------------------------
 (4) _SPI_Write                                            1     1      0      15
                                              0 COMRAM     1     1      0
 ---------------------------------------------------------------------------------
 (1) _ADC_GetConversion                                    5     3      2      22
                                              0 COMRAM     5     3      2
 ---------------------------------------------------------------------------------
 Estimated maximum stack depth 5
 ---------------------------------------------------------------------------------

 Call Graph Graphs:

 _main (ROOT)
   _ADC_GetConversion
   _LCD_Command
     _MCP23S09_Write
       _SPI_Write
   _LCD_Init
     _LCD_Command
     _MCP23S09_Init
       _MCP23S09_Write
       _SPI_Init
   _LCD_WriteString
     _LCD_WriteChar
       _MCP23S09_Write
   _SYSTEM_Initialize
     _ADC_Initialize
     _CLOCK_Initialize
     _EUSART_Initialize
       _EUSART_FramingErrorCallbackRegister
       _EUSART_OverrunErrorCallbackRegister
     _INTERRUPT_Initialize
       _INT0_SetInterruptHandler
       _INT1_SetInterruptHandler
       _INT2_SetInterruptHandler
     _PIN_MANAGER_Initialize
   ___fldiv
     ___xxtofl (ARG)
   ___flmul
     ___fldiv (ARG)
     ___xxtofl (ARG)
   ___fltol
     ___fldiv (ARG)
     ___flmul (ARG)
     ___xxtofl (ARG)
   ___xxtofl
   _sprintf
     _vfprintf
       _vfpfcnvrt
         ___lwdiv
         ___lwmod
         _fputc
           _putch

 Address spaces:
Name               Size   Autos  Total    Cost      Usage
BIGRAM             F5F      0       0      52        0.0%
EEDATA             400      0       0       0        0.0%
BITBANK14          100      0       0      33        0.0%
BANK14             100      0       0      34        0.0%
BITBANK13          100      0       0      31        0.0%
BANK13             100      0       0      32        0.0%
BITBANK12          100      0       0      29        0.0%
BANK12             100      0       0      30        0.0%
BITBANK11          100      0       0      26        0.0%
BANK11             100      0       0      27        0.0%
BITBANK10          100      0       0      24        0.0%
BANK10             100      0       0      25        0.0%
BITBANK9           100      0       0      22        0.0%
BANK9              100      0       0      23        0.0%
BITBANK8           100      0       0      20        0.0%
BANK8              100      0       0      21        0.0%
BITBANK7           100      0       0      18        0.0%
BANK7              100      0       0      19        0.0%
BITBANK6           100      0       0      16        0.0%
BANK6              100      0       0      17        0.0%
BITBANK5           100      0       0      14        0.0%
BANK5              100      0       0      15        0.0%
BITBANK4           100      0       0      12        0.0%
BANK4              100      0       0      13        0.0%
BITBANK3           100      0       0      10        0.0%
BANK3              100      0       0      11        0.0%
BITBANK2           100      0       0       8        0.0%
BANK2              100      0       0       9        0.0%
BITBANK1           100      0       0       6        0.0%
BANK1              100      0       0       7        0.0%
BITBANK0            A0      0       0       4        0.0%
BANK0               A0      0      2C       5       27.5%
BITBANK15           60      0       0      35        0.0%
BANK15              60      0       0      36        0.0%
BITCOMRAM           5F      0       0       0        0.0%
COMRAM              5F     59      5E       1       98.9%
BITBIGSFRhhlhh      1C      0       0      38        0.0%
BITBIGSFRlllll      1C      0       0      51        0.0%
BITBIGSFRhhh         D      0       0      37        0.0%
BITBIGSFRlhll        C      0       0      45        0.0%
BITBIGSFRlllh        9      0       0      49        0.0%
BITBIGSFRlhlhh       7      0       0      44        0.0%
BITBIGSFRlhh         7      0       0      43        0.0%
BITBIGSFRhhllhh      6      0       0      40        0.0%
BITBIGSFRllhhl       4      0       0      47        0.0%
BITBIGSFRllhl        4      0       0      48        0.0%
BITBIGSFRllhhh       2      0       0      46        0.0%
BITBIGSFRhhlhl       2      0       0      39        0.0%
BITBIGSFRhhllhl      1      0       0      41        0.0%
BITBIGSFRllllh       1      0       0      50        0.0%
BITBIGSFRhhlll       1      0       0      42        0.0%
BIGSFR               0      0       0     200        0.0%
BITSFR               0      0       0     200        0.0%
SFR                  0      0       0     200        0.0%
STACK                0      0       0       2        0.0%
NULL                 0      0       0       0        0.0%
ABS                  0      0      8A      28        0.0%
DATA                 0      0      8A       3        0.0%
CODE                 0      0       0       0        0.0%


Microchip Technology PIC18 Macro Assembler V2.46 build 20240104201356 
Symbol Table                                                                                   Sat Jul 06 18:43:05 2024

                                      ___fldiv@aexp 0027                                        ___fldiv@bexp 0026  
                                      ___fldiv@sign 001F                                        ?_LCD_Command 0001  
                                       _SSPSTATbits 0FC7                                                  l34 210E  
                                                l19 22EA                                                  l37 212E  
                                                l71 223E                                                  l87 2300  
                                                u10 2316                                                  u11 2312  
       __end_of_EUSART_OverrunErrorCallbackRegister 229E               ??_EUSART_OverrunErrorCallbackRegister 0003  
              ?_EUSART_OverrunErrorCallbackRegister 0001                 _EUSART_OverrunErrorCallbackRegister 2282  
                                               l122 220E                                                 l203 2324  
                                               l132 2342                                                 l206 2308  
                                               l222 2264                                                 l311 21A6  
                                               l209 2316                                                 l225 22D2  
                                               l145 2338                                                 l234 1FB8  
                                               l243 20EA                                                 l237 2024  
                                               l246 1ED4                                                 l158 232E  
                                               l168 234C                                                 l390 229C  
                                               l386 22B8                                                 l901 2088  
                                               l690 1D82                                                 l891 1F48  
                                               l980 162E                                                 l884 1F40  
                                               l894 2080                                                 l975 180A  
                                               l977 166A                                                 l986 16B0  
                                               l988 1728                                                 l989 1716  
                                               u990 1EF0                                                 u991 1EEC  
                        ??_INT0_SetInterruptHandler 0003                                                 wreg 0FE8  
                                 ??_LCD_WriteString 0008                                        ___flmul@aexp 0039  
                                      ___flmul@bexp 003A                                        ___flmul@sign 0034  
                                      ___flmul@temp 003F                                        ___flmul@prod 003B  
                                      ___fltol@exp1 004A                                                l1011 1470  
                                              l1014 1302                                                l1007 110C  
                                              l1200 2318                                                l1024 1432  
                                              l1016 137A                                                l2000 1A4C  
                                              l1017 1368                                                l1202 231C  
                                              l2010 1AB6                                                l2002 1A50  
                                              l1051 19BE                                                l1115 216E  
                                              l1140 2304                                                l1108 1B32  
                                              l2012 1AD0                                                l2004 1A74  
                                              l2020 1B02                                                l2110 1E32  
                                              l2030 2170                                                l2102 22EC  
                                              l1062 1956                                                l2014 1AD2  
                                              l2006 1A90                                                l1055 18FA  
                                              l1127 1E2C                                                l1071 21DA  
                                              l2120 1E74                                                l2112 1E44  
                                              l2032 2184                                                l2040 21EE  
                                              l2104 22F8                                                l2200 156C  
                                              l1048 1862                                                l2008 1AA2  
                                              l2024 1B0E                                                l2050 1F5A  
                                              l2130 1EAA                                                l2122 1E7A  
                                              l2114 1E4A                                                l2034 2190  
                                              l2042 21F0                                                l2106 22FC  
                                              l2210 1594                                                l2202 1570  
                                              l1138 234E                                                l2018 1AE8  
                                              l2060 1FA6                                                l2052 1F6E  
                                              l2132 1EBC                                                l2124 1E8C  
                                              l2116 1E5C                                                l2108 1E2E  
                                              l2140 20B4                                                l2044 21FE  
                                              l2036 21DC                                                l2220 15E2  
                                              l2300 1064                                                l2054 1F80  
                                              l2062 2240                                                l2134 1EC2  
                                              l2126 1E92                                                l2118 1E62  
                                              l2070 1FE0                                                l2142 20B8  
                                              l1270 22E8                                                l2046 2200  
                                              l2038 21E2                                                l2230 162C  
                                              l2222 15F2                                                l2214 15A8  
                                              l2206 1584                                                l2310 10AA  
                                              l2302 1074                                                l2150 21C0  
                                              l2056 1F90                                                l2048 1F4C  
                                              l2064 2242                                                l2128 1EA4  
                                              l2072 1FEA                                                l2136 208A  
                                              l1280 2236                                                l1272 2210  
                                              l2240 167A                                                l2232 1638  
                                              l2224 15FA                                                l2216 15C2  
                                              l2208 1594                                                l2160 148C  
                                              l2400 13CE                                                l2320 10D6  
                                              l2312 10B0                                                l2304 1084  
                                              l2080 2130                                                l2152 21D0  
                                              l2144 21A8                                                l2090 20EE  
                                              l2058 1F98                                                l2074 1FFA  
                                              l2066 1FBC                                                l2138 208E  
                                              l1282 223C                                                l1274 2224  
                                              l2242 1690                                                l2250 16C0  
                                              l2234 1656                                                l2226 160A  
                                              l2218 15D2                                                l2170 14C0  
                                              l2162 148E                                                l2410 1436  
                                              l2402 13D2                                                l2330 112C  
                                              l2322 10E6                                                l2314 10B6  
                                              l2306 1094                                                l2082 2138  
                                              l2146 21B0                                                l2092 2100  
                                              l2076 2002                                                l2068 1FCA  
                                              l1268 22D4                                                l1284 2344  
                                              l1276 2226                                                l2252 16CE  
                                              l2244 1696                                                l2236 1658  
                                              l2228 161E                                                l2180 14F2  
                                              l2164 149E                                                l2172 14C8  
                                              l2156 1472                                                l2420 1460  
                                              l2412 1446                                                l2404 13EC  
                                              l2340 116C                                                l2324 10F6  
                                              l2316 10C4                                                l2308 109A  
                                              l2500 1966                                                l2084 2148  
                                              l2148 21B8                                                l2094 2102  
                                              l2078 2012                                                l1278 222C  
                                              l2262 1738                                                l2270 1780  
                                              l2254 16D2                                                l2246 16A0  
                                              l2238 1668                                                l2190 1526  
                                              l2182 14F4                                                l2174 14D8  
                                              l2166 14AE                                                l2158 147E  
                                              l2414 1454                                                l2406 1400  
                                              l2350 11B6                                                l2342 1178  
                                              l2334 1140                                                l2326 10FC  
                                              l2318 10C6                                                l2430 1CA8  
                                              l2510 19AE                                                l2502 196A  
                                              l2086 2166                                                l2096 210C  
                                              l2280 17EA                                                l2272 179A  
                                              l2264 1744                                                l2256 16E0  
                                              l2248 16AE                                                l2184 1504  
                                              l2192 152E                                                l2176 14DE  
                                              l2168 14BE                                                l2416 1456  
                                              l2408 141A                                                l2360 1208  
                                              l2352 11C2                                                l2344 1190  
                                              l2336 114C                                                l2328 111C  
                                              l2440 1CF6                                                l2432 1CD2  
                                              l2424 1C7E                                                l2504 198E  
                                              l2098 211C                                                l2282 17F8  
                                              l2274 17B0                                                l2266 1752  
                                              l2258 170E                                                l2194 153E  
                                              l2186 1514                                                l2178 14E4  
                                              l2418 145C                                                l2370 1286  
                                              l2362 1218                                                l2354 11D2  
                                              l2346 119C                                                l2338 1156  
                                              l2450 1D22                                                l2434 1CD4  
                                              l2426 1C94                                                l2506 199E  
                                              l2530 1B6C                                                l2522 1B34  
                                              l2284 17FE                                                l2276 17CA  
                                              l2268 177C                                                l2196 1554  
                                              l2188 1524                                                l2380 1300  
                                              l2372 12BC                                                l2364 1234  
                                              l2356 11DE                                                l2348 11A8  
                                              l2460 1D52                                                l2436 1CE4  
                                              l2508 19AC                                                l2540 1C34  
                                              l2532 1B7A                                                l2524 1B3C  
                                              l2286 1800                                                l2278 17E6  
                                              l2198 1564                                                l2390 1360  
                                              l2382 1312                                                l2374 12CA  
                                              l2366 1240                                                l2358 11EE  
                                              l2294 1048                                                l2462 1D62  
                                              l2446 1D0E                                                l2438 1CE8  
                                              l2470 181E                                                l1910 1EDE  
                                              l2542 1C3E                                                l2534 1B9A  
                                              l2526 1B4C                                                l2384 1320  
                                              l2376 12E8                                                l2368 125C  
                                              l2296 1054                                                l2464 1D72  
                                              l2456 1D36                                                l2448 1D18  
                                              l2480 189C                                                l2472 182C  
                                              l1920 1F14                                                l1912 1EF0  
                                              l2544 1C58                                                l2536 1C10  
                                              l2528 1B66                                                l2394 138A  
                                              l2386 1324                                                l2378 12F2  
                                              l2298 1062                                                l2458 1D42  
                                              l2490 18F0                                                l2482 18A4  
                                              l2474 1872                                                l1922 1F2A  
                                              l1914 1EF8                                                l1930 2026  
                                              l2546 1C5E                                                l2538 1C24  
                                              l2396 1396                                                l2388 1332  
                                              l2492 192C                                                l2484 18B0  
                                              l2476 1888                                                l2468 180E  
                                              l1924 1F32                                                l1916 1F00  
                                              l1908 1ED6                                                l1940 206C  
                                              l1932 2038                                                l2398 13A4  
                                              l2494 1938                                                l2486 18E2  
                                              l1926 1F34                                                l1918 1F0E  
                                              l1942 2074                                                l1934 2040  
                                              l1950 1DA4                                                l1960 233A  
                                              l2496 1946                                                l2488 18E4  
                                              l1928 1F3A                                                l1944 207A  
                                              l1936 2048                                                l1952 1DAE  
                                              l1970 22C4                                                l1962 2330  
                                              l2498 1964                                                l1938 2056  
                                              l1954 1DCA                                                l1946 1D84  
                                              l1972 22CA                                                l1980 2282  
                                              l1964 2326                                                l1956 1DFC  
                                              l1948 1D94                                                l1974 22D0  
                                              l1966 22BC                                                l1982 2294  
                                              l1990 19FA                                                l1968 22BE  
                                              l1976 229E                                                l1992 19FE  
                                              l1984 19C0                                                l1978 22B0  
                                              l1994 1A08                                                l1986 19E4  
                                              l1996 1A26                                                l1988 19EC  
                                              l1998 1A3E                                                STR_1 1031  
                                              STR_2 1044                                                STR_3 103F  
                                              u1000 1F0E                                                u1001 1F0A  
                                              u1010 1F2A                                                u1011 1F26  
                                              u1100 2294                                                u1020 2038  
                                              u1101 2290                                                u1021 2034  
                                LCD_WriteString@str 0006                                                u1030 2056  
                                              u1110 19E4                                                u1031 2052  
                                              u1111 19E0                                                u1200 20EA  
                                              u1040 206C                                                u1120 1A26  
                                              u1201 20E6                                                u1041 2068  
                                              u1121 1A22                                                u1210 148C  
                                              u1050 1D94                                                u1130 1AA2  
                                              u1211 1488                                                u1051 1D90  
                                              u1131 1A9E                                                u1300 162C  
                                              u1220 149E                                                u1060 1DA4  
                                              u1140 1AB2                                                u1301 1628  
                                              u1221 149A                                                u1061 1DA0  
                                              u1141 1AAE                                                u1310 1656  
                                              u1230 14AE                                                u1070 1DCA  
                                              u1150 1AE4                                                u2007 1EC8  
                                              u1311 1652                                                u1231 14AA  
                                              u1071 1DC6                                                u1151 1AE0  
                                              u1400 1752                                                u1320 167A  
                                              u1240 14F2                                                u1080 1DFC  
                                              u1160 2166                                                u2017 1F74  
                                              u1401 174E                                                u1321 1676  
                                              u1241 14EE                                                u1081 1DF8  
                                              u1161 2162                                                u1170 211C  
                                              u1090 22B0                                                u1410 179A  
                                              u1330 1690                                                u1250 1504  
                                              u1171 2118                                                u2027 1FAC  
                                              u1091 22AC                                                u1411 1796  
                                              u1331 168C                                                u1251 1500  
                                              u1180 20B0                                                u1420 17CA  
                                              u1340 16AE                                                u1260 1514  
                                              u1500 111C                                                _IOCB 0F7D  
                                              u2037 2104                                                u1421 17C6  
                                              u1341 16AA                                                u1261 1510  
                                              u1501 1118                                                _LATA 0F89  
                                              u1190 20DA                                                u1430 17F8  
                                              u1350 16CE                                                u1270 1554  
                                              u1510 112C                                                _LATB 0F8A  
                                              u1431 17F4                                                u1351 16CA  
                                              u1271 1550                                                u1511 1128  
                                              _LATC 0F8B                                                u1360 16E0  
                                              u1280 1594                                                u1600 13EC  
                                              u1520 12A6                                                u1440 1062  
                                              _LATD 0F8C                                                u1361 16DC  
                                              u1281 1590                                                u1601 13E8  
                                              u1441 105E                                                _LATE 0F8D  
                                              u1370 170E                                                u1290 160A  
                                              u1610 141A                                                u1530 1300  
                                              u1450 1074                                                u1187 20A6  
                                              u1371 170A                                                u1291 1606  
                                              u1611 1416                                                u1531 12FC  
                                              u1451 1070                                                u1380 1724  
                                              u1620 1454                                                u1540 1320  
                                              u1460 1084                                                u1700 181E  
                                              u1197 20D0                                                u1381 1720  
                                              u1621 1450                                                u1541 131C  
                                              u1525 129C                                                u1461 1080  
                                              u1701 181A                                                u1390 1738  
                                              u1550 1332                                                u1470 10C4  
                                              u1630 1C94                                                u1710 182C  
                                              u1391 1734                                                u1551 132E  
                                              u1471 10C0                                                u1631 1C90  
                                              u1711 1828                                                u1560 1360  
                                              u1480 10D6                                                u1640 1CC8  
                                              u1720 1888                                                u1561 135C  
                                              u1481 10D2                                                u1721 1884  
                                              u1570 1376                                                u1490 10E6  
                                              u1650 1CF6                                                u1730 18DE  
                                              u1571 1372                                                u1491 10E2  
                                              u1651 1CF2                                                u1731 18DA  
                                              u1580 138A                                                u1660 1D0A  
                                              u1740 1928                                                u1581 1386  
                                              u1661 1D06                                                u1645 1CBE  
                                              u1741 1924                                                u1590 13A4  
                                              u1670 1D32                                                u1750 1946  
                                              u1591 13A0                                                u1671 1D2E  
                                              u1751 1942                                                u1680 1D52  
                                              u1760 1956                                                u1681 1D4E  
                                              u1761 1952                                                u1825 1B86  
                                              u1690 1D62                                                u1770 1964  
                                              u1691 1D5E                                                u1771 1960  
                                              u1907 1C48                                                u1780 199E  
                                              u1781 199A                                                u1917 1C68  
                                              u1790 19AC                                                u1927 1FE2  
                                              u1791 19A8                                                u1937 2018  
                                              u1947 1E38                                                u1957 1E50  
                                              u1967 1E68                                                u1977 1E80  
                                              u1897 1B56                                                u1987 1E98  
                                              u1997 1EB0                                                _WPUB 0F7C  
                                 MCP23S09_Write@reg 0003                                                _dbuf 0060  
                                              _main 1B34                                                _prec 0082  
                                              fsr0h 0FEA                                                fsr1h 0FE2  
                                              indf0 0FEF                                                fsr2h 0FDA  
                                              fsr0l 0FE9                                                indf2 0FDF  
                                              fsr1l 0FE1                                                fsr2l 0FD9  
                                      main@adcValue 0054                           ?_INT2_SetInterruptHandler 0001  
                                              prodh 0FF4                                                prodl 0FF3  
                                              start 0000                  _EUSART_DefaultOverrunErrorCallback 0000  
                                   ___fldiv@new_exp 0020                                       _LCD_WriteChar 1FBA  
                                      ___param_bank 0000                                    __end_of_LCD_Init 1ED6  
                                     ___fltol@sign1 0049                                               ?_main 0001  
                                   __end_of___fldiv 180C                                     __end_of___flmul 1472  
                                   __end_of___fltol 1D84                                     __end_of___lwdiv 1F4A  
                                   __end_of___lwmod 208A                                               _RCREG 0FAE  
                                             _RCSTA 0FAB                                               _UART1 1001  
                                      vfpfcnvrt@fmt 000A                                               _SPBRG 0FAF  
                                             _TRISA 0F92                                               _TRISB 0F93  
                                             _TRISC 0F94                                               _TRISD 0F95  
                                             _TRISE 0F96                                               _TXREG 0FAD  
                                             _TXSTA 0FAC                                  MCP23S09_Write@data 0002  
                                             _flags 005E                                               _fputc 1D84  
                                             _width 0080                                               _putch 234E  
                                  __end_of_SPI_Init 2326                            _INT1_SetInterruptHandler 2330  
                                             tablat 0FF5                                               status 0FD8  
                                   __end_of_sprintf 21DC                                      ?_LCD_WriteChar 0001  
                                   __initialization 2266                                        __end_of_main 1C7E  
                                            ??_main 004B                                       __activetblptr 0003  
EUSART_OverrunErrorCallbackRegister@callbackHandler 0001  EUSART_FramingErrorCallbackRegister@callbackHandler 0001  
                                            _ADCON0 0FC2                                              _ADCON1 0FC1  
                                            _ADCON2 0FC0                          _EUSART_OverrunErrorHandler 0084  
                                            ?_fputc 0001                                              _ADRESH 0FC4  
                                            _ADRESL 0FC3                               __end_of_MCP23S09_Init 2266  
                                            ?_putch 0001                                              _ANSELH 0F7F  
                                            _OSCCON 0FD3                                              _SPBRGH 0FB0  
                                            _SSPBUF 0FC9                                    __end_of___xxtofl 19C0  
                                      vfprintf@cfmt 0016                                           ??___fldiv 0017  
                                         ??___flmul 0030                                           ??___fltol 0045  
                                         ??___lwdiv 0005                                           ??___lwmod 0005  
                                            clear_0 226C                                              isa$std 0001  
                                 ?_CLOCK_Initialize 0001                                   __end_of_SPI_Write 2318  
                                            fputc@c 0001                        _INT2_DefaultInterruptHandler 0000  
                                ??_CLOCK_Initialize 0001                                        __mediumconst 0000  
                                            tblptrh 0FF7                                              tblptrl 0FF6  
                                            tblptru 0FF8                            ADC_GetConversion@channel 0005  
                                            putch@c 0001                                    __end_of_vfprintf 2170  
          INT2_SetInterruptHandler@InterruptHandler 0001            INT1_SetInterruptHandler@InterruptHandler 0001  
          INT0_SetInterruptHandler@InterruptHandler 0001                                           ??_sprintf 001B  
                                      ___xxtofl@arg 000B                                        ___xxtofl@exp 000A  
                                 _SYSTEM_Initialize 22EC                                        ___xxtofl@val 0001  
                                        __accesstop 0060                             __end_of__initialization 227C  
                                         ?_LCD_Init 0001                                     ??_LCD_WriteChar 0004  
                                ?_SYSTEM_Initialize 0001                                       ___rparam_used 0001  
                                        ___fltol@f1 0041                                       __end_of_UART1 1031  
                                    __pcstackCOMRAM 0001                                 ??_SYSTEM_Initialize 0003  
                                   _LCD_WriteString 208A                                       __end_of_fputc 1E2E  
                                     __end_of_putch 2350                                           ?_SPI_Init 0001  
                                    _MCP23S09_Write 22BA                    __end_of_INT2_SetInterruptHandler 2330  
                                           ??_fputc 0004                           __end_of_SYSTEM_Initialize 2302  
                                           ??_putch 0001                                          __pbssBANK0 0060  
                                        ??_LCD_Init 0006                               _INT0_InterruptHandler 005C  
                              _EUSART_AutoBaudQuery 0000                                             _BAUDCON 0FB8  
                                        ??_SPI_Init 0001                              __end_of_MCP23S09_Write 22D4  
                                   _EUSART_IsTxDone 0000                          ??_INT1_SetInterruptHandler 0003  
                                         ?___xxtofl 0001                                     _EUSART_ErrorGet 0000  
                                           _OSCTUNE 0F9B                                             _SSPCON1 0FC6  
                                           _SSPSTAT 0FC7                           ?_INT0_SetInterruptHandler 0001  
                           __end_of_LCD_WriteString 20EC                                             __Hparam 0000  
                                     SPI_Write@data 0001                                             __Lparam 0000  
                                 LCD_WriteChar@data 0005                                             ___fldiv 1472  
                                           ___flmul 1048                                             ___fltol 1C7E  
                                           ___lwdiv 1ED6                                             ___lwmod 2026  
                                         ?_vfprintf 0013                                        __psmallconst 1000  
                                           __pcinit 2266                                             __ramtop 1000  
                                           __ptext0 1B34                                             __ptext1 21A8  
                                           __ptext2 2130                                             __ptext3 19C0  
                                           __ptext4 1D84                                             __ptext5 234E  
                                           __ptext6 2026                                             __ptext7 1ED6  
                                           __ptext8 180C                                             __ptext9 1C7E  
                                   ?_MCP23S09_Write 0002                                          ??___xxtofl 0005  
                          ??_PIN_MANAGER_Initialize 0001                                             _sprintf 21A8  
                                           main@res 0056                                             main@str 004E  
                              end_of_initialization 227C                            _INT2_SetInterruptHandler 2326  
                                           fputc@fp 0003                                      LCD_Command@cmd 0005  
                                 _EUSART_Initialize 2170                                  ?_EUSART_Initialize 0001  
                                 __end_of_vfpfcnvrt 1B34                                           _RCSTAbits 0FAB  
                                           postdec2 0FDD                                             postinc0 0FEE  
                                           postinc1 0FE6                                             postinc2 0FDE  
                                  vfpfcnvrt@convarg 000D                                          ??_vfprintf 0016  
                               ??_EUSART_Initialize 0003                               _INT1_InterruptHandler 005A  
                                     ___xxtofl@sign 0009                                           _TRISCbits 0F94  
                                         _TRISDbits 0F95                                         ___fldiv@grs 0022  
                                       ___fldiv@rem 001B                                           _SPI_Write 2302  
                               _EUSART_Deinitialize 0000                                         ___flmul@grs 0035  
                         __end_of_EUSART_Initialize 21A8                                           _TXSTAbits 0FAC  
                                  ?_LCD_WriteString 0006                        __end_of_INTERRUPT_Initialize 2210  
                                     ??_LCD_Command 0004                        _INT0_DefaultInterruptHandler 0000  
                                       vfpfcnvrt@ap 000B                                         vfpfcnvrt@cp 0011  
                                       vfpfcnvrt@fp 0009                                         _BAUDCONbits 0FB8  
                                      _EUSART_Write 0000                                      _ADC_Initialize 22D4  
                               start_initialization 2266                                          ?_SPI_Write 0001  
                             __end_of_LCD_WriteChar 2026                                         vfprintf@fmt 0014  
                        _EUSART_FramingErrorHandler 0086                              __end_of_ADC_Initialize 22EC  
                                         ___fldiv@a 0013                                           ___fldiv@b 000F  
                               __end_of_LCD_Command 1FBA                                           ___flmul@a 002C  
                                         ___flmul@b 0028                                         __pbssCOMRAM 005A  
                  __end_of_INT0_SetInterruptHandler 2344                                       _MCP23S09_Init 2240  
                             _INT2_InterruptHandler 008A                                    ___lwdiv@dividend 0001  
                            _PIN_MANAGER_Initialize 2210                                            ?___fldiv 000F  
                                  ??_MCP23S09_Write 0003                                            ?___flmul 0028  
                                          ?___fltol 0041                                            ?___lwdiv 0001  
                                          ?___lwmod 0001                                     ?_ADC_Initialize 0001  
                                       __smallconst 1000                          ??_INT2_SetInterruptHandler 0003  
                            _EUSART_TransmitDisable 0000                                         ??_SPI_Write 0001  
                                  ___lwdiv@quotient 0005                                            ?_sprintf 0017  
                                    ?_MCP23S09_Init 0001                                    _EUSART_IsRxReady 0000  
                              _INTERRUPT_Initialize 21DC                                    _EUSART_IsTxReady 0000  
                                  _CLOCK_Initialize 2344                                            _LCD_Init 1E2E  
                                          _LATDbits 0F8C                           ?_INT1_SetInterruptHandler 0001  
                                 _eusartRxLastError 0088                                            _PIR1bits 0F9E  
                                          _RCONbits 0FD0                                         _LCD_Command 1F4A  
                                         _vfpfcnvrt 19C0                                            _SPI_Init 2318  
                                        _ADCON0bits 0FC2                                         _EUSART_Read 0000  
                                        vfpfcnvrt@c 0012                                         _INTCON2bits 0FF1  
                                       _INTCON3bits 0FF0                               ?_INTERRUPT_Initialize 0001  
                          _INT0_SetInterruptHandler 233A                                            __Hrparam 0000  
                                        vfprintf@ap 0015                                            __Lrparam 0000  
                                        vfprintf@fp 0013                                   _ADC_GetConversion 20EC  
                                ?_ADC_GetConversion 0001                                          ?_vfpfcnvrt 0009  
                               ??_ADC_GetConversion 0003                                          sprintf@fmt 0018  
                                          ___xxtofl 180C                                     ___lwdiv@divisor 0003  
                                   ??_MCP23S09_Init 0004                                  _EUSART_AutoBaudSet 0000  
                                   ___lwdiv@counter 0007                                            __ptext10 1048  
                                          __ptext11 1472                                            __ptext20 229E  
                                          __ptext12 22EC                                            __ptext21 2344  
                                          __ptext13 2210                                            __ptext30 2302  
                                          __ptext22 22D4                                            __ptext14 21DC  
                                          __ptext31 20EC                                            __ptext23 208A  
                                          __ptext15 2326                                            __ptext24 1FBA  
                                          __ptext16 2330                                            __ptext25 1E2E  
                                          __ptext17 233A                                            __ptext26 2240  
                                          __ptext18 2170                                            __ptext27 2318  
                                          __ptext19 2282                                            __ptext28 1F4A  
                                          __ptext29 22BA                               _EUSART_TransmitEnable 0000  
                         __end_of_ADC_GetConversion 2130                                            isa$xinst 0000  
                                          _vfprintf 2130         __end_of_EUSART_FramingErrorCallbackRegister 22BA  
             ??_EUSART_FramingErrorCallbackRegister 0003                ?_EUSART_FramingErrorCallbackRegister 0001  
               _EUSART_FramingErrorCallbackRegister 229E                                            main@temp 0058  
                      _INT1_DefaultInterruptHandler 0000                                          _INTCONbits 0FF2  
                            ??_INTERRUPT_Initialize 0003                                           sprintf@ap 001B  
                                  ___lwmod@dividend 0001                             ?_PIN_MANAGER_Initialize 0001  
                _EUSART_DefaultFramingErrorCallback 0000                                    ??_ADC_Initialize 0001  
                                       ??_vfpfcnvrt 000C                            __end_of_CLOCK_Initialize 234E  
                                          sprintf@f 001C                                            sprintf@s 0017  
                                   ___lwmod@divisor 0003                                     ___lwmod@counter 0005  
                  __end_of_INT1_SetInterruptHandler 233A                      __end_of_PIN_MANAGER_Initialize 2240  
